LX51 LINKER/LOCATER V4.66.97.0                                                          07/05/2021  21:57:21  PAGE 1


LX51 LINKER/LOCATER V4.66.97.0, INVOKED BY:
D:\WORK\KEILC51\C51\BIN\LX51.EXE .\Objects\main.obj, .\Objects\uart.obj, .\Objects\iic.obj, .\Objects\env.obj, .\Objects
>> \timer.obj, .\Objects\music.obj, .\Objects\key.obj, .\Objects\clock.obj, .\Objects\eeprom.obj, .\Objects\ADC.obj TO .
>> \Objects\123 PRINT (.\Listings\123.map) REMOVEUNUSED


CPU MODE:     8051 MODE
MEMORY MODEL: SMALL WITH FLOATING POINT ARITHMETIC


INPUT MODULES INCLUDED:
  .\Objects\main.obj (MAIN)
         COMMENT TYPE 0: C51 V9.60.0.0
  .\Objects\uart.obj (UART)
         COMMENT TYPE 0: C51 V9.60.0.0
  .\Objects\iic.obj (IIC)
         COMMENT TYPE 0: C51 V9.60.0.0
  .\Objects\env.obj (ENV)
         COMMENT TYPE 0: C51 V9.60.0.0
  .\Objects\timer.obj (TIMER)
         COMMENT TYPE 0: C51 V9.60.0.0
  .\Objects\music.obj (MUSIC)
         COMMENT TYPE 0: C51 V9.60.0.0
  .\Objects\key.obj (KEY)
         COMMENT TYPE 0: C51 V9.60.0.0
  .\Objects\clock.obj (CLOCK)
         COMMENT TYPE 0: C51 V9.60.0.0
  .\Objects\eeprom.obj (EEPROM)
         COMMENT TYPE 0: C51 V9.60.0.0
  .\Objects\ADC.obj (ADC)
         COMMENT TYPE 0: C51 V9.60.0.0
  D:\WORK\KEILC51\C51\LIB\C51FPS.LIB (?C?FPDIV)
         COMMENT TYPE 1: A51 / ASM51 Assembler
  D:\WORK\KEILC51\C51\LIB\C51FPS.LIB (?C?FCAST)
         COMMENT TYPE 1: A51 / ASM51 Assembler
  D:\WORK\KEILC51\C51\LIB\C51FPS.LIB (?C?CASTF)
         COMMENT TYPE 1: A51 / ASM51 Assembler
  D:\WORK\KEILC51\C51\LIB\C51FPS.LIB (PRINTF)
         COMMENT TYPE 1: A51 / ASM51 Assembler
  D:\WORK\KEILC51\C51\LIB\C51FPS.LIB (?C?FPGETOPN)
         COMMENT TYPE 1: A51 / ASM51 Assembler
  D:\WORK\KEILC51\C51\LIB\C51FPS.LIB (?C?FPROUND)
         COMMENT TYPE 1: A51 / ASM51 Assembler
  D:\WORK\KEILC51\C51\LIB\C51FPS.LIB (?C?FPCONVERT)
         COMMENT TYPE 1: A51 / ASM51 Assembler
  D:\WORK\KEILC51\C51\LIB\C51FPS.LIB (?C?FPADD)
         COMMENT TYPE 1: A51 / ASM51 Assembler
  D:\WORK\KEILC51\C51\LIB\C51FPS.LIB (?C?FPMUL)
         COMMENT TYPE 1: A51 / ASM51 Assembler
  D:\WORK\KEILC51\C51\LIB\C51FPS.LIB (?C?FTNPWR)
         COMMENT TYPE 1: A51 / ASM51 Assembler
  D:\WORK\KEILC51\C51\LIB\C51S.LIB (?C_STARTUP)
         COMMENT TYPE 1: A51 / ASM51 Assembler
  D:\WORK\KEILC51\C51\LIB\C51S.LIB (?C?COPY)
         COMMENT TYPE 1: A51 / ASM51 Assembler
  D:\WORK\KEILC51\C51\LIB\C51S.LIB (?C?CLDPTR)
         COMMENT TYPE 1: A51 / ASM51 Assembler
  D:\WORK\KEILC51\C51\LIB\C51S.LIB (?C?CLDOPTR)
         COMMENT TYPE 1: A51 / ASM51 Assembler
  D:\WORK\KEILC51\C51\LIB\C51S.LIB (?C?CSTPTR)
         COMMENT TYPE 1: A51 / ASM51 Assembler
  D:\WORK\KEILC51\C51\LIB\C51S.LIB (?C?CSTOPTR)
         COMMENT TYPE 1: A51 / ASM51 Assembler
  D:\WORK\KEILC51\C51\LIB\C51S.LIB (?C?IMUL)
         COMMENT TYPE 1: A51 / ASM51 Assembler
  D:\WORK\KEILC51\C51\LIB\C51S.LIB (?C?UIDIV)
LX51 LINKER/LOCATER V4.66.97.0                                                        07/05/2021  21:57:21  PAGE 2


         COMMENT TYPE 1: A51 / ASM51 Assembler
  D:\WORK\KEILC51\C51\LIB\C51S.LIB (?C?ILDOPTR)
         COMMENT TYPE 1: A51 / ASM51 Assembler
  D:\WORK\KEILC51\C51\LIB\C51S.LIB (?C?ISTOPTR)
         COMMENT TYPE 1: A51 / ASM51 Assembler
  D:\WORK\KEILC51\C51\LIB\C51S.LIB (?C?LMUL)
         COMMENT TYPE 1: A51 / ASM51 Assembler
  D:\WORK\KEILC51\C51\LIB\C51S.LIB (?C?ULDIV)
         COMMENT TYPE 1: A51 / ASM51 Assembler
  D:\WORK\KEILC51\C51\LIB\C51S.LIB (?C?SLDIV)
         COMMENT TYPE 1: A51 / ASM51 Assembler
  D:\WORK\KEILC51\C51\LIB\C51S.LIB (?C?LNEG)
         COMMENT TYPE 1: A51 / ASM51 Assembler
  D:\WORK\KEILC51\C51\LIB\C51S.LIB (?C?SLCMP)
         COMMENT TYPE 1: A51 / ASM51 Assembler
  D:\WORK\KEILC51\C51\LIB\C51S.LIB (?C?ULCMP)
         COMMENT TYPE 1: A51 / ASM51 Assembler
  D:\WORK\KEILC51\C51\LIB\C51S.LIB (?C?ULSHR)
         COMMENT TYPE 1: A51 / ASM51 Assembler
  D:\WORK\KEILC51\C51\LIB\C51S.LIB (?C?SLSHR)
         COMMENT TYPE 1: A51 / ASM51 Assembler
  D:\WORK\KEILC51\C51\LIB\C51S.LIB (?C?LSHL)
         COMMENT TYPE 1: A51 / ASM51 Assembler
  D:\WORK\KEILC51\C51\LIB\C51S.LIB (?C?LSTXDATA)
         COMMENT TYPE 1: A51 / ASM51 Assembler
  D:\WORK\KEILC51\C51\LIB\C51S.LIB (?C?LSTKXDATA)
         COMMENT TYPE 1: A51 / ASM51 Assembler
  D:\WORK\KEILC51\C51\LIB\C51S.LIB (?C?OFFXADD)
         COMMENT TYPE 1: A51 / ASM51 Assembler
  D:\WORK\KEILC51\C51\LIB\C51S.LIB (?C?PLDIIDATA)
         COMMENT TYPE 1: A51 / ASM51 Assembler
  D:\WORK\KEILC51\C51\LIB\C51S.LIB (?C?PLDPTR)
         COMMENT TYPE 1: A51 / ASM51 Assembler
  D:\WORK\KEILC51\C51\LIB\C51S.LIB (?C?PSTPTR)
         COMMENT TYPE 1: A51 / ASM51 Assembler
  D:\WORK\KEILC51\C51\LIB\C51S.LIB (?C?CCASE)
         COMMENT TYPE 1: A51 / ASM51 Assembler
  D:\WORK\KEILC51\C51\LIB\C51S.LIB (PUTCHAR)
         COMMENT TYPE 1: A51 / ASM51 Assembler
  D:\WORK\KEILC51\C51\LIB\C51S.LIB (MALLOC)
         COMMENT TYPE 1: C51 Compiler
  D:\WORK\KEILC51\C51\LIB\C51S.LIB (INIT_MEM)
         COMMENT TYPE 1: C51 Compiler
  D:\WORK\KEILC51\C51\LIB\C51S.LIB (FREE)
         COMMENT TYPE 1: C51 Compiler
  D:\WORK\KEILC51\C51\LIB\C51S.LIB (?C_INIT)
         COMMENT TYPE 1: A51 / ASM51 Assembler
  D:\WORK\KEILC51\C51\LIB\C51S.LIB (?C?IILDX)
         COMMENT TYPE 1: A51 / ASM51 Assembler
  D:\WORK\KEILC51\C51\LIB\C51S.LIB (?C?PLDIDATA)
         COMMENT TYPE 1: A51 / ASM51 Assembler
  D:\WORK\KEILC51\C51\LIB\C51S.LIB (?C?PSTIDATA)
         COMMENT TYPE 1: A51 / ASM51 Assembler
  D:\WORK\KEILC51\C51\LIB\C51S.LIB (?C?PLDXDATA)
         COMMENT TYPE 1: A51 / ASM51 Assembler
  D:\WORK\KEILC51\C51\LIB\C51S.LIB (?C?PSTXDATA)
         COMMENT TYPE 1: A51 / ASM51 Assembler
  D:\WORK\KEILC51\C51\LIB\C51S.LIB (?C?PLDPDATA)
         COMMENT TYPE 1: A51 / ASM51 Assembler
  D:\WORK\KEILC51\C51\LIB\C51S.LIB (?C?PSTPDATA)
         COMMENT TYPE 1: A51 / ASM51 Assembler
  D:\WORK\KEILC51\C51\LIB\C51S.LIB (?C?PLDCODE)
         COMMENT TYPE 1: A51 / ASM51 Assembler


LX51 LINKER/LOCATER V4.66.97.0                                                        07/05/2021  21:57:21  PAGE 3


ACTIVE MEMORY CLASSES OF MODULE:  .\Objects\123 (MAIN)

BASE        START       END         USED      MEMORY CLASS
==========================================================
C:000000H   C:000000H   C:00FFFFH   0037E8H   CODE
I:000000H   I:000000H   I:00007FH   000076H   DATA
C:000000H   C:000000H   C:00FFFFH   0004EBH   CONST
I:000020H.0 I:000020H.0 I:00002FH.7 000002H.5 BIT
X:000000H   X:000000H   X:00FFFFH   0003DDH   XDATA
I:000000H   I:000000H   I:0000FFH   000001H   IDATA


MEMORY MAP OF MODULE:  .\Objects\123 (MAIN)


START     STOP      LENGTH    ALIGN  RELOC    MEMORY CLASS   SEGMENT NAME
=========================================================================

* * * * * * * * * * *   D A T A   M E M O R Y   * * * * * * * * * * * * *
000000H   000007H   000008H   ---    AT..     DATA           "REG BANK 0"
000008H   000014H   00000DH   BYTE   UNIT     DATA           ?DT?ENV
000015H   00001EH   00000AH   BYTE   UNIT     DATA           ?DT?TIMER
00001FH   00001FH   000001H   BYTE   UNIT     DATA           ?DT?MAIN
000020H.0 000021H.0 000001H.1 BIT    UNIT     BIT            _BIT_GROUP_
000021H.1 000021H.5 000000H.5 BIT    UNIT     BIT            ?BI?MAIN
000021H.6 000022H.1 000000H.4 BIT    UNIT     BIT            ?BI?TIMER
000022H.2 000022H.2 000000H.1 BIT    UNIT     BIT            ?BI?UART
000022H.3 000022H.3 000000H.1 BIT    UNIT     BIT            ?BI?KEY
000022H.4 000022H.4 000000H.1 BIT    UNIT     BIT            ?BI?CLOCK
000022H.5 000022H   000000H.3 ---    ---      **GAP**
000023H   000069H   000047H   BYTE   UNIT     DATA           _DATA_GROUP_
00006AH   000070H   000007H   BYTE   UNIT     DATA           ?DT?CLOCK
000071H   000074H   000004H   BYTE   UNIT     DATA           ?DT?KEY
000075H   000076H   000002H   BYTE   UNIT     DATA           ?DT?EEPROM
000077H   000077H   000001H   BYTE   UNIT     DATA           ?DT?UART
000078H   000078H   000001H   BYTE   UNIT     DATA           ?DT?MUSIC
000079H   000079H   000001H   BYTE   UNIT     IDATA          ?STACK

* * * * * * * * * * *   C O D E   M E M O R Y   * * * * * * * * * * * * *
000000H   000002H   000003H   ---    OFFS..   CODE           ?CO??C_STARTUP?0
000003H   000009H   000007H   BYTE   UNIT     CODE           ?PR?MUSIC_INIT?MUSIC
00000AH   00000AH   000001H   BYTE   UNIT     CONST          ?CO?KEY
00000BH   00000DH   000003H   BYTE   OFFS..   CODE           ?TIMER?0000B
00000EH   000021H   000014H   BYTE   UNIT     CODE           ?PR?_GETADCRESULT?ADC
000022H   000022H   000001H   ---    ---      **GAP**
000023H   000025H   000003H   BYTE   OFFS..   CODE           ?MAIN?00023
000026H   000041H   00001CH   BYTE   UNIT     CODE           ?PR?_BYTE_PROGRAM?EEPROM
000042H   000042H   000001H   ---    ---      **GAP**
000043H   000045H   000003H   BYTE   OFFS..   CODE           ?MAIN?00043
000046H   000A52H   000A0DH   BYTE   UNIT     CODE           ?C?LIB_CODE
000A53H   000EC1H   00046FH   BYTE   UNIT     CODE           ?PR?PRINTF?PRINTF
000EC2H   0011F0H   00032FH   BYTE   UNIT     CODE           ?PR?SETCLOCK?CLOCK
0011F1H   0014C4H   0002D4H   BYTE   UNIT     CODE           ?PR?GET_PRESSURE?ENV
0014C5H   0016DAH   000216H   BYTE   UNIT     CODE           ?PR?MAIN?MAIN
0016DBH   0018AEH   0001D4H   BYTE   UNIT     CODE           ?PR?_CHANGETONOWTIME?TIMER
0018AFH   001A30H   000182H   BYTE   UNIT     CODE           ?PR?T0_TIME?TIMER
001A31H   001B99H   000169H   BYTE   UNIT     CODE           ?PR?UARTEVENT?MAIN
001B9AH   001CDCH   000143H   BYTE   UNIT     CODE           ?PR?_NUM_TO_STR?UART
001CDDH   001E14H   000138H   BYTE   UNIT     CODE           ?PR?CONNECTSERVICE?MAIN
001E15H   001F39H   000125H   BYTE   UNIT     CODE           ?PR?CHECKCLOCK?TIMER
001F3AH   00205CH   000123H   BYTE   UNIT     CODE           ?PR?_PARSECLASS?TIMER
00205DH   002169H   00010DH   BYTE   UNIT     CODE           ?PR?_CONVERSION?ENV
00216AH   002274H   00010BH   BYTE   UNIT     CODE           ?PR?_SHOW_ONEBIT?CLOCK
002275H   002378H   000104H   BYTE   UNIT     CODE           ?PR?_FREE?FREE
002379H   002461H   0000E9H   BYTE   UNIT     CODE           ?C_INITSEG
LX51 LINKER/LOCATER V4.66.97.0                                                        07/05/2021  21:57:21  PAGE 4


002462H   002527H   0000C6H   BYTE   UNIT     CODE           ?PR?SHOWTIME?TIMER
002528H   0025E9H   0000C2H   BYTE   UNIT     CODE           ?PR?GET_TEMPERATURE?ENV
0025EAH   002697H   0000AEH   BYTE   UNIT     CODE           ?PR?TIME0_INIT?TIMER
002698H   002733H   00009CH   BYTE   UNIT     CODE           ?PR?_MALLOC?MALLOC
002734H   0027CDH   00009AH   BYTE   UNIT     CODE           ?PR?GETALLENV?ENV
0027CEH   002861H   000094H   BYTE   UNIT     CODE           ?PR?GETDATA?ENV
002862H   0028F1H   000090H   BYTE   UNIT     CODE           ?PR?PRESS_INIT?ENV
0028F2H   00297EH   00008DH   BYTE   UNIT     CODE           ?PR?_STRINCLUDE?UART
00297FH   002A0AH   00008CH   BYTE   UNIT     CODE           ?C_C51STARTUP
002A0BH   002A95H   00008BH   BYTE   UNIT     CODE           ?PR?_ADDCLOCK?TIMER
002A96H   002B1EH   000089H   BYTE   UNIT     CODE           ?PR?_DELETECLOCK?TIMER
002B1FH   002BA4H   000086H   BYTE   UNIT     CODE           ?PR?UPDATECLOCK?CLOCK
002BA5H   002C25H   000081H   BYTE   UNIT     CODE           ?PR?SER?MAIN
002C26H   002CA2H   00007DH   BYTE   UNIT     CODE           ?PR?_WRITE_TIME?CLOCK
002CA3H   002D17H   000075H   BYTE   UNIT     CODE           ?PR?_READ_TIME?CLOCK
002D18H   002D8BH   000074H   BYTE   UNIT     CODE           ?PR?_SENDTODOOR?MAIN
002D8CH   002DFFH   000074H   BYTE   UNIT     CODE           ?PR?_SENDTOLIGHT?MAIN
002E00H   002E6FH   000070H   BYTE   UNIT     CODE           ?PR?SCANKEY?KEY
002E70H   002EDDH   00006EH   BYTE   UNIT     CODE           ?PR?_SENDTOSERVE?MAIN
002EDEH   002F41H   000064H   BYTE   UNIT     CODE           ?PR?LIGHT_READ?ENV
002F42H   002F98H   000057H   BYTE   UNIT     CODE           ?PR?_SHOW_ONECLOCK?CLOCK
002F99H   002FE4H   00004CH   BYTE   UNIT     CODE           ?PR?UART2_ISR?MAIN
002FE5H   00302DH   000049H   BYTE   UNIT     CODE           ?PR?SHOWLIGHT?ENV
00302EH   003075H   000048H   BYTE   UNIT     CODE           ?PR?_UART2ADDCHAR?UART
003076H   0030BDH   000048H   BYTE   UNIT     CODE           ?PR?SHOWTEMPERATURE?ENV
0030BEH   003102H   000045H   BYTE   UNIT     CODE           ?PR?GETLIGHTSTR?ENV
003103H   003147H   000045H   BYTE   UNIT     CODE           ?PR?_PRESS_MULTIPLE_READ?ENV
003148H   00318BH   000044H   BYTE   UNIT     CODE           ?C?LDIV
00318CH   0031CDH   000042H   BYTE   UNIT     CODE           ?PR?GETTEMPSTR?ENV
0031CEH   00320FH   000042H   BYTE   UNIT     CODE           ?PR?GETPRESSURESTR?ENV
003210H   00324FH   000040H   BYTE   UNIT     CODE           ?PR?GETWETSTR?ENV
003250H   00328DH   00003EH   BYTE   UNIT     CODE           ?PR?_GETBIT?KEY
00328EH   0032C9H   00003CH   BYTE   UNIT     CODE           ?PR?_INIT_MEMPOOL?INIT_MEM
0032CAH   003304H   00003BH   BYTE   UNIT     CODE           ?PR?_UARTSEND?UART
003305H   00333FH   00003BH   BYTE   UNIT     CODE           ?PR?TIME_UPDATE?TIMER
003340H   003377H   000038H   BYTE   UNIT     CODE           ?PR?SHOWPRESS?ENV
003378H   0033ACH   000035H   BYTE   UNIT     CODE           ?PR?CLOCK_INIT?CLOCK
0033ADH   0033DDH   000031H   BYTE   UNIT     CODE           ?PR?UART2SEND?UART
0033DEH   00340DH   000030H   BYTE   UNIT     CODE           ?PR?_DELAY1MS?MAIN
00340EH   00343DH   000030H   BYTE   UNIT     CODE           ?PR?_UART2ADDCHARLEN?UART
00343EH   00346DH   000030H   BYTE   UNIT     CODE           ?PR?SHOWWET?ENV
00346EH   00349DH   000030H   BYTE   UNIT     CODE           ?PR?_ISRUN?TIMER
00349EH   0034C9H   00002CH   BYTE   UNIT     CODE           ?PR?_DELAY?ENV
0034CAH   0034F3H   00002AH   BYTE   UNIT     CODE           ?PR?UPDATASENSOR?MAIN
0034F4H   00351DH   00002AH   BYTE   UNIT     CODE           ?PR?_WRITE_BYTE?IIC
00351EH   003546H   000029H   BYTE   UNIT     CODE           ?PR?READ_BYTE?IIC
003547H   00356DH   000027H   BYTE   UNIT     CODE           ?PR?PUTCHAR?PUTCHAR
00356EH   003591H   000024H   BYTE   UNIT     CODE           ?PR?BMP085READPRESSURE?ENV
003592H   0035B4H   000023H   BYTE   UNIT     CODE           ?PR?_DELAY1?CLOCK
0035B5H   0035D4H   000020H   BYTE   UNIT     CODE           ?PR?_ES2?UART
0035D5H   0035F4H   000020H   BYTE   UNIT     CODE           ?PR?_S2RI?UART
0035F5H   003614H   000020H   BYTE   UNIT     CODE           ?PR?_S2TI?UART
003615H   003634H   000020H   BYTE   UNIT     CODE           ?PR?_BYTE_READ?EEPROM
003635H   003653H   00001FH   BYTE   UNIT     CODE           ?PR?BMP085READTEMP?ENV
003654H   00366EH   00001BH   BYTE   UNIT     CODE           ?PR?_DELAY2?ADC
00366FH   003688H   00001AH   BYTE   UNIT     CODE           ?PR?_SECTOR_ERASE?EEPROM
003689H   0036A0H   000018H   BYTE   UNIT     CODE           ?PR?UART2INIT?UART
0036A1H   0036B7H   000017H   BYTE   UNIT     CODE           ?PR?_SETTIME?TIMER
0036B8H   0036CDH   000016H   BYTE   UNIT     CODE           ?PR?SHOWDOORSTATE?MAIN
0036CEH   0036E3H   000016H   BYTE   UNIT     CODE           ?PR?SHOWLIGHTSTATE?MAIN
0036E4H   0036F9H   000016H   BYTE   UNIT     CODE           ?PR?SHOWSECURE?MAIN
0036FAH   00370FH   000016H   BYTE   UNIT     CODE           ?PR?UARTINIT?UART
003710H   003721H   000012H   BYTE   UNIT     CODE           ?PR?_LIGHT_WRITE?ENV
003722H   003732H   000011H   BYTE   UNIT     CODE           ?PR?LIGHT_START?ENV
003733H   003741H   00000FH   BYTE   UNIT     CODE           ?PR?WAITUART?MAIN
LX51 LINKER/LOCATER V4.66.97.0                                                        07/05/2021  21:57:21  PAGE 5


003742H   003750H   00000FH   BYTE   UNIT     CODE           ?PR?DELAY?IIC
003751H   00375FH   00000FH   BYTE   UNIT     CODE           ?PR?START?IIC
003760H   00376EH   00000FH   BYTE   UNIT     CODE           ?PR?INITADC?ADC
00376FH   00377CH   00000EH   BYTE   UNIT     CODE           ?PR?SEND_RESPONS?IIC
00377DH   003789H   00000DH   BYTE   UNIT     CODE           ?PR?DELAY20MS?ENV
00378AH   003795H   00000CH   BYTE   UNIT     CODE           ?PR?UART2SENDEND?UART
003796H   0037A1H   00000CH   BYTE   UNIT     CODE           ?PR?STOP?IIC
0037A2H   0037ADH   00000CH   BYTE   UNIT     CODE           ?PR?IAP_DISABLE?EEPROM
0037AEH   0037B8H   00000BH   BYTE   UNIT     CODE           ?PR?DELAY10MS?KEY
0037B9H   0037C2H   00000AH   BYTE   UNIT     CODE           ?PR?REC_RESPONS?IIC
0037C3H   0037CBH   000009H   BYTE   UNIT     CODE           ?PR?_UART2SENDCHAR?UART
0037CCH   0037D2H   000007H   BYTE   UNIT     CODE           ?PR?CLOCK_STOP?MUSIC
0037D3H   0037D8H   000006H   BYTE   UNIT     CODE           ?PR?CHECKBUSY?UART
0037D9H   0037DDH   000005H   BYTE   UNIT     CODE           ?PR?DELAY30US?ENV
0037DEH   0037E1H   000004H   BYTE   UNIT     CODE           ?PR?UART2CLEAR?UART
0037E2H   0037E4H   000003H   BYTE   UNIT     CODE           ?PR?CLOCK_START?MUSIC
0037E5H   0037E7H   000003H   BYTE   UNIT     CODE           ?PR?WARM_START?MUSIC
0037E8H   0037EAH   000003H   BYTE   UNIT     CODE           ?PR?CLASS_START?MUSIC
0037EBH   003A97H   0002ADH   BYTE   UNIT     CONST          ?CO?MAIN
003A98H   003BF2H   00015BH   BYTE   UNIT     CONST          ?CO?TIMER
003BF3H   003C81H   00008FH   BYTE   UNIT     CONST          ?CO?ENV
003C82H   003CD1H   000050H   BYTE   UNIT     CONST          ?CO?CLOCK
003CD2H   003CD4H   000003H   BYTE   UNIT     CONST          ?CO?UART

* * * * * * * * * * *  X D A T A   M E M O R Y  * * * * * * * * * * * * *
000000H   0002A5H   0002A6H   BYTE   UNIT     XDATA          ?XD?TIMER
0002A6H   000311H   00006CH   BYTE   UNIT     XDATA          ?XD?UART
000312H   000375H   000064H   BYTE   UNIT     XDATA          ?XD?MAIN
000376H   0003BDH   000048H   BYTE   UNIT     XDATA          ?XD?ENV
0003BEH   0003D4H   000017H   BYTE   UNIT     XDATA          ?XD?CLOCK
0003D5H   0003DCH   000008H   BYTE   UNIT     XDATA          ?XD?INIT_MEM

* * * * * * * * *   R E M O V E D     S E G M E N T S   * * * * * * * *
   *DEL*:           00009CH   BYTE   UNIT     CODE           ?PR?_UARTSEND_NUMBER?UART
   *DEL*:           000011H   BYTE   UNIT     DATA           ?DT?_UARTSEND_NUMBER?UART
   *DEL*:           00000AH   BYTE   UNIT     CODE           ?PR?INIT?IIC
   *DEL*:           00013AH   BYTE   UNIT     CODE           ?PR?_TIMETONUM?TIMER
   *DEL*:           00000CH   BYTE   UNIT     DATA           ?DT?_TIMETONUM?TIMER
   *DEL*:           00009CH   BYTE   UNIT     CODE           ?PR?SHOWCLOCK?TIMER
   *DEL*:           000003H   BYTE   UNIT     DATA           ?DT?SHOWCLOCK?TIMER
   *DEL*:           0000EDH   BYTE   UNIT     CODE           ?PR?SHOWCLOCKS?TIMER
   *DEL*:           000003H   BYTE   UNIT     DATA           ?DT?SHOWCLOCKS?TIMER
   *DEL*:           00002CH   BYTE   UNIT     CODE           ?PR?_DELAYS?MUSIC
   *DEL*:           000059H   BYTE   UNIT     CODE           ?PR?_SETBIT?KEY
   *DEL*:           000000H.1 BIT    UNIT     BIT            ?BI?_SETBIT?KEY
   *DEL*:           00008BH   BYTE   UNIT     CODE           ?PR?SCANMATRICKEY?KEY
   *DEL*:           000000H.1 BIT    UNIT     BIT            ?BI?SCANMATRICKEY?KEY
   *DEL*:           000015H   BYTE   UNIT     CODE           ?PR?TRANSFER?CLOCK
   *DEL*:           000019H   BYTE   UNIT     CODE           ?PR?DELAYMS?EEPROM



OVERLAY MAP OF MODULE:   .\Objects\123 (MAIN)


FUNCTION/MODULE                BIT_GROUP   DATA_GROUP 
--> CALLED FUNCTION/MODULE    START  STOP  START  STOP
======================================================
SER/MAIN                      ----- -----  ----- -----

*** NEW ROOT ****************

UART2_ISR/MAIN                ----- -----  ----- -----
  +--> _S2RI/UART

LX51 LINKER/LOCATER V4.66.97.0                                                        07/05/2021  21:57:21  PAGE 6


_S2RI/UART                    ----- -----  ----- -----

*** NEW ROOT ****************

T0_TIME/TIMER                 ----- -----  ----- -----
  +--> CLOCK_STOP/MUSIC

CLOCK_STOP/MUSIC              ----- -----  ----- -----

*** NEW ROOT ****************

?C_C51STARTUP                 ----- -----  ----- -----
  +--> MAIN/MAIN
  +--> ?C_INITSEG

MAIN/MAIN                     ----- -----  0023H 0025H
  +--> _DELAY1MS/MAIN
  +--> TIME0_INIT/TIMER
  +--> UARTINIT/UART
  +--> UART2INIT/UART
  +--> CONNECTSERVICE/MAIN
  +--> UART2CLEAR/UART
  +--> _UART2ADDCHAR/UART
  +--> UART2SENDEND/UART
  +--> PRESS_INIT/ENV
  +--> MUSIC_INIT/MUSIC
  +--> CLOCK_INIT/CLOCK
  +--> UPDATASENSOR/MAIN
  +--> TIME_UPDATE/TIMER
  +--> SHOWTIME/TIMER
  +--> CHECKBUSY/UART
  +--> GETALLENV/ENV
  +--> _SENDTOSERVE/MAIN
  +--> INITADC/ADC
  +--> _GETADCRESULT/ADC
  +--> WARM_START/MUSIC
  +--> SCANKEY/KEY
  +--> SHOWDOORSTATE/MAIN
  +--> _SENDTODOOR/MAIN
  +--> SHOWLIGHTSTATE/MAIN
  +--> _SENDTOLIGHT/MAIN
  +--> SHOWSECURE/MAIN
  +--> UARTEVENT/MAIN
  +--> CLOCK_STOP/MUSIC
  +--> _CHANGETONOWTIME/TIMER
  +--> UPDATECLOCK/CLOCK
  +--> SETCLOCK/CLOCK

_DELAY1MS/MAIN                ----- -----  ----- -----

TIME0_INIT/TIMER              ----- -----  ----- -----
  +--> _INIT_MEMPOOL/INIT_MEM
  +--> _MALLOC/MALLOC
  +--> _ADDCLOCK/TIMER
  +--> _PARSECLASS/TIMER
  +--> _CHANGETONOWTIME/TIMER

_INIT_MEMPOOL/INIT_MEM        ----- -----  ----- -----

_MALLOC/MALLOC                ----- -----  0031H 0034H

_ADDCLOCK/TIMER               ----- -----  002AH 0030H
  +--> _MALLOC/MALLOC

_PARSECLASS/TIMER             ----- -----  0026H 002DH
LX51 LINKER/LOCATER V4.66.97.0                                                        07/05/2021  21:57:21  PAGE 7



_CHANGETONOWTIME/TIMER        ----- -----  002BH 0037H
  +--> _ISRUN/TIMER

_ISRUN/TIMER                  ----- -----  ----- -----

UARTINIT/UART                 ----- -----  ----- -----

UART2INIT/UART                ----- -----  ----- -----

CONNECTSERVICE/MAIN           ----- -----  0026H 002AH
  +--> _UARTSEND/UART
  +--> WAITUART/MAIN
  +--> _SENDTOSERVE/MAIN
  +--> _STRINCLUDE/UART
  +--> _SETTIME/TIMER
  +--> UART2CLEAR/UART
  +--> _UART2ADDCHAR/UART
  +--> UART2SENDEND/UART
  +--> CHECKBUSY/UART

_UARTSEND/UART                ----- -----  004EH 0050H

WAITUART/MAIN                 ----- -----  ----- -----
  +--> _DELAY1MS/MAIN

_SENDTOSERVE/MAIN             ----- -----  002BH 004DH
  +--> PRINTF/PRINTF
  +--> _UARTSEND/UART
  +--> WAITUART/MAIN

PRINTF/PRINTF                 20H.0 21H.0  004EH 0069H
  +--> PUTCHAR/PUTCHAR

PUTCHAR/PUTCHAR               ----- -----  ----- -----

_STRINCLUDE/UART              ----- -----  002BH 0034H

_SETTIME/TIMER                ----- -----  ----- -----
  +--> _CHANGETONOWTIME/TIMER

UART2CLEAR/UART               ----- -----  ----- -----

_UART2ADDCHAR/UART            ----- -----  002FH 0031H

UART2SENDEND/UART             ----- -----  ----- -----
  +--> _UART2ADDCHAR/UART
  +--> UART2SEND/UART

UART2SEND/UART                ----- -----  ----- -----
  +--> _ES2/UART
  +--> _S2TI/UART
  +--> UART2CLEAR/UART

_ES2/UART                     ----- -----  ----- -----

_S2TI/UART                    ----- -----  ----- -----

CHECKBUSY/UART                ----- -----  ----- -----

PRESS_INIT/ENV                ----- -----  ----- -----
  +--> _PRESS_MULTIPLE_READ/ENV

_PRESS_MULTIPLE_READ/ENV      ----- -----  004EH 0050H
  +--> _DELAY/ENV
LX51 LINKER/LOCATER V4.66.97.0                                                        07/05/2021  21:57:21  PAGE 8


  +--> START/IIC
  +--> _WRITE_BYTE/IIC
  +--> READ_BYTE/IIC
  +--> SEND_RESPONS/IIC
  +--> STOP/IIC

_DELAY/ENV                    ----- -----  ----- -----

START/IIC                     ----- -----  ----- -----
  +--> DELAY/IIC

DELAY/IIC                     ----- -----  ----- -----

_WRITE_BYTE/IIC               ----- -----  ----- -----
  +--> DELAY/IIC
  +--> REC_RESPONS/IIC

REC_RESPONS/IIC               ----- -----  ----- -----
  +--> DELAY/IIC

READ_BYTE/IIC                 ----- -----  ----- -----
  +--> DELAY/IIC

SEND_RESPONS/IIC              20H.0 20H.0  ----- -----
  +--> DELAY/IIC

STOP/IIC                      ----- -----  ----- -----
  +--> DELAY/IIC

MUSIC_INIT/MUSIC              ----- -----  ----- -----

CLOCK_INIT/CLOCK              ----- -----  0026H 0026H
  +--> _BYTE_READ/EEPROM
  +--> _BYTE_PROGRAM/EEPROM
  +--> _DELAY1/CLOCK

_BYTE_READ/EEPROM             ----- -----  ----- -----
  +--> IAP_DISABLE/EEPROM

IAP_DISABLE/EEPROM            ----- -----  ----- -----

_BYTE_PROGRAM/EEPROM          ----- -----  ----- -----
  +--> IAP_DISABLE/EEPROM

_DELAY1/CLOCK                 ----- -----  ----- -----

UPDATASENSOR/MAIN             ----- -----  ----- -----
  +--> SHOWTEMPERATURE/ENV
  +--> CHECKBUSY/UART
  +--> SHOWPRESS/ENV
  +--> SHOWLIGHT/ENV
  +--> SHOWWET/ENV
  +--> SHOWDOORSTATE/MAIN
  +--> SHOWLIGHTSTATE/MAIN
  +--> SHOWSECURE/MAIN

SHOWTEMPERATURE/ENV           ----- -----  ----- -----
  +--> GET_TEMPERATURE/ENV
  +--> GETTEMPSTR/ENV
  +--> UART2CLEAR/UART
  +--> _UART2ADDCHAR/UART
  +--> _UART2ADDCHARLEN/UART
  +--> UART2SENDEND/UART

GET_TEMPERATURE/ENV           ----- -----  0026H 0035H
LX51 LINKER/LOCATER V4.66.97.0                                                        07/05/2021  21:57:21  PAGE 9


  +--> BMP085READTEMP/ENV

BMP085READTEMP/ENV            ----- -----  ----- -----
  +--> START/IIC
  +--> _WRITE_BYTE/IIC
  +--> STOP/IIC
  +--> _PRESS_MULTIPLE_READ/ENV

GETTEMPSTR/ENV                ----- -----  ----- -----
  +--> _CONVERSION/ENV

_CONVERSION/ENV               ----- -----  0027H 002AH

_UART2ADDCHARLEN/UART         ----- -----  0026H 0028H

SHOWPRESS/ENV                 ----- -----  ----- -----
  +--> GET_PRESSURE/ENV
  +--> GETPRESSURESTR/ENV
  +--> UART2CLEAR/UART
  +--> _UART2ADDCHAR/UART
  +--> UART2SENDEND/UART

GET_PRESSURE/ENV              ----- -----  0026H 004DH
  +--> BMP085READPRESSURE/ENV

BMP085READPRESSURE/ENV        ----- -----  ----- -----
  +--> START/IIC
  +--> _WRITE_BYTE/IIC
  +--> STOP/IIC
  +--> _PRESS_MULTIPLE_READ/ENV

GETPRESSURESTR/ENV            ----- -----  ----- -----
  +--> _CONVERSION/ENV

SHOWLIGHT/ENV                 ----- -----  0026H 0026H
  +--> LIGHT_START/ENV
  +--> LIGHT_READ/ENV
  +--> GETLIGHTSTR/ENV
  +--> UART2CLEAR/UART
  +--> _UART2ADDCHAR/UART
  +--> UART2SENDEND/UART

LIGHT_START/ENV               ----- -----  ----- -----
  +--> _LIGHT_WRITE/ENV
  +--> _DELAY/ENV

_LIGHT_WRITE/ENV              ----- -----  0027H 0027H
  +--> START/IIC
  +--> _WRITE_BYTE/IIC
  +--> STOP/IIC

LIGHT_READ/ENV                ----- -----  0027H 002FH
  +--> START/IIC
  +--> _WRITE_BYTE/IIC
  +--> READ_BYTE/IIC
  +--> SEND_RESPONS/IIC
  +--> STOP/IIC
  +--> _DELAY/ENV

GETLIGHTSTR/ENV               ----- -----  ----- -----
  +--> _CONVERSION/ENV

SHOWWET/ENV                   ----- -----  ----- -----
  +--> GETDATA/ENV
  +--> GETWETSTR/ENV
LX51 LINKER/LOCATER V4.66.97.0                                                        07/05/2021  21:57:21  PAGE 10


  +--> UART2CLEAR/UART
  +--> _UART2ADDCHAR/UART
  +--> UART2SENDEND/UART

GETDATA/ENV                   ----- -----  ----- -----
  +--> DELAY20MS/ENV
  +--> DELAY30US/ENV

DELAY20MS/ENV                 ----- -----  ----- -----

DELAY30US/ENV                 ----- -----  ----- -----

GETWETSTR/ENV                 ----- -----  ----- -----
  +--> _CONVERSION/ENV

SHOWDOORSTATE/MAIN            ----- -----  ----- -----
  +--> UART2CLEAR/UART
  +--> _UART2SENDCHAR/UART

_UART2SENDCHAR/UART           ----- -----  ----- -----
  +--> UART2CLEAR/UART
  +--> _UART2ADDCHAR/UART
  +--> UART2SENDEND/UART

SHOWLIGHTSTATE/MAIN           ----- -----  ----- -----
  +--> UART2CLEAR/UART
  +--> _UART2SENDCHAR/UART

SHOWSECURE/MAIN               ----- -----  ----- -----
  +--> UART2CLEAR/UART
  +--> _UART2SENDCHAR/UART

TIME_UPDATE/TIMER             ----- -----  ----- -----
  +--> _CHANGETONOWTIME/TIMER
  +--> CHECKCLOCK/TIMER

CHECKCLOCK/TIMER              ----- -----  0026H 0029H
  +--> CLOCK_START/MUSIC
  +--> UART2CLEAR/UART
  +--> _UART2ADDCHAR/UART
  +--> UART2SENDEND/UART
  +--> CLASS_START/MUSIC

CLOCK_START/MUSIC             ----- -----  ----- -----

CLASS_START/MUSIC             ----- -----  ----- -----

SHOWTIME/TIMER                ----- -----  ----- -----
  +--> UART2CLEAR/UART
  +--> _UART2ADDCHAR/UART
  +--> _NUM_TO_STR/UART
  +--> UART2SENDEND/UART

_NUM_TO_STR/UART              ----- -----  002FH 0038H

GETALLENV/ENV                 ----- -----  ----- -----
  +--> GETTEMPSTR/ENV
  +--> PRINTF/PRINTF
  +--> GETPRESSURESTR/ENV
  +--> GETWETSTR/ENV
  +--> GETLIGHTSTR/ENV

INITADC/ADC                   ----- -----  ----- -----
  +--> _DELAY2/ADC

LX51 LINKER/LOCATER V4.66.97.0                                                        07/05/2021  21:57:21  PAGE 11


_DELAY2/ADC                   ----- -----  ----- -----

_GETADCRESULT/ADC             ----- -----  ----- -----

WARM_START/MUSIC              ----- -----  ----- -----

SCANKEY/KEY                   20H.0 20H.0  0028H 0028H
  +--> _GETBIT/KEY
  +--> DELAY10MS/KEY

_GETBIT/KEY                   ----- -----  ----- -----

DELAY10MS/KEY                 ----- -----  ----- -----

_SENDTODOOR/MAIN              ----- -----  0026H 0048H
  +--> PRINTF/PRINTF
  +--> _UARTSEND/UART
  +--> WAITUART/MAIN

_SENDTOLIGHT/MAIN             ----- -----  0026H 0048H
  +--> PRINTF/PRINTF
  +--> _UARTSEND/UART
  +--> WAITUART/MAIN

UARTEVENT/MAIN                ----- -----  ----- -----
  +--> _STRINCLUDE/UART
  +--> SHOWDOORSTATE/MAIN
  +--> _SENDTODOOR/MAIN
  +--> _DELAY1MS/MAIN
  +--> _SENDTOSERVE/MAIN
  +--> WARM_START/MUSIC
  +--> UART2CLEAR/UART
  +--> _UART2ADDCHAR/UART
  +--> UART2SENDEND/UART
  +--> SHOWLIGHTSTATE/MAIN
  +--> _SENDTOLIGHT/MAIN
  +--> _PARSECLASS/TIMER

UPDATECLOCK/CLOCK             ----- -----  0026H 0029H
  +--> _DELETECLOCK/TIMER
  +--> _BYTE_READ/EEPROM
  +--> _ADDCLOCK/TIMER

_DELETECLOCK/TIMER            ----- -----  002AH 0031H
  +--> _FREE/FREE

_FREE/FREE                    ----- -----  0032H 0035H

SETCLOCK/CLOCK                ----- -----  0026H 0027H
  +--> _BYTE_READ/EEPROM
  +--> _READ_TIME/CLOCK
  +--> _SHOW_ONECLOCK/CLOCK
  +--> SCANKEY/KEY
  +--> UART2CLEAR/UART
  +--> _UART2ADDCHAR/UART
  +--> UART2SENDEND/UART
  +--> CHECKBUSY/UART
  +--> _SECTOR_ERASE/EEPROM
  +--> _DELAY1/CLOCK
  +--> _BYTE_PROGRAM/EEPROM
  +--> _WRITE_TIME/CLOCK

_READ_TIME/CLOCK              ----- -----  0028H 0028H
  +--> _BYTE_READ/EEPROM
  +--> _DELAY1/CLOCK
LX51 LINKER/LOCATER V4.66.97.0                                                        07/05/2021  21:57:21  PAGE 12



_SHOW_ONECLOCK/CLOCK          ----- -----  0028H 002BH
  +--> UART2CLEAR/UART
  +--> _SHOW_ONEBIT/CLOCK
  +--> UART2SENDEND/UART
  +--> CHECKBUSY/UART

_SHOW_ONEBIT/CLOCK            ----- -----  002CH 002EH
  +--> _UART2ADDCHAR/UART
  +--> _NUM_TO_STR/UART

_SECTOR_ERASE/EEPROM          ----- -----  ----- -----
  +--> IAP_DISABLE/EEPROM

_WRITE_TIME/CLOCK             ----- -----  0028H 0028H
  +--> _BYTE_PROGRAM/EEPROM
  +--> _DELAY1/CLOCK

?C_INITSEG                    ----- -----  ----- -----



PUBLIC SYMBOLS OF MODULE:  .\Objects\123 (MAIN)


      VALUE       CLASS    TYPE      PUBLIC SYMBOL NAME
      =================================================
      0000002AH   DATA     BYTE      ?_addClock?BYTE
      0000002FH   DATA     BYTE      ?_num_to_Str?BYTE
      0000004EH   DATA     ---       ?_PRINTF?BYTE
*DEL*:00000000H.0 BIT      BIT       ?_setBit?BIT
      00000028H   DATA     BYTE      ?_Show_oneclock?BYTE
      0000004EH   DATA     ---       ?_SPRINTF?BYTE
      0000002BH   DATA     BYTE      ?_strInclude?BYTE
*DEL*:00000000H   DATA     BYTE      ?_timeToNum?BYTE
      01000124H   CODE     ---       ?C?CASTF
      010009D5H   CODE     ---       ?C?CCASE
      01000654H   CODE     ---       ?C?CLDOPTR
      0100063BH   CODE     ---       ?C?CLDPTR
      00000000H   NUMBER   ---       ?C?CODESEG
      01000615H   CODE     ---       ?C?COPY
      01000693H   CODE     ---       ?C?CSTOPTR
      01000681H   CODE     ---       ?C?CSTPTR
      010000F0H   CODE     ---       ?C?FCASTC
      010000EBH   CODE     ---       ?C?FCASTI
      010000E6H   CODE     ---       ?C?FCASTL
      010002DEH   CODE     ---       ?C?FPADD
      010001D4H   CODE     ---       ?C?FPCONVERT
      01000049H   CODE     ---       ?C?FPDIV
      0100015BH   CODE     ---       ?C?FPGETOPN2
      010003CFH   CODE     ---       ?C?FPMUL
      01000190H   CODE     ---       ?C?FPNANRESULT
      0100019AH   CODE     ---       ?C?FPOVERFLOW
      01000172H   CODE     ---       ?C?FPRESULT
      01000186H   CODE     ---       ?C?FPRESULT2
      010001A5H   CODE     ---       ?C?FPROUND
      010002DAH   CODE     ---       ?C?FPSUB
      01000197H   CODE     ---       ?C?FPUNDERFLOW
      01000505H   CODE     ---       ?C?FTNPWR
      010009FBH   CODE     ---       ?C?IILDX
      0100071CH   CODE     ---       ?C?ILDOPTR
      010006B5H   CODE     ---       ?C?IMUL
      01000754H   CODE     ---       ?C?ISTOPTR
      01000781H   CODE     ---       ?C?LMUL
      0100089EH   CODE     ---       ?C?LNEG
LX51 LINKER/LOCATER V4.66.97.0                                                        07/05/2021  21:57:21  PAGE 13


      010008FAH   CODE     ---       ?C?LSHL
      01000919H   CODE     ---       ?C?LSTKXDATA
      0100090DH   CODE     ---       ?C?LSTXDATA
      0100094AH   CODE     ---       ?C?OFFXADD
      01000A47H   CODE     ---       ?C?PLDCODE
      01000A11H   CODE     ---       ?C?PLDIDATA
      01000956H   CODE     ---       ?C?PLDIIDATA
      01000A35H   CODE     ---       ?C?PLDPDATA
      01000966H   CODE     ---       ?C?PLDPTR
      01000A23H   CODE     ---       ?C?PLDXDATA
      01000A1AH   CODE     ---       ?C?PSTIDATA
      01000A3EH   CODE     ---       ?C?PSTPDATA
      01000986H   CODE     ---       ?C?PSTPTR
      01000A2CH   CODE     ---       ?C?PSTXDATA
      010008ACH   CODE     ---       ?C?SLCMP
      01003148H   CODE     ---       ?C?SLDIV
      010008E6H   CODE     ---       ?C?SLSHR
      010006C7H   CODE     ---       ?C?UIDIV
      010008C2H   CODE     ---       ?C?ULCMP
      0100080CH   CODE     ---       ?C?ULDIV
      010008D3H   CODE     ---       ?C?ULSHR
      00000000H   NUMBER   ---       ?C?XDATASEG
      010029C6H   CODE     ---       ?C_START
      01000000H   CODE     ---       ?C_STARTUP
      00000020H.0 BIT      BIT       ?scanKey?BIT
*DEL*:00000000H.0 BIT      BIT       ?scanMatricKey?BIT
      00000020H.0 BIT      BIT       ?send_respons?BIT
      020003D5H   XDATA    ---       __mem_avail__
      01002A0BH   CODE     ---       _addClock
      01000026H   CODE     ---       _Byte_Program
      01003615H   CODE     ---       _Byte_Read
      010016DBH   CODE     ---       _changeToNowTime
      0100205DH   CODE     ---       _conversion
      0100349EH   CODE     ---       _delay
      0100359AH   CODE     ---       _delay1
      010033E2H   CODE     ---       _delay1ms
      01003654H   CODE     ---       _Delay2
*DEL*:00000000H   CODE     ---       _delays
      01002A96H   CODE     ---       _deleteClock
      010035B5H   CODE     ---       _ES2
      01002275H   CODE     ---       _free
      0100000EH   CODE     ---       _GetADCResult
      01003250H   CODE     ---       _getBit
      0100328EH   CODE     ---       _init_mempool
      01003476H   CODE     ---       _isRun
      01003710H   CODE     ---       _light_write
      01002698H   CODE     ---       _malloc
      01001B9AH   CODE     ---       _num_to_Str
      01001F3AH   CODE     ---       _parseClass
      0100310CH   CODE     ---       _press_Multiple_read
      01000AB5H   CODE     ---       _PRINTF
      01003547H   CODE     ---       _PUTCHAR
      01002CA3H   CODE     ---       _read_time
      010035D5H   CODE     ---       _S2RI
      010035F5H   CODE     ---       _S2TI
      0100366FH   CODE     ---       _Sector_Erase
      01002D1EH   CODE     ---       _sendToDoor
      01002D92H   CODE     ---       _sendToLight
      01002E70H   CODE     ---       _sendToServe
*DEL*:00000000H   CODE     ---       _setBit
      010036A1H   CODE     ---       _setTime
      0100216AH   CODE     ---       _Show_onebit
      01002F6FH   CODE     ---       _Show_oneclock
      01000AAFH   CODE     ---       _SPRINTF
      010028F2H   CODE     ---       _strInclude
LX51 LINKER/LOCATER V4.66.97.0                                                        07/05/2021  21:57:21  PAGE 14


*DEL*:00000000H   CODE     ---       _timeToNum
      0100302EH   CODE     ---       _uart2AddChar
      0100340EH   CODE     ---       _uart2AddCharLen
      010037C3H   CODE     ---       _uart2SendChar
      010032CAH   CODE     ---       _uartSend
*DEL*:00000000H   CODE     ---       _uartSend_number
      010034F4H   CODE     ---       _write_byte
      01002C26H   CODE     ---       _write_time
*SFR* 000000D0H.6 DATA     BIT       AC
      020003B2H   XDATA    INT       ac1
      020003B4H   XDATA    INT       ac2
      020003B6H   XDATA    INT       ac3
      020003B8H   XDATA    WORD      ac4
      020003BAH   XDATA    WORD      ac5
      020003BCH   XDATA    WORD      ac6
*SFR* 000000E0H   DATA     BYTE      ACC
      00000021H.6 BIT      BIT       AD_flag
*SFR* 000000BCH   DATA     BYTE      ADC_CONTR
*SFR* 000000BEH   DATA     BYTE      ADC_LOW2
*SFR* 000000BDH   DATA     BYTE      ADC_RES
*SFR* 000000BEH   DATA     BYTE      ADC_RESL
      0000006CH   DATA     WORD      address1
      0000006EH   DATA     WORD      address2
*SFR* 0000008EH   DATA     BYTE      AUXR
*SFR* 000000A2H   DATA     BYTE      AUXR1
*SFR* 000000F0H   DATA     BYTE      B
      02000377H   XDATA    INT       b1
      02000379H   XDATA    INT       b2
      0200037CH   XDATA    BYTE      bai
      0000006AH   DATA     CHAR      bflag
      0100356EH   CODE     ---       bmp085ReadPressure
      01003635H   CODE     ---       bmp085ReadTemp
*SFR* 0000009CH   DATA     BYTE      BRT
*SFR* 000000A1H   DATA     BYTE      BUS_SPEED
      00000022H.2 BIT      BIT       Busy
*SFR* 000000C8H.1 DATA     BIT       C_T2
*SFR* 000000FAH   DATA     BYTE      CCAP0H
*SFR* 000000EAH   DATA     BYTE      CCAP0L
*SFR* 000000FBH   DATA     BYTE      CCAP1H
*SFR* 000000EBH   DATA     BYTE      CCAP1L
*SFR* 000000DAH   DATA     BYTE      CCAPM0
*SFR* 000000DBH   DATA     BYTE      CCAPM1
*SFR* 000000D8H.0 DATA     BIT       CCF0
*SFR* 000000D8H.1 DATA     BIT       CCF1
*SFR* 000000D8H   DATA     BYTE      CCON
*SFR* 000000D8H.7 DATA     BIT       CF
*SFR* 000000F9H   DATA     BYTE      CH
      010037D3H   CODE     ---       checkBusy
      01001E15H   CODE     ---       checkClock
*SFR* 000000E9H   DATA     BYTE      CL
      01003BE9H   CONST    ---       class_hour
      01003BEEH   CONST    ---       class_minute
      010037E8H   CODE     ---       class_start
*SFR* 00000097H   DATA     BYTE      CLK_DIV
      00000015H   DATA     ---       clock_head
      01003378H   CODE     ---       clock_init
      00000019H   DATA     ---       clock_last
      010037E2H   CODE     ---       clock_start
      010037CCH   CODE     ---       clock_stop
*SFR* 000000D9H   DATA     BYTE      CMOD
      020001C9H   XDATA    LONG      cnt
      01001CDDH   CODE     ---       connectService
      0000001DH   DATA     WORD      count_down_time
*SFR* 000000C8H.0 DATA     BIT       CP_RL2
*SFR* 000000D8H.6 DATA     BIT       CR
LX51 LINKER/LOCATER V4.66.97.0                                                        07/05/2021  21:57:21  PAGE 15


*SFR* 000000D0H.7 DATA     BIT       CY
      020001C7H   XDATA    BYTE      day
      01003749H   CODE     ---       delay
      010037AEH   CODE     ---       Delay10ms
      0100377DH   CODE     ---       Delay20ms
      010037D9H   CODE     ---       Delay30us
*DEL*:00000000H   CODE     ---       Delayms
      00000021H.5 BIT      BIT       dFlag
      00000021H.4 BIT      BIT       door
      0000001CH   DATA     CHAR      door_flag
*SFR* 00000083H   DATA     BYTE      DPH
*SFR* 00000082H   DATA     BYTE      DPL
*SFR* 000000A8H.7 DATA     BIT       EA
*SFR* 000000A8H.5 DATA     BIT       EADC
*SFR* 000000A8H.6 DATA     BIT       ELVD
*SFR* 000000A8H.4 DATA     BIT       ES
*SFR* 000000A8H.1 DATA     BIT       ET0
*SFR* 000000A8H.3 DATA     BIT       ET1
*SFR* 000000A8H.5 DATA     BIT       ET2
*SFR* 000000A8H.0 DATA     BIT       EX0
*SFR* 000000A8H.2 DATA     BIT       EX1
*SFR* 000000C8H.3 DATA     BIT       EXEN2
*SFR* 000000C8H.6 DATA     BIT       EXF2
*SFR* 000000D0H.5 DATA     BIT       F0
*SFR* 000000D0H.1 DATA     BIT       F1
      00000021H.3 BIT      BIT       flag
      02000388H   XDATA    BYTE      ge
      010011F1H   CODE     ---       get_pressure
      01002528H   CODE     ---       get_temperature
      01002734H   CODE     ---       getAllEnv
      010027CEH   CODE     ---       GetData
      010030BEH   CODE     ---       getLightStr
      010031CEH   CODE     ---       getPressureStr
      0100318CH   CODE     ---       getTempStr
      01003210H   CODE     ---       getWetStr
      020001C8H   XDATA    BYTE      hour
      020003D0H   XDATA    ---       hour1
      00000077H   DATA     BYTE      i2
*SFR* 000000C3H   DATA     BYTE      IAP_ADDRH
*SFR* 000000C4H   DATA     BYTE      IAP_ADDRL
*SFR* 000000C5H   DATA     BYTE      IAP_CMD
*SFR* 000000C7H   DATA     BYTE      IAP_CONTR
*SFR* 000000C2H   DATA     BYTE      IAP_DATA
      010037A2H   CODE     ---       IAP_Disable
*SFR* 000000C6H   DATA     BYTE      IAP_TRIG
*SFR* 000000A8H   DATA     BYTE      IE
*SFR* 00000088H.1 DATA     BIT       IE0
*SFR* 00000088H.3 DATA     BIT       IE1
*SFR* 000000AFH   DATA     BYTE      IE2
*DEL*:00000000H   CODE     ---       init
      01003760H   CODE     ---       InitADC
*SFR* 000000B0H.2 DATA     BIT       INT0
*SFR* 000000B0H.3 DATA     BIT       INT1
*SFR* 00000090H.5 DATA     BIT       io1
*SFR* 00000090H.6 DATA     BIT       io2
*SFR* 00000090H.7 DATA     BIT       io3
*SFR* 000000B8H   DATA     BYTE      IP
*SFR* 000000B5H   DATA     BYTE      IP2
*SFR* 000000B7H   DATA     BYTE      IPH
*SFR* 000000B6H   DATA     BYTE      IPH2
*SFR* 00000088H.0 DATA     BIT       IT0
*SFR* 00000088H.2 DATA     BIT       IT1
      00000070H   DATA     CHAR      key
      00000071H   DATA     ---       keys
*SFR* 00000090H.1 DATA     BIT       led
LX51 LINKER/LOCATER V4.66.97.0                                                        07/05/2021  21:57:21  PAGE 16


*SFR* 00000090H.0 DATA     BIT       led1
*SFR* 00000090H.5 DATA     BIT       led5
*SFR* 00000090H.7 DATA     BIT       led7
*SFR* 00000080H.7 DATA     BIT       ledN
      00000021H.2 BIT      BIT       light
      01002EDEH   CODE     ---       light_read
      01003722H   CODE     ---       light_start
      010014C5H   CODE     ---       main
      02000389H   XDATA    INT       mb
      0200038BH   XDATA    INT       mc
      0200038DH   XDATA    INT       md
      020001DEH   XDATA    ---       mempool
      02000001H   XDATA    BYTE      minute
      020003CBH   XDATA    ---       minute1
      02000002H   XDATA    BYTE      month
      020001CDH   XDATA    ---       month_day
      01000003H   CODE     ---       music_init
      00000075H   DATA     ---       my_unTemp16
      00000078H   DATA     BYTE      N
      020001DAH   XDATA    LONG      nowTime
      0000006BH   DATA     CHAR      num1
*SFR* 000000D0H.2 DATA     BIT       OV
*SFR* 000000D0H.0 DATA     BIT       P
*SFR* 00000080H   DATA     BYTE      P0
*SFR* 00000080H.0 DATA     BIT       P00
*SFR* 00000080H.1 DATA     BIT       P01
*SFR* 00000080H.2 DATA     BIT       P02
*SFR* 00000080H.3 DATA     BIT       P03
*SFR* 00000080H.4 DATA     BIT       P04
*SFR* 00000080H.5 DATA     BIT       P05
*SFR* 00000080H.6 DATA     BIT       P06
*SFR* 00000080H.7 DATA     BIT       P07
*SFR* 00000094H   DATA     BYTE      P0M0
*SFR* 00000093H   DATA     BYTE      P0M1
*SFR* 00000090H   DATA     BYTE      P1
*SFR* 00000090H.0 DATA     BIT       P10
*SFR* 00000090H.1 DATA     BIT       P11
*SFR* 00000090H.2 DATA     BIT       P12
*SFR* 00000090H.3 DATA     BIT       P13
*SFR* 00000090H.4 DATA     BIT       P14
*SFR* 00000090H.5 DATA     BIT       P15
*SFR* 00000090H.6 DATA     BIT       P16
*SFR* 00000090H.7 DATA     BIT       P17
*SFR* 0000009DH   DATA     BYTE      P1ASF
*SFR* 00000092H   DATA     BYTE      P1M0
*SFR* 00000091H   DATA     BYTE      P1M1
*SFR* 000000A0H   DATA     BYTE      P2
*SFR* 000000A0H.0 DATA     BIT       P20
*SFR* 000000A0H.1 DATA     BIT       P21
*SFR* 000000A0H.2 DATA     BIT       P22
*SFR* 000000A0H.3 DATA     BIT       P23
*SFR* 000000A0H.4 DATA     BIT       P24
*SFR* 000000A0H.5 DATA     BIT       P25
*SFR* 000000A0H.6 DATA     BIT       P26
*SFR* 000000A0H.7 DATA     BIT       P27
*SFR* 00000096H   DATA     BYTE      P2M0
*SFR* 00000095H   DATA     BYTE      P2M1
*SFR* 000000B0H   DATA     BYTE      P3
*SFR* 000000B0H.0 DATA     BIT       P30
*SFR* 000000B0H.1 DATA     BIT       P31
*SFR* 000000B0H.2 DATA     BIT       P32
*SFR* 000000B0H.3 DATA     BIT       P33
*SFR* 000000B0H.4 DATA     BIT       P34
*SFR* 000000B0H.5 DATA     BIT       P35
*SFR* 000000B0H.6 DATA     BIT       P36
LX51 LINKER/LOCATER V4.66.97.0                                                        07/05/2021  21:57:21  PAGE 17


*SFR* 000000B0H.7 DATA     BIT       P37
*SFR* 000000B2H   DATA     BYTE      P3M0
*SFR* 000000B1H   DATA     BYTE      P3M1
*SFR* 000000C0H   DATA     BYTE      P4
*SFR* 000000C0H.0 DATA     BIT       P40
*SFR* 000000C0H.1 DATA     BIT       P41
*SFR* 000000C0H.2 DATA     BIT       P42
*SFR* 000000C0H.3 DATA     BIT       P43
*SFR* 000000C0H.4 DATA     BIT       P44
*SFR* 000000C0H.5 DATA     BIT       P45
*SFR* 000000C0H.6 DATA     BIT       P46
*SFR* 000000C0H.7 DATA     BIT       P47
*SFR* 000000B4H   DATA     BYTE      P4M0
*SFR* 000000B3H   DATA     BYTE      P4M1
*SFR* 000000BBH   DATA     BYTE      P4SW
*SFR* 000000C8H   DATA     BYTE      P5
*SFR* 000000C8H.0 DATA     BIT       P50
*SFR* 000000C8H.1 DATA     BIT       P51
*SFR* 000000C8H.2 DATA     BIT       P52
*SFR* 000000C8H.3 DATA     BIT       P53
*SFR* 000000CAH   DATA     BYTE      P5M0
*SFR* 000000C9H   DATA     BYTE      P5M1
*SFR* 000000B8H.5 DATA     BIT       PADC
*SFR* 000000F2H   DATA     BYTE      PCA_PWM0
*SFR* 000000F3H   DATA     BYTE      PCA_PWM1
*SFR* 00000087H   DATA     BYTE      PCON
*SFR* 000000B8H.6 DATA     BIT       PLVD
      0000001FH   DATA     BYTE      pos
*SFR* 000000B8H.7 DATA     BIT       PPCA
      01002862H   CODE     ---       press_init
      00000008H   DATA     LONG      pressure
*SFR* 000000B8H.4 DATA     BIT       PS
*SFR* 000000D0H   DATA     BYTE      PSW
*SFR* 000000B8H.1 DATA     BIT       PT0
*SFR* 000000B8H.3 DATA     BIT       PT1
*SFR* 000000B8H.5 DATA     BIT       PT2
*SFR* 000000B8H.0 DATA     BIT       PX0
*SFR* 000000B8H.2 DATA     BIT       PX1
      0200037BH   XDATA    BYTE      qian
*SFR* 00000098H.2 DATA     BIT       RB8
*SFR* 000000CBH   DATA     BYTE      RCAP2H
*SFR* 000000CAH   DATA     BYTE      RCAP2L
*SFR* 000000C8H.5 DATA     BIT       RCLK
*SFR* 000000B0H.7 DATA     BIT       RD
      0100351EH   CODE     ---       read_byte
      010037B9H   CODE     ---       rec_respons
      02000312H   XDATA    ---       receive
*SFR* 00000098H.4 DATA     BIT       REN
      0200037FH   XDATA    ---       res
*SFR* 00000098H.0 DATA     BIT       RI
*SFR* 000000D0H.3 DATA     BIT       RS0
*SFR* 000000D0H.4 DATA     BIT       RS1
*SFR* 000000B0H.0 DATA     BIT       RXD
*SFR* 0000009BH   DATA     BYTE      S2BUF
*SFR* 0000009AH   DATA     BYTE      S2CON
*SFR* 000000A9H   DATA     BYTE      SADDR
*SFR* 000000B9H   DATA     BYTE      SADEN
*SFR* 00000099H   DATA     BYTE      SBUF
      01002E00H   CODE     ---       scanKey
*DEL*:00000000H   CODE     ---       scanMatricKey
*SFR* 000000A0H.1 DATA     BIT       scl
*SFR* 00000098H   DATA     BYTE      SCON
      00000018H   DATA     CHAR      screen_state
*SFR* 000000A0H.0 DATA     BIT       sda
      02000000H   XDATA    BYTE      second
LX51 LINKER/LOCATER V4.66.97.0                                                        07/05/2021  21:57:21  PAGE 18


      020003C1H   XDATA    ---       second1
      00000021H.1 BIT      BIT       secure
      0100376FH   CODE     ---       send_respons
      00000022H.0 BIT      BIT       sensor_flag
      00000022H.1 BIT      BIT       sensor_send_flag
      01002BA5H   CODE     ---       ser
      01000EC2H   CODE     ---       setclock
      0200037DH   XDATA    BYTE      shi
      02000376H   XDATA    BYTE      shiwan
*DEL*:00000000H   CODE     ---       showClock
*DEL*:00000000H   CODE     ---       ShowClocks
      010036B8H   CODE     ---       showDoorState
      01002FE5H   CODE     ---       showLight
      010036CEH   CODE     ---       showLightState
      01003340H   CODE     ---       showPress
      010036E4H   CODE     ---       showSecure
      01003076H   CODE     ---       showTemperature
      01002462H   CODE     ---       showTime
      0100343EH   CODE     ---       showWet
*SFR* 00000098H.7 DATA     BIT       SM0
*SFR* 00000098H.6 DATA     BIT       SM1
*SFR* 00000098H.5 DATA     BIT       SM2
*SFR* 00000081H   DATA     BYTE      SP
*SFR* 000000CEH   DATA     BYTE      SPCTL
*SFR* 000000CFH   DATA     BYTE      SPDAT
*SFR* 000000CDH   DATA     BYTE      SPSTAT
      01003751H   CODE     ---       start
      01003796H   CODE     ---       stop
      020002A6H   XDATA    ---       strRes
*SFR* 000000B0H.4 DATA     BIT       T0
      010018AFH   CODE     ---       T0_time
*SFR* 000000B0H.5 DATA     BIT       T1
*SFR* 00000090H.0 DATA     BIT       T2
*SFR* 000000C8H   DATA     BYTE      T2CON
*SFR* 00000090H.1 DATA     BIT       T2EX
*SFR* 00000098H.3 DATA     BIT       TB8
*SFR* 000000C8H.4 DATA     BIT       TCLK
*SFR* 00000088H   DATA     BYTE      TCON
      00000010H   DATA     FLOAT     temp
      0200038FH   XDATA    ---       temp1
      0000000CH   DATA     LONG      temperature
*SFR* 00000088H.5 DATA     BIT       TF0
*SFR* 00000088H.7 DATA     BIT       TF1
*SFR* 000000C8H.7 DATA     BIT       TF2
*SFR* 0000008CH   DATA     BYTE      TH0
*SFR* 0000008DH   DATA     BYTE      TH1
*SFR* 000000CDH   DATA     BYTE      TH2
*SFR* 00000098H.1 DATA     BIT       TI
      010025EAH   CODE     ---       time0_init
      01003305H   CODE     ---       time_update
      00000021H.7 BIT      BIT       time_update_flag
      02000005H   XDATA    ---       timetable
*SFR* 0000008AH   DATA     BYTE      TL0
*SFR* 0000008BH   DATA     BYTE      TL1
*SFR* 000000CCH   DATA     BYTE      TL2
*SFR* 00000089H   DATA     BYTE      TMOD
*SFR* 00000088H.4 DATA     BIT       TR0
*SFR* 00000088H.6 DATA     BIT       TR1
*SFR* 000000C8H.2 DATA     BIT       TR2
*DEL*:00000000H   CODE     ---       transfer
*SFR* 00000080H.7 DATA     BIT       tt
*SFR* 000000B0H.1 DATA     BIT       TXD
      01002F99H   CODE     ---       uart2_isr
      010037DEH   CODE     ---       uart2Clear
      01003689H   CODE     ---       uart2Init
LX51 LINKER/LOCATER V4.66.97.0                                                        07/05/2021  21:57:21  PAGE 19


      010033ADH   CODE     ---       uart2Send
      020002AEH   XDATA    ---       uart2SendData
      0100378AH   CODE     ---       uart2SendEnd
      01001A31H   CODE     ---       uartEvent
      010036FAH   CODE     ---       uartInit
      00000022H.4 BIT      BIT       uiflag
      010034CAH   CODE     ---       updataSensor
      01002B1FH   CODE     ---       updateclock
      01003733H   CODE     ---       waitUart
*SFR* 0000008FH   DATA     BYTE      WAKE_CLKO
      0200037EH   XDATA    BYTE      wan
      010037E5H   CODE     ---       warm_start
*SFR* 000000C1H   DATA     BYTE      WDT_CONTR
      020001D9H   XDATA    BYTE      weekDay
      01003BB8H   CONST    ---       weekDays
*SFR* 000000A0H.2 DATA     BIT       wet
      00000014H   DATA     BYTE      wet_data
*SFR* 000000B0H.6 DATA     BIT       WR
      020003BEH   XDATA    ---       xaxis
      020003C6H   XDATA    ---       yaxis
      02000003H   XDATA    WORD      year



SYMBOL TABLE OF MODULE:  .\Objects\123 (MAIN)

      VALUE       REP       CLASS    TYPE      SYMBOL NAME
      ====================================================
      ---         MODULE    ---      ---       MAIN
      02000312H   PUBLIC    XDATA    ---       receive
      00000021H.5 PUBLIC    BIT      BIT       dFlag
      0000001FH   PUBLIC    DATA     BYTE      pos
      00000021H.4 PUBLIC    BIT      BIT       door
      00000021H.3 PUBLIC    BIT      BIT       flag
      00000021H.2 PUBLIC    BIT      BIT       light
      00000021H.1 PUBLIC    BIT      BIT       secure
      010014C5H   PUBLIC    CODE     ---       main
      010034CAH   PUBLIC    CODE     ---       updataSensor
      01002F99H   PUBLIC    CODE     ---       uart2_isr
      01001CDDH   PUBLIC    CODE     ---       connectService
      01001A31H   PUBLIC    CODE     ---       uartEvent
      01002E70H   PUBLIC    CODE     ---       _sendToServe
      01002D92H   PUBLIC    CODE     ---       _sendToLight
      01002D1EH   PUBLIC    CODE     ---       _sendToDoor
      01003733H   PUBLIC    CODE     ---       waitUart
      01002BA5H   PUBLIC    CODE     ---       ser
      010036E4H   PUBLIC    CODE     ---       showSecure
      010036CEH   PUBLIC    CODE     ---       showLightState
      010036B8H   PUBLIC    CODE     ---       showDoorState
      010033E2H   PUBLIC    CODE     ---       _delay1ms
      00000092H   SFRSYM    DATA     BYTE      P1M0
      00000093H   SFRSYM    DATA     BYTE      P0M1
      00000096H   SFRSYM    DATA     BYTE      P2M0
      00000091H   SFRSYM    DATA     BYTE      P1M1
      00000080H   SFRSYM    DATA     BYTE      P0
      000000B2H   SFRSYM    DATA     BYTE      P3M0
      00000095H   SFRSYM    DATA     BYTE      P2M1
      00000090H   SFRSYM    DATA     BYTE      P1
      000000B4H   SFRSYM    DATA     BYTE      P4M0
      000000B1H   SFRSYM    DATA     BYTE      P3M1
      000000A0H   SFRSYM    DATA     BYTE      P2
      000000CAH   SFRSYM    DATA     BYTE      P5M0
      000000B3H   SFRSYM    DATA     BYTE      P4M1
      000000B0H   SFRSYM    DATA     BYTE      P3
      000000C9H   SFRSYM    DATA     BYTE      P5M1
LX51 LINKER/LOCATER V4.66.97.0                                                        07/05/2021  21:57:21  PAGE 20


      000000C0H   SFRSYM    DATA     BYTE      P4
      000000D0H.6 SFRSYM    DATA     BIT       AC
      00000080H.7 SFRSYM    DATA     BIT       ledN
      000000C8H   SFRSYM    DATA     BYTE      P5
      000000A8H.7 SFRSYM    DATA     BIT       EA
      000000CEH   SFRSYM    DATA     BYTE      SPCTL
      000000D8H.7 SFRSYM    DATA     BIT       CF
      000000F9H   SFRSYM    DATA     BYTE      CH
      000000A8H.5 SFRSYM    DATA     BIT       EADC
      000000A8H   SFRSYM    DATA     BYTE      IE
      000000E9H   SFRSYM    DATA     BYTE      CL
      000000C5H   SFRSYM    DATA     BYTE      IAP_CMD
      000000FAH   SFRSYM    DATA     BYTE      CCAP0H
      000000FBH   SFRSYM    DATA     BYTE      CCAP1H
      000000BDH   SFRSYM    DATA     BYTE      ADC_RES
      000000B6H   SFRSYM    DATA     BYTE      IPH2
      000000EAH   SFRSYM    DATA     BYTE      CCAP0L
      000000D8H.6 SFRSYM    DATA     BIT       CR
      000000EBH   SFRSYM    DATA     BYTE      CCAP1L
      000000DAH   SFRSYM    DATA     BYTE      CCAPM0
      000000DBH   SFRSYM    DATA     BYTE      CCAPM1
      000000A8H.4 SFRSYM    DATA     BIT       ES
      000000B8H.5 SFRSYM    DATA     BIT       PADC
      000000B8H   SFRSYM    DATA     BYTE      IP
      00000098H.0 SFRSYM    DATA     BIT       RI
      000000D0H.7 SFRSYM    DATA     BIT       CY
      00000098H.1 SFRSYM    DATA     BIT       TI
      00000097H   SFRSYM    DATA     BYTE      CLK_DIV
      000000C3H   SFRSYM    DATA     BYTE      IAP_ADDRH
      000000B8H.4 SFRSYM    DATA     BIT       PS
      00000081H   SFRSYM    DATA     BYTE      SP
      000000C4H   SFRSYM    DATA     BYTE      IAP_ADDRL
      000000D9H   SFRSYM    DATA     BYTE      CMOD
      000000D8H   SFRSYM    DATA     BYTE      CCON
      000000B8H.7 SFRSYM    DATA     BIT       PPCA
      000000D0H.2 SFRSYM    DATA     BIT       OV
      000000A8H.6 SFRSYM    DATA     BIT       ELVD
      000000BBH   SFRSYM    DATA     BYTE      P4SW
      00000080H.0 SFRSYM    DATA     BIT       P00
      000000BCH   SFRSYM    DATA     BYTE      ADC_CONTR
      00000099H   SFRSYM    DATA     BYTE      SBUF
      00000090H.0 SFRSYM    DATA     BIT       P10
      00000080H.1 SFRSYM    DATA     BIT       P01
      00000087H   SFRSYM    DATA     BYTE      PCON
      000000A0H.0 SFRSYM    DATA     BIT       P20
      00000090H.1 SFRSYM    DATA     BIT       P11
      00000080H.2 SFRSYM    DATA     BIT       P02
      000000B0H.0 SFRSYM    DATA     BIT       P30
      000000A0H.1 SFRSYM    DATA     BIT       P21
      00000090H.2 SFRSYM    DATA     BIT       P12
      00000080H.3 SFRSYM    DATA     BIT       P03
      00000098H   SFRSYM    DATA     BYTE      SCON
      000000C0H.0 SFRSYM    DATA     BIT       P40
      000000B0H.1 SFRSYM    DATA     BIT       P31
      000000A0H.2 SFRSYM    DATA     BIT       P22
      00000090H.3 SFRSYM    DATA     BIT       P13
      00000080H.4 SFRSYM    DATA     BIT       P04
      0000008FH   SFRSYM    DATA     BYTE      WAKE_CLKO
      00000089H   SFRSYM    DATA     BYTE      TMOD
      00000088H   SFRSYM    DATA     BYTE      TCON
      000000C8H.0 SFRSYM    DATA     BIT       P50
      000000C0H.1 SFRSYM    DATA     BIT       P41
      000000B0H.2 SFRSYM    DATA     BIT       P32
      000000A0H.3 SFRSYM    DATA     BIT       P23
      00000090H.4 SFRSYM    DATA     BIT       P14
LX51 LINKER/LOCATER V4.66.97.0                                                        07/05/2021  21:57:21  PAGE 21


      00000080H.5 SFRSYM    DATA     BIT       P05
      00000090H.1 SFRSYM    DATA     BIT       led
      000000C8H.1 SFRSYM    DATA     BIT       P51
      000000C0H.2 SFRSYM    DATA     BIT       P42
      000000B0H.3 SFRSYM    DATA     BIT       P33
      000000A0H.4 SFRSYM    DATA     BIT       P24
      00000090H.5 SFRSYM    DATA     BIT       P15
      00000080H.6 SFRSYM    DATA     BIT       P06
      000000C8H.2 SFRSYM    DATA     BIT       P52
      000000C0H.3 SFRSYM    DATA     BIT       P43
      000000B0H.4 SFRSYM    DATA     BIT       P34
      000000A0H.5 SFRSYM    DATA     BIT       P25
      00000090H.6 SFRSYM    DATA     BIT       P16
      00000080H.7 SFRSYM    DATA     BIT       P07
      000000B8H.6 SFRSYM    DATA     BIT       PLVD
      000000C8H.3 SFRSYM    DATA     BIT       P53
      000000C0H.4 SFRSYM    DATA     BIT       P44
      000000B0H.5 SFRSYM    DATA     BIT       P35
      000000A0H.6 SFRSYM    DATA     BIT       P26
      00000090H.7 SFRSYM    DATA     BIT       P17
      000000C0H.5 SFRSYM    DATA     BIT       P45
      000000B0H.6 SFRSYM    DATA     BIT       P36
      000000A0H.7 SFRSYM    DATA     BIT       P27
      000000C0H.6 SFRSYM    DATA     BIT       P46
      000000B0H.7 SFRSYM    DATA     BIT       P37
      000000C0H.7 SFRSYM    DATA     BIT       P47
      00000088H.1 SFRSYM    DATA     BIT       IE0
      000000A1H   SFRSYM    DATA     BYTE      BUS_SPEED
      00000088H.3 SFRSYM    DATA     BIT       IE1
      000000AFH   SFRSYM    DATA     BYTE      IE2
      0000008EH   SFRSYM    DATA     BYTE      AUXR
      000000F0H   SFRSYM    DATA     BYTE      B
      000000C7H   SFRSYM    DATA     BYTE      IAP_CONTR
      000000E0H   SFRSYM    DATA     BYTE      ACC
      000000A8H.1 SFRSYM    DATA     BIT       ET0
      00000088H.5 SFRSYM    DATA     BIT       TF0
      000000A8H.3 SFRSYM    DATA     BIT       ET1
      00000088H.7 SFRSYM    DATA     BIT       TF1
      000000B5H   SFRSYM    DATA     BYTE      IP2
      00000098H.2 SFRSYM    DATA     BIT       RB8
      0000008CH   SFRSYM    DATA     BYTE      TH0
      0000008DH   SFRSYM    DATA     BYTE      TH1
      00000088H.0 SFRSYM    DATA     BIT       IT0
      000000A8H.0 SFRSYM    DATA     BIT       EX0
      00000098H.3 SFRSYM    DATA     BIT       TB8
      00000088H.2 SFRSYM    DATA     BIT       IT1
      000000A8H.2 SFRSYM    DATA     BIT       EX1
      000000D0H.0 SFRSYM    DATA     BIT       P
      00000098H.7 SFRSYM    DATA     BIT       SM0
      0000008AH   SFRSYM    DATA     BYTE      TL0
      00000098H.6 SFRSYM    DATA     BIT       SM1
      0000008BH   SFRSYM    DATA     BYTE      TL1
      00000098H.5 SFRSYM    DATA     BIT       SM2
      000000B8H.1 SFRSYM    DATA     BIT       PT0
      000000B8H.3 SFRSYM    DATA     BIT       PT1
      000000D0H.3 SFRSYM    DATA     BIT       RS0
      000000C2H   SFRSYM    DATA     BYTE      IAP_DATA
      00000088H.4 SFRSYM    DATA     BIT       TR0
      000000D0H.4 SFRSYM    DATA     BIT       RS1
      00000088H.6 SFRSYM    DATA     BIT       TR1
      000000C1H   SFRSYM    DATA     BYTE      WDT_CONTR
      000000B8H.0 SFRSYM    DATA     BIT       PX0
      000000B8H.2 SFRSYM    DATA     BIT       PX1
      000000F2H   SFRSYM    DATA     BYTE      PCA_PWM0
      000000F3H   SFRSYM    DATA     BYTE      PCA_PWM1
LX51 LINKER/LOCATER V4.66.97.0                                                        07/05/2021  21:57:21  PAGE 22


      0000009DH   SFRSYM    DATA     BYTE      P1ASF
      00000083H   SFRSYM    DATA     BYTE      DPH
      000000BEH   SFRSYM    DATA     BYTE      ADC_RESL
      00000082H   SFRSYM    DATA     BYTE      DPL
      000000CDH   SFRSYM    DATA     BYTE      SPSTAT
      000000B7H   SFRSYM    DATA     BYTE      IPH
      0000009BH   SFRSYM    DATA     BYTE      S2BUF
      00000098H.4 SFRSYM    DATA     BIT       REN
      0000009AH   SFRSYM    DATA     BYTE      S2CON
      0000009CH   SFRSYM    DATA     BYTE      BRT
      00000090H.5 SFRSYM    DATA     BIT       led5
      000000B9H   SFRSYM    DATA     BYTE      SADEN
      00000090H.7 SFRSYM    DATA     BIT       led7
      000000A9H   SFRSYM    DATA     BYTE      SADDR
      000000C6H   SFRSYM    DATA     BYTE      IAP_TRIG
      000000A2H   SFRSYM    DATA     BYTE      AUXR1
      000000D0H.5 SFRSYM    DATA     BIT       F0
      000000D0H.1 SFRSYM    DATA     BIT       F1
      000000D0H   SFRSYM    DATA     BYTE      PSW
      000000D8H.0 SFRSYM    DATA     BIT       CCF0
      000000CFH   SFRSYM    DATA     BYTE      SPDAT
      000000D8H.1 SFRSYM    DATA     BIT       CCF1
      00000094H   SFRSYM    DATA     BYTE      P0M0
      01003A3EH   SYMBOL    CONST    ---       _?ix1000
      01003A5CH   SYMBOL    CONST    ---       _?ix1001
      01003A7AH   SYMBOL    CONST    ---       _?ix1002

      010033DEH   BLOCK     CODE     VOID      LVL=0
      ---         BLOCKEND  ---      ---       LVL=0

      010033E2H   BLOCK     CODE     ---       LVL=0
      00000006H   SYMBOL    DATA     WORD      t
      00000002H   SYMBOL    DATA     WORD      i
      00000082H   SYMBOL    DATA     WORD      j
      00000004H   SYMBOL    DATA     WORD      k
      010033E2H   BLOCK     CODE     NEAR LAB  LVL=1
      00000002H   SYMBOL    DATA     WORD      i
      00000082H   SYMBOL    DATA     WORD      j
      00000004H   SYMBOL    DATA     WORD      k
      ---         BLOCKEND  ---      ---       LVL=1
      010033E2H   LINE      CODE     ---       #26
      010033E2H   LINE      CODE     ---       #27
      010033E2H   LINE      CODE     ---       #29
      010033ECH   LINE      CODE     ---       #30
      010033EFH   LINE      CODE     ---       #31
      0100340DH   LINE      CODE     ---       #32
      ---         BLOCKEND  ---      ---       LVL=0

      010036B8H   BLOCK     CODE     ---       LVL=0
      010036B8H   LINE      CODE     ---       #36
      010036B8H   LINE      CODE     ---       #37
      010036B8H   LINE      CODE     ---       #38
      010036BBH   LINE      CODE     ---       #39
      010036C0H   LINE      CODE     ---       #40
      010036C6H   LINE      CODE     ---       #42
      010036CDH   LINE      CODE     ---       #43
      ---         BLOCKEND  ---      ---       LVL=0

      010036CEH   BLOCK     CODE     ---       LVL=0
      010036CEH   LINE      CODE     ---       #47
      010036CEH   LINE      CODE     ---       #48
      010036CEH   LINE      CODE     ---       #49
      010036D1H   LINE      CODE     ---       #50
      010036D6H   LINE      CODE     ---       #51
      010036DCH   LINE      CODE     ---       #53
LX51 LINKER/LOCATER V4.66.97.0                                                        07/05/2021  21:57:21  PAGE 23


      010036E3H   LINE      CODE     ---       #54
      ---         BLOCKEND  ---      ---       LVL=0

      010036E4H   BLOCK     CODE     ---       LVL=0
      010036E4H   LINE      CODE     ---       #58
      010036E4H   LINE      CODE     ---       #59
      010036E4H   LINE      CODE     ---       #60
      010036E7H   LINE      CODE     ---       #61
      010036ECH   LINE      CODE     ---       #62
      010036F2H   LINE      CODE     ---       #64
      010036F9H   LINE      CODE     ---       #65
      ---         BLOCKEND  ---      ---       LVL=0

      01002BA5H   BLOCK     CODE     ---       LVL=0
      01002BB8H   BLOCK     CODE     NEAR LAB  LVL=1
      00000007H   SYMBOL    DATA     BYTE      temp
      ---         BLOCKEND  ---      ---       LVL=1
      01002BA5H   LINE      CODE     ---       #69
      01002BB8H   LINE      CODE     ---       #72
      01002BBAH   LINE      CODE     ---       #73
      01002BBCH   LINE      CODE     ---       #74
      01002BBFH   LINE      CODE     ---       #76
      01002BCAH   LINE      CODE     ---       #77
      01002BCCH   LINE      CODE     ---       #78
      01002BCFH   LINE      CODE     ---       #79
      01002BCFH   LINE      CODE     ---       #80
      01002BD2H   LINE      CODE     ---       #81
      01002BD4H   LINE      CODE     ---       #82
      01002BE4H   LINE      CODE     ---       #83
      01002BE7H   LINE      CODE     ---       #84
      01002BF6H   LINE      CODE     ---       #85
      01002BFAH   LINE      CODE     ---       #87
      01002BFDH   LINE      CODE     ---       #88
      01002BFFH   LINE      CODE     ---       #89
      01002C01H   LINE      CODE     ---       #90
      01002C09H   LINE      CODE     ---       #91
      01002C0DH   LINE      CODE     ---       #92
      01002C13H   LINE      CODE     ---       #93
      01002C15H   LINE      CODE     ---       #94
      01002C15H   LINE      CODE     ---       #95
      ---         BLOCKEND  ---      ---       LVL=0

      01003733H   BLOCK     CODE     ---       LVL=0
      01003733H   LINE      CODE     ---       #99
      01003733H   LINE      CODE     ---       #100
      01003733H   LINE      CODE     ---       #101
      01003733H   LINE      CODE     ---       #102
      01003733H   LINE      CODE     ---       #103
      01003736H   LINE      CODE     ---       #104
      01003738H   LINE      CODE     ---       #105
      0100373BH   LINE      CODE     ---       #106
      ---         BLOCKEND  ---      ---       LVL=0

      01002D18H   BLOCK     CODE     VOID      LVL=0
      ---         BLOCKEND  ---      ---       LVL=0

      01002D1EH   BLOCK     CODE     ---       LVL=0
      00000026H   SYMBOL    DATA     ---       s
      00000029H   SYMBOL    DATA     INT       len
      0000002BH   SYMBOL    DATA     ---       temp
      01002D24H   BLOCK     CODE     NEAR LAB  LVL=1
      00000029H   SYMBOL    DATA     INT       len
      0000002BH   SYMBOL    DATA     ---       temp
      ---         BLOCKEND  ---      ---       LVL=1
      01002D1EH   LINE      CODE     ---       #114
LX51 LINKER/LOCATER V4.66.97.0                                                        07/05/2021  21:57:21  PAGE 24


      01002D24H   LINE      CODE     ---       #115
      01002D24H   LINE      CODE     ---       #116
      01002D29H   LINE      CODE     ---       #117
      01002D3AH   LINE      CODE     ---       #118
      01002D54H   LINE      CODE     ---       #119
      01002D5CH   LINE      CODE     ---       #120
      01002D74H   LINE      CODE     ---       #121
      01002D7DH   LINE      CODE     ---       #122
      01002D80H   LINE      CODE     ---       #123
      01002D89H   LINE      CODE     ---       #124
      ---         BLOCKEND  ---      ---       LVL=0

      01002D8CH   BLOCK     CODE     VOID      LVL=0
      ---         BLOCKEND  ---      ---       LVL=0

      01002D92H   BLOCK     CODE     ---       LVL=0
      00000026H   SYMBOL    DATA     ---       s
      00000029H   SYMBOL    DATA     INT       len
      0000002BH   SYMBOL    DATA     ---       temp
      01002D98H   BLOCK     CODE     NEAR LAB  LVL=1
      00000029H   SYMBOL    DATA     INT       len
      0000002BH   SYMBOL    DATA     ---       temp
      ---         BLOCKEND  ---      ---       LVL=1
      01002D92H   LINE      CODE     ---       #129
      01002D98H   LINE      CODE     ---       #130
      01002D98H   LINE      CODE     ---       #131
      01002D9DH   LINE      CODE     ---       #132
      01002DAEH   LINE      CODE     ---       #133
      01002DC8H   LINE      CODE     ---       #134
      01002DD0H   LINE      CODE     ---       #135
      01002DE8H   LINE      CODE     ---       #136
      01002DF1H   LINE      CODE     ---       #137
      01002DF4H   LINE      CODE     ---       #138
      01002DFDH   LINE      CODE     ---       #139
      ---         BLOCKEND  ---      ---       LVL=0

      01002E70H   BLOCK     CODE     ---       LVL=0
      0000002BH   SYMBOL    DATA     ---       s
      01002E76H   BLOCK     CODE     NEAR LAB  LVL=1
      0000002EH   SYMBOL    DATA     INT       len
      00000030H   SYMBOL    DATA     ---       temp
      ---         BLOCKEND  ---      ---       LVL=1
      01002E70H   LINE      CODE     ---       #144
      01002E76H   LINE      CODE     ---       #145
      01002E76H   LINE      CODE     ---       #146
      01002E7BH   LINE      CODE     ---       #147
      01002E8CH   LINE      CODE     ---       #149
      01002EA6H   LINE      CODE     ---       #150
      01002EAEH   LINE      CODE     ---       #151
      01002EC6H   LINE      CODE     ---       #152
      01002ECFH   LINE      CODE     ---       #153
      01002ED2H   LINE      CODE     ---       #154
      01002EDBH   LINE      CODE     ---       #155
      ---         BLOCKEND  ---      ---       LVL=0

      01001A31H   BLOCK     CODE     ---       LVL=0
      01001A31H   LINE      CODE     ---       #160
      01001A31H   LINE      CODE     ---       #161
      01001A31H   LINE      CODE     ---       #162
      01001A4EH   LINE      CODE     ---       #163
      01001A4EH   LINE      CODE     ---       #164
      01001A50H   LINE      CODE     ---       #165
      01001A52H   LINE      CODE     ---       #166
      01001A55H   LINE      CODE     ---       #167
      01001A58H   LINE      CODE     ---       #168
LX51 LINKER/LOCATER V4.66.97.0                                                        07/05/2021  21:57:21  PAGE 25


      01001A5BH   LINE      CODE     ---       #169
      01001A5EH   LINE      CODE     ---       #170
      01001A61H   LINE      CODE     ---       #171
      01001A61H   LINE      CODE     ---       #172
      01001A7EH   LINE      CODE     ---       #173
      01001A7EH   LINE      CODE     ---       #174
      01001A80H   LINE      CODE     ---       #175
      01001A89H   LINE      CODE     ---       #176
      01001A90H   LINE      CODE     ---       #177
      01001A96H   LINE      CODE     ---       #178
      01001A96H   LINE      CODE     ---       #179
      01001A99H   LINE      CODE     ---       #180
      01001A9FH   LINE      CODE     ---       #181
      01001AAEH   LINE      CODE     ---       #182
      01001AB1H   LINE      CODE     ---       #183
      01001AB1H   LINE      CODE     ---       #185
      01001AB2H   LINE      CODE     ---       #186
      01001ACFH   LINE      CODE     ---       #187
      01001ACFH   LINE      CODE     ---       #188
      01001AD1H   LINE      CODE     ---       #189
      01001AD3H   LINE      CODE     ---       #190
      01001AD6H   LINE      CODE     ---       #191
      01001AD6H   LINE      CODE     ---       #192
      01001AF3H   LINE      CODE     ---       #193
      01001AF3H   LINE      CODE     ---       #194
      01001AF5H   LINE      CODE     ---       #195
      01001AF7H   LINE      CODE     ---       #196
      01001AFAH   LINE      CODE     ---       #197
      01001AFDH   LINE      CODE     ---       #198
      01001B00H   LINE      CODE     ---       #199
      01001B06H   LINE      CODE     ---       #200
      01001B06H   LINE      CODE     ---       #201
      01001B08H   LINE      CODE     ---       #202
      01001B25H   LINE      CODE     ---       #203
      01001B25H   LINE      CODE     ---       #204
      01001B27H   LINE      CODE     ---       #205
      01001B29H   LINE      CODE     ---       #206
      01001B2CH   LINE      CODE     ---       #207
      01001B35H   LINE      CODE     ---       #208
      01001B38H   LINE      CODE     ---       #209
      01001B41H   LINE      CODE     ---       #210
      01001B48H   LINE      CODE     ---       #211
      01001B48H   LINE      CODE     ---       #212
      01001B65H   LINE      CODE     ---       #213
      01001B65H   LINE      CODE     ---       #214
      01001B6EH   LINE      CODE     ---       #215
      01001B70H   LINE      CODE     ---       #216
      01001B71H   LINE      CODE     ---       #217
      01001B8EH   LINE      CODE     ---       #218
      01001B8EH   LINE      CODE     ---       #219
      01001B97H   LINE      CODE     ---       #220
      01001B99H   LINE      CODE     ---       #221
      01001B99H   LINE      CODE     ---       #222
      ---         BLOCKEND  ---      ---       LVL=0

      01001CDDH   BLOCK     CODE     ---       LVL=0
      01001CDDH   BLOCK     CODE     NEAR LAB  LVL=1
      00000026H   SYMBOL    DATA     LONG      time
      0000002AH   SYMBOL    DATA     BYTE      i
      ---         BLOCKEND  ---      ---       LVL=1
      01001CDDH   LINE      CODE     ---       #234
      01001CDDH   LINE      CODE     ---       #235
      01001CDDH   LINE      CODE     ---       #236
      01001CE6H   LINE      CODE     ---       #237
      01001CE9H   LINE      CODE     ---       #239
LX51 LINKER/LOCATER V4.66.97.0                                                        07/05/2021  21:57:21  PAGE 26


      01001CF2H   LINE      CODE     ---       #240
      01001CF5H   LINE      CODE     ---       #241
      01001CFEH   LINE      CODE     ---       #243
      01001D01H   LINE      CODE     ---       #244
      01001D0AH   LINE      CODE     ---       #245
      01001D0DH   LINE      CODE     ---       #247
      01001D16H   LINE      CODE     ---       #248
      01001D16H   LINE      CODE     ---       #249
      01001D16H   LINE      CODE     ---       #250
      01001D19H   LINE      CODE     ---       #251
      01001D29H   LINE      CODE     ---       #252
      01001D49H   LINE      CODE     ---       #253
      01001D49H   LINE      CODE     ---       #254
      01001D5DH   LINE      CODE     ---       #255
      01001D5DH   LINE      CODE     ---       #256
      01001DA7H   LINE      CODE     ---       #257
      01001DA9H   LINE      CODE     ---       #258
      01001DABH   LINE      CODE     ---       #259
      01001DB6H   LINE      CODE     ---       #260
      01001DB9H   LINE      CODE     ---       #261
      01001DC2H   LINE      CODE     ---       #262
      01001DDDH   LINE      CODE     ---       #263
      01001DE3H   LINE      CODE     ---       #264
      01001DE3H   LINE      CODE     ---       #265
      01001DE3H   LINE      CODE     ---       #266
      01001DE5H   LINE      CODE     ---       #267
      01001DE8H   LINE      CODE     ---       #268
      01001DEBH   LINE      CODE     ---       #269
      01001DF4H   LINE      CODE     ---       #270
      01001E0FH   LINE      CODE     ---       #271
      01001E12H   LINE      CODE     ---       #272
      01001E12H   LINE      CODE     ---       #273
      ---         BLOCKEND  ---      ---       LVL=0

      01002F99H   BLOCK     CODE     ---       LVL=0
      01002F99H   LINE      CODE     ---       #278
      01002FB6H   LINE      CODE     ---       #280
      01002FBEH   LINE      CODE     ---       #281
      01002FBEH   LINE      CODE     ---       #282
      01002FC3H   LINE      CODE     ---       #283
      01002FC8H   LINE      CODE     ---       #284
      01002FCAH   LINE      CODE     ---       #287
      01002FCAH   LINE      CODE     ---       #288
      ---         BLOCKEND  ---      ---       LVL=0

      010034CAH   BLOCK     CODE     ---       LVL=0
      010034CAH   LINE      CODE     ---       #292
      010034CAH   LINE      CODE     ---       #293
      010034CAH   LINE      CODE     ---       #294
      010034D0H   LINE      CODE     ---       #295
      010034D6H   LINE      CODE     ---       #296
      010034DCH   LINE      CODE     ---       #297
      010034E2H   LINE      CODE     ---       #298
      010034E8H   LINE      CODE     ---       #299
      010034EEH   LINE      CODE     ---       #300
      ---         BLOCKEND  ---      ---       LVL=0

      010014C5H   BLOCK     CODE     ---       LVL=0
      010014C5H   BLOCK     CODE     NEAR LAB  LVL=1
      00000023H   SYMBOL    DATA     CHAR      key
      0100150CH   BLOCK     CODE     NEAR LAB  LVL=2
      00000024H   SYMBOL    DATA     BYTE      pflag
      01001542H   BLOCK     CODE     NEAR LAB  LVL=3
      00000025H   SYMBOL    DATA     BYTE      pressure
      ---         BLOCKEND  ---      ---       LVL=3
LX51 LINKER/LOCATER V4.66.97.0                                                        07/05/2021  21:57:21  PAGE 27


      ---         BLOCKEND  ---      ---       LVL=2
      ---         BLOCKEND  ---      ---       LVL=1
      010014C5H   LINE      CODE     ---       #306
      010014C5H   LINE      CODE     ---       #307
      010014C5H   LINE      CODE     ---       #308
      010014C8H   LINE      CODE     ---       #309
      010014CFH   LINE      CODE     ---       #310
      010014D2H   LINE      CODE     ---       #311
      010014D5H   LINE      CODE     ---       #312
      010014D8H   LINE      CODE     ---       #313
      010014DBH   LINE      CODE     ---       #314
      010014DEH   LINE      CODE     ---       #315
      010014E7H   LINE      CODE     ---       #316
      010014EAH   LINE      CODE     ---       #317
      010014F1H   LINE      CODE     ---       #318
      010014FAH   LINE      CODE     ---       #319
      010014FDH   LINE      CODE     ---       #320
      01001500H   LINE      CODE     ---       #321
      01001503H   LINE      CODE     ---       #322
      01001506H   LINE      CODE     ---       #323
      01001509H   LINE      CODE     ---       #325
      0100150CH   LINE      CODE     ---       #327
      0100150CH   LINE      CODE     ---       #328
      0100150CH   LINE      CODE     ---       #330
      0100151EH   LINE      CODE     ---       #331
      0100151EH   LINE      CODE     ---       #350
      01001521H   LINE      CODE     ---       #351
      01001521H   LINE      CODE     ---       #352
      01001524H   LINE      CODE     ---       #353
      01001526H   LINE      CODE     ---       #354
      01001526H   LINE      CODE     ---       #358
      01001529H   LINE      CODE     ---       #359
      01001529H   LINE      CODE     ---       #360
      0100152CH   LINE      CODE     ---       #361
      01001532H   LINE      CODE     ---       #362
      01001534H   LINE      CODE     ---       #363
      01001534H   LINE      CODE     ---       #367
      01001537H   LINE      CODE     ---       #368
      01001537H   LINE      CODE     ---       #369
      01001539H   LINE      CODE     ---       #370
      0100153FH   LINE      CODE     ---       #371
      0100153FH   LINE      CODE     ---       #375
      01001542H   LINE      CODE     ---       #376
      01001542H   LINE      CODE     ---       #378
      01001545H   LINE      CODE     ---       #379
      0100154CH   LINE      CODE     ---       #380
      01001559H   LINE      CODE     ---       #381
      01001559H   LINE      CODE     ---       #382
      0100155CH   LINE      CODE     ---       #383
      01001562H   LINE      CODE     ---       #384
      01001571H   LINE      CODE     ---       #385
      01001574H   LINE      CODE     ---       #389
      01001574H   LINE      CODE     ---       #390
      01001576H   LINE      CODE     ---       #391
      01001576H   LINE      CODE     ---       #395
      0100157DH   LINE      CODE     ---       #396
      0100158DH   LINE      CODE     ---       #397
      0100158DH   LINE      CODE     ---       #398
      01001593H   LINE      CODE     ---       #399
      01001593H   LINE      CODE     ---       #400
      01001595H   LINE      CODE     ---       #401
      01001597H   LINE      CODE     ---       #402
      0100159AH   LINE      CODE     ---       #403
      0100159DH   LINE      CODE     ---       #404
      010015A0H   LINE      CODE     ---       #405
LX51 LINKER/LOCATER V4.66.97.0                                                        07/05/2021  21:57:21  PAGE 28


      010015A3H   LINE      CODE     ---       #406
      010015A6H   LINE      CODE     ---       #407
      010015A9H   LINE      CODE     ---       #408
      010015B2H   LINE      CODE     ---       #409
      010015B2H   LINE      CODE     ---       #410
      010015B4H   LINE      CODE     ---       #411
      010015BDH   LINE      CODE     ---       #412
      010015BDH   LINE      CODE     ---       #413
      010015BFH   LINE      CODE     ---       #414
      010015C1H   LINE      CODE     ---       #415
      010015C4H   LINE      CODE     ---       #416
      010015C7H   LINE      CODE     ---       #417
      010015CAH   LINE      CODE     ---       #418
      010015CDH   LINE      CODE     ---       #419
      010015CDH   LINE      CODE     ---       #420
      010015CFH   LINE      CODE     ---       #421
      010015DCH   LINE      CODE     ---       #422
      010015DCH   LINE      CODE     ---       #423
      010015DEH   LINE      CODE     ---       #424
      010015E0H   LINE      CODE     ---       #425
      010015E3H   LINE      CODE     ---       #426
      010015ECH   LINE      CODE     ---       #427
      010015EFH   LINE      CODE     ---       #428
      010015F8H   LINE      CODE     ---       #429
      010015FBH   LINE      CODE     ---       #430
      010015FDH   LINE      CODE     ---       #431
      0100160AH   LINE      CODE     ---       #432
      0100160AH   LINE      CODE     ---       #433
      0100160CH   LINE      CODE     ---       #434
      0100160EH   LINE      CODE     ---       #435
      01001614H   LINE      CODE     ---       #436
      01001616H   LINE      CODE     ---       #437
      01001623H   LINE      CODE     ---       #438
      01001623H   LINE      CODE     ---       #439
      01001625H   LINE      CODE     ---       #440
      01001625H   LINE      CODE     ---       #441
      01001625H   LINE      CODE     ---       #442
      0100162EH   LINE      CODE     ---       #443
      0100162EH   LINE      CODE     ---       #444
      01001630H   LINE      CODE     ---       #445
      01001632H   LINE      CODE     ---       #446
      01001635H   LINE      CODE     ---       #447
      01001638H   LINE      CODE     ---       #448
      01001638H   LINE      CODE     ---       #452
      0100163EH   LINE      CODE     ---       #453
      0100163EH   LINE      CODE     ---       #454
      01001641H   LINE      CODE     ---       #463
      01001644H   LINE      CODE     ---       #464
      01001646H   LINE      CODE     ---       #465
      01001646H   LINE      CODE     ---       #466
      01001649H   LINE      CODE     ---       #467
      01001659H   LINE      CODE     ---       #468
      01001659H   LINE      CODE     ---       #469
      0100166EH   LINE      CODE     ---       #470
      0100166EH   LINE      CODE     ---       #471
      01001671H   LINE      CODE     ---       #472
      01001674H   LINE      CODE     ---       #473
      01001674H   LINE      CODE     ---       #474
      01001677H   LINE      CODE     ---       #475
      01001687H   LINE      CODE     ---       #476
      01001687H   LINE      CODE     ---       #477
      01001696H   LINE      CODE     ---       #478
      0100169FH   LINE      CODE     ---       #479
      010016A2H   LINE      CODE     ---       #480
      010016B3H   LINE      CODE     ---       #481
LX51 LINKER/LOCATER V4.66.97.0                                                        07/05/2021  21:57:21  PAGE 29


      010016B6H   LINE      CODE     ---       #486
      010016B6H   LINE      CODE     ---       #487
      010016BAH   LINE      CODE     ---       #488
      010016BAH   LINE      CODE     ---       #489
      010016BDH   LINE      CODE     ---       #490
      010016C6H   LINE      CODE     ---       #491
      010016C9H   LINE      CODE     ---       #492
      010016CCH   LINE      CODE     ---       #493
      010016CFH   LINE      CODE     ---       #494
      010016CFH   LINE      CODE     ---       #495
      010016D2H   LINE      CODE     ---       #496
      010016D5H   LINE      CODE     ---       #497
      010016D8H   LINE      CODE     ---       #498
      010016D8H   LINE      CODE     ---       #499
      ---         BLOCKEND  ---      ---       LVL=0

      ---         MODULE    ---      ---       UART
      020002AEH   PUBLIC    XDATA    ---       uart2SendData
      00000022H.2 PUBLIC    BIT      BIT       Busy
      00000077H   PUBLIC    DATA     BYTE      i2
      020002A6H   PUBLIC    XDATA    ---       strRes
      010037D3H   PUBLIC    CODE     ---       checkBusy
      0000002FH   PUBLIC    DATA     BYTE      ?_num_to_Str?BYTE
      01001B9AH   PUBLIC    CODE     ---       _num_to_Str
      0000002BH   PUBLIC    DATA     BYTE      ?_strInclude?BYTE
      010028F2H   PUBLIC    CODE     ---       _strInclude
      010032CAH   PUBLIC    CODE     ---       _uartSend
      010036FAH   PUBLIC    CODE     ---       uartInit
      010037C3H   PUBLIC    CODE     ---       _uart2SendChar
      0100378AH   PUBLIC    CODE     ---       uart2SendEnd
      010033ADH   PUBLIC    CODE     ---       uart2Send
      010037DEH   PUBLIC    CODE     ---       uart2Clear
      0100340EH   PUBLIC    CODE     ---       _uart2AddCharLen
      0100302EH   PUBLIC    CODE     ---       _uart2AddChar
      010035F5H   PUBLIC    CODE     ---       _S2TI
      010035D5H   PUBLIC    CODE     ---       _S2RI
      010035B5H   PUBLIC    CODE     ---       _ES2
      01003689H   PUBLIC    CODE     ---       uart2Init
      00000092H   SFRSYM    DATA     BYTE      P1M0
      00000093H   SFRSYM    DATA     BYTE      P0M1
      00000096H   SFRSYM    DATA     BYTE      P2M0
      00000091H   SFRSYM    DATA     BYTE      P1M1
      00000080H   SFRSYM    DATA     BYTE      P0
      000000B2H   SFRSYM    DATA     BYTE      P3M0
      00000095H   SFRSYM    DATA     BYTE      P2M1
      00000090H   SFRSYM    DATA     BYTE      P1
      000000B4H   SFRSYM    DATA     BYTE      P4M0
      000000B1H   SFRSYM    DATA     BYTE      P3M1
      000000A0H   SFRSYM    DATA     BYTE      P2
      000000CAH   SFRSYM    DATA     BYTE      P5M0
      000000B3H   SFRSYM    DATA     BYTE      P4M1
      000000B0H   SFRSYM    DATA     BYTE      P3
      000000C9H   SFRSYM    DATA     BYTE      P5M1
      000000C0H   SFRSYM    DATA     BYTE      P4
      000000D0H.6 SFRSYM    DATA     BIT       AC
      000000C8H   SFRSYM    DATA     BYTE      P5
      000000A8H.7 SFRSYM    DATA     BIT       EA
      000000CEH   SFRSYM    DATA     BYTE      SPCTL
      000000D8H.7 SFRSYM    DATA     BIT       CF
      000000F9H   SFRSYM    DATA     BYTE      CH
      000000A8H.5 SFRSYM    DATA     BIT       EADC
      000000A8H   SFRSYM    DATA     BYTE      IE
      000000E9H   SFRSYM    DATA     BYTE      CL
      000000C5H   SFRSYM    DATA     BYTE      IAP_CMD
      000000FAH   SFRSYM    DATA     BYTE      CCAP0H
LX51 LINKER/LOCATER V4.66.97.0                                                        07/05/2021  21:57:21  PAGE 30


      000000FBH   SFRSYM    DATA     BYTE      CCAP1H
      000000BDH   SFRSYM    DATA     BYTE      ADC_RES
      000000B6H   SFRSYM    DATA     BYTE      IPH2
      000000EAH   SFRSYM    DATA     BYTE      CCAP0L
      000000D8H.6 SFRSYM    DATA     BIT       CR
      000000EBH   SFRSYM    DATA     BYTE      CCAP1L
      000000DAH   SFRSYM    DATA     BYTE      CCAPM0
      000000DBH   SFRSYM    DATA     BYTE      CCAPM1
      000000A8H.4 SFRSYM    DATA     BIT       ES
      000000B8H.5 SFRSYM    DATA     BIT       PADC
      000000B8H   SFRSYM    DATA     BYTE      IP
      00000098H.0 SFRSYM    DATA     BIT       RI
      000000D0H.7 SFRSYM    DATA     BIT       CY
      00000098H.1 SFRSYM    DATA     BIT       TI
      00000097H   SFRSYM    DATA     BYTE      CLK_DIV
      000000C3H   SFRSYM    DATA     BYTE      IAP_ADDRH
      000000B8H.4 SFRSYM    DATA     BIT       PS
      00000081H   SFRSYM    DATA     BYTE      SP
      000000C4H   SFRSYM    DATA     BYTE      IAP_ADDRL
      000000D9H   SFRSYM    DATA     BYTE      CMOD
      000000D8H   SFRSYM    DATA     BYTE      CCON
      000000B8H.7 SFRSYM    DATA     BIT       PPCA
      000000D0H.2 SFRSYM    DATA     BIT       OV
      000000A8H.6 SFRSYM    DATA     BIT       ELVD
      000000BBH   SFRSYM    DATA     BYTE      P4SW
      00000080H.0 SFRSYM    DATA     BIT       P00
      000000BCH   SFRSYM    DATA     BYTE      ADC_CONTR
      00000099H   SFRSYM    DATA     BYTE      SBUF
      00000090H.0 SFRSYM    DATA     BIT       P10
      00000080H.1 SFRSYM    DATA     BIT       P01
      00000087H   SFRSYM    DATA     BYTE      PCON
      000000A0H.0 SFRSYM    DATA     BIT       P20
      00000090H.1 SFRSYM    DATA     BIT       P11
      00000080H.2 SFRSYM    DATA     BIT       P02
      000000B0H.0 SFRSYM    DATA     BIT       P30
      000000A0H.1 SFRSYM    DATA     BIT       P21
      00000090H.2 SFRSYM    DATA     BIT       P12
      00000080H.3 SFRSYM    DATA     BIT       P03
      00000098H   SFRSYM    DATA     BYTE      SCON
      000000C0H.0 SFRSYM    DATA     BIT       P40
      000000B0H.1 SFRSYM    DATA     BIT       P31
      000000A0H.2 SFRSYM    DATA     BIT       P22
      00000090H.3 SFRSYM    DATA     BIT       P13
      00000080H.4 SFRSYM    DATA     BIT       P04
      0000008FH   SFRSYM    DATA     BYTE      WAKE_CLKO
      00000089H   SFRSYM    DATA     BYTE      TMOD
      00000088H   SFRSYM    DATA     BYTE      TCON
      000000C8H.0 SFRSYM    DATA     BIT       P50
      000000C0H.1 SFRSYM    DATA     BIT       P41
      000000B0H.2 SFRSYM    DATA     BIT       P32
      000000A0H.3 SFRSYM    DATA     BIT       P23
      00000090H.4 SFRSYM    DATA     BIT       P14
      00000080H.5 SFRSYM    DATA     BIT       P05
      000000C8H.1 SFRSYM    DATA     BIT       P51
      000000C0H.2 SFRSYM    DATA     BIT       P42
      000000B0H.3 SFRSYM    DATA     BIT       P33
      000000A0H.4 SFRSYM    DATA     BIT       P24
      00000090H.5 SFRSYM    DATA     BIT       P15
      00000080H.6 SFRSYM    DATA     BIT       P06
      000000C8H.2 SFRSYM    DATA     BIT       P52
      000000C0H.3 SFRSYM    DATA     BIT       P43
      000000B0H.4 SFRSYM    DATA     BIT       P34
      000000A0H.5 SFRSYM    DATA     BIT       P25
      00000090H.6 SFRSYM    DATA     BIT       P16
      00000080H.7 SFRSYM    DATA     BIT       P07
LX51 LINKER/LOCATER V4.66.97.0                                                        07/05/2021  21:57:21  PAGE 31


      000000B8H.6 SFRSYM    DATA     BIT       PLVD
      000000C8H.3 SFRSYM    DATA     BIT       P53
      000000C0H.4 SFRSYM    DATA     BIT       P44
      000000B0H.5 SFRSYM    DATA     BIT       P35
      000000A0H.6 SFRSYM    DATA     BIT       P26
      00000090H.7 SFRSYM    DATA     BIT       P17
      000000C0H.5 SFRSYM    DATA     BIT       P45
      000000B0H.6 SFRSYM    DATA     BIT       P36
      000000A0H.7 SFRSYM    DATA     BIT       P27
      000000C0H.6 SFRSYM    DATA     BIT       P46
      000000B0H.7 SFRSYM    DATA     BIT       P37
      000000C0H.7 SFRSYM    DATA     BIT       P47
      00000088H.1 SFRSYM    DATA     BIT       IE0
      000000A1H   SFRSYM    DATA     BYTE      BUS_SPEED
      00000088H.3 SFRSYM    DATA     BIT       IE1
      000000AFH   SFRSYM    DATA     BYTE      IE2
      0000008EH   SFRSYM    DATA     BYTE      AUXR
      000000F0H   SFRSYM    DATA     BYTE      B
      000000C7H   SFRSYM    DATA     BYTE      IAP_CONTR
      000000E0H   SFRSYM    DATA     BYTE      ACC
      000000A8H.1 SFRSYM    DATA     BIT       ET0
      00000088H.5 SFRSYM    DATA     BIT       TF0
      000000A8H.3 SFRSYM    DATA     BIT       ET1
      00000088H.7 SFRSYM    DATA     BIT       TF1
      000000B5H   SFRSYM    DATA     BYTE      IP2
      00000098H.2 SFRSYM    DATA     BIT       RB8
      0000008CH   SFRSYM    DATA     BYTE      TH0
      0000008DH   SFRSYM    DATA     BYTE      TH1
      00000088H.0 SFRSYM    DATA     BIT       IT0
      000000A8H.0 SFRSYM    DATA     BIT       EX0
      00000098H.3 SFRSYM    DATA     BIT       TB8
      00000088H.2 SFRSYM    DATA     BIT       IT1
      000000A8H.2 SFRSYM    DATA     BIT       EX1
      000000D0H.0 SFRSYM    DATA     BIT       P
      00000098H.7 SFRSYM    DATA     BIT       SM0
      0000008AH   SFRSYM    DATA     BYTE      TL0
      00000098H.6 SFRSYM    DATA     BIT       SM1
      0000008BH   SFRSYM    DATA     BYTE      TL1
      00000098H.5 SFRSYM    DATA     BIT       SM2
      000000B8H.1 SFRSYM    DATA     BIT       PT0
      000000B8H.3 SFRSYM    DATA     BIT       PT1
      000000D0H.3 SFRSYM    DATA     BIT       RS0
      000000C2H   SFRSYM    DATA     BYTE      IAP_DATA
      00000088H.4 SFRSYM    DATA     BIT       TR0
      000000D0H.4 SFRSYM    DATA     BIT       RS1
      00000088H.6 SFRSYM    DATA     BIT       TR1
      000000C1H   SFRSYM    DATA     BYTE      WDT_CONTR
      000000B8H.0 SFRSYM    DATA     BIT       PX0
      000000B8H.2 SFRSYM    DATA     BIT       PX1
      000000F2H   SFRSYM    DATA     BYTE      PCA_PWM0
      000000F3H   SFRSYM    DATA     BYTE      PCA_PWM1
      0000009DH   SFRSYM    DATA     BYTE      P1ASF
      00000083H   SFRSYM    DATA     BYTE      DPH
      000000BEH   SFRSYM    DATA     BYTE      ADC_RESL
      00000082H   SFRSYM    DATA     BYTE      DPL
      000000CDH   SFRSYM    DATA     BYTE      SPSTAT
      000000B7H   SFRSYM    DATA     BYTE      IPH
      0000009BH   SFRSYM    DATA     BYTE      S2BUF
      00000098H.4 SFRSYM    DATA     BIT       REN
      0000009AH   SFRSYM    DATA     BYTE      S2CON
      0000009CH   SFRSYM    DATA     BYTE      BRT
      000000B9H   SFRSYM    DATA     BYTE      SADEN
      000000A9H   SFRSYM    DATA     BYTE      SADDR
      000000C6H   SFRSYM    DATA     BYTE      IAP_TRIG
      000000A2H   SFRSYM    DATA     BYTE      AUXR1
LX51 LINKER/LOCATER V4.66.97.0                                                        07/05/2021  21:57:21  PAGE 32


      000000D0H.5 SFRSYM    DATA     BIT       F0
      000000D0H.1 SFRSYM    DATA     BIT       F1
      000000D0H   SFRSYM    DATA     BYTE      PSW
      000000D8H.0 SFRSYM    DATA     BIT       CCF0
      000000CFH   SFRSYM    DATA     BYTE      SPDAT
      000000D8H.1 SFRSYM    DATA     BIT       CCF1
      00000094H   SFRSYM    DATA     BYTE      P0M0

      01003689H   BLOCK     CODE     ---       LVL=0
      01003689H   LINE      CODE     ---       #9
      01003689H   LINE      CODE     ---       #10
      01003689H   LINE      CODE     ---       #11
      0100368CH   LINE      CODE     ---       #12
      0100368FH   LINE      CODE     ---       #13
      01003691H   LINE      CODE     ---       #14
      01003693H   LINE      CODE     ---       #15
      01003696H   LINE      CODE     ---       #16
      01003699H   LINE      CODE     ---       #17
      0100369BH   LINE      CODE     ---       #18
      0100369DH   LINE      CODE     ---       #19
      010036A0H   LINE      CODE     ---       #20
      ---         BLOCKEND  ---      ---       LVL=0

      010035B5H   BLOCK     CODE     ---       LVL=0
      00000007H   SYMBOL    DATA     CHAR      b
      010035B5H   LINE      CODE     ---       #21
      ---         BLOCKEND  ---      ---       LVL=0

      010035D5H   BLOCK     CODE     ---       LVL=0
      00000007H   SYMBOL    DATA     CHAR      b
      010035D5H   LINE      CODE     ---       #22
      ---         BLOCKEND  ---      ---       LVL=0

      010035F5H   BLOCK     CODE     ---       LVL=0
      00000007H   SYMBOL    DATA     CHAR      b
      010035F5H   LINE      CODE     ---       #23
      ---         BLOCKEND  ---      ---       LVL=0

      0100302EH   BLOCK     CODE     ---       LVL=0
      0000002FH   SYMBOL    DATA     ---       s
      01003034H   BLOCK     CODE     NEAR LAB  LVL=1
      00000007H   SYMBOL    DATA     BYTE      i
      00000006H   SYMBOL    DATA     BYTE      len
      ---         BLOCKEND  ---      ---       LVL=1
      0100302EH   LINE      CODE     ---       #24
      01003034H   LINE      CODE     ---       #25
      01003034H   LINE      CODE     ---       #26
      01003036H   LINE      CODE     ---       #27
      01003037H   LINE      CODE     ---       #28
      0100304AH   LINE      CODE     ---       #29
      01003053H   LINE      CODE     ---       #30
      01003053H   LINE      CODE     ---       #31
      01003072H   LINE      CODE     ---       #32
      01003075H   LINE      CODE     ---       #33
      ---         BLOCKEND  ---      ---       LVL=0

      0100340EH   BLOCK     CODE     ---       LVL=0
      00000026H   SYMBOL    DATA     ---       s
      00000005H   SYMBOL    DATA     BYTE      len
      01003414H   BLOCK     CODE     NEAR LAB  LVL=1
      00000007H   SYMBOL    DATA     BYTE      i
      ---         BLOCKEND  ---      ---       LVL=1
      0100340EH   LINE      CODE     ---       #34
      01003414H   LINE      CODE     ---       #35
      01003414H   LINE      CODE     ---       #36
LX51 LINKER/LOCATER V4.66.97.0                                                        07/05/2021  21:57:21  PAGE 33


      01003416H   LINE      CODE     ---       #37
      0100341BH   LINE      CODE     ---       #38
      0100341BH   LINE      CODE     ---       #39
      0100343AH   LINE      CODE     ---       #40
      0100343DH   LINE      CODE     ---       #41
      ---         BLOCKEND  ---      ---       LVL=0

      010037DEH   BLOCK     CODE     ---       LVL=0
      010037DEH   LINE      CODE     ---       #42
      ---         BLOCKEND  ---      ---       LVL=0

      010033ADH   BLOCK     CODE     ---       LVL=0
      010033ADH   BLOCK     CODE     NEAR LAB  LVL=1
      00000006H   SYMBOL    DATA     BYTE      i
      ---         BLOCKEND  ---      ---       LVL=1
      010033ADH   LINE      CODE     ---       #44
      010033ADH   LINE      CODE     ---       #45
      010033ADH   LINE      CODE     ---       #46
      010033AFH   LINE      CODE     ---       #47
      010033B3H   LINE      CODE     ---       #48
      010033B9H   LINE      CODE     ---       #49
      010033B9H   LINE      CODE     ---       #50
      010033C6H   LINE      CODE     ---       #51
      010033CEH   LINE      CODE     ---       #52
      010033D3H   LINE      CODE     ---       #53
      010033D6H   LINE      CODE     ---       #54
      010033DBH   LINE      CODE     ---       #55
      ---         BLOCKEND  ---      ---       LVL=0

      0100378AH   BLOCK     CODE     ---       LVL=0
      0100378AH   LINE      CODE     ---       #57
      0100378AH   LINE      CODE     ---       #58
      0100378AH   LINE      CODE     ---       #59
      01003793H   LINE      CODE     ---       #60
      ---         BLOCKEND  ---      ---       LVL=0

      010037C3H   BLOCK     CODE     ---       LVL=0
      00000001H   SYMBOL    DATA     ---       s
      010037C3H   LINE      CODE     ---       #62
      010037C3H   LINE      CODE     ---       #63
      010037C3H   LINE      CODE     ---       #64
      010037C6H   LINE      CODE     ---       #65
      010037C9H   LINE      CODE     ---       #66
      ---         BLOCKEND  ---      ---       LVL=0

      010036FAH   BLOCK     CODE     ---       LVL=0
      010036FAH   LINE      CODE     ---       #68
      010036FAH   LINE      CODE     ---       #69
      010036FAH   LINE      CODE     ---       #70
      010036FDH   LINE      CODE     ---       #71
      01003700H   LINE      CODE     ---       #72
      01003703H   LINE      CODE     ---       #73
      01003705H   LINE      CODE     ---       #74
      01003707H   LINE      CODE     ---       #75
      01003709H   LINE      CODE     ---       #76
      0100370BH   LINE      CODE     ---       #77
      0100370DH   LINE      CODE     ---       #78
      0100370FH   LINE      CODE     ---       #79
      ---         BLOCKEND  ---      ---       LVL=0

      010032CAH   BLOCK     CODE     ---       LVL=0
      0000004EH   SYMBOL    DATA     ---       s
      010032D0H   BLOCK     CODE     NEAR LAB  LVL=1
      00000006H   SYMBOL    DATA     BYTE      i
      00000007H   SYMBOL    DATA     BYTE      len
LX51 LINKER/LOCATER V4.66.97.0                                                        07/05/2021  21:57:21  PAGE 34


      ---         BLOCKEND  ---      ---       LVL=1
      010032CAH   LINE      CODE     ---       #80
      010032D0H   LINE      CODE     ---       #81
      010032D0H   LINE      CODE     ---       #83
      010032D2H   LINE      CODE     ---       #84
      010032E5H   LINE      CODE     ---       #85
      010032E6H   LINE      CODE     ---       #87
      010032ECH   LINE      CODE     ---       #88
      010032ECH   LINE      CODE     ---       #89
      010032FCH   LINE      CODE     ---       #90
      010032FFH   LINE      CODE     ---       #91
      01003301H   LINE      CODE     ---       #92
      01003304H   LINE      CODE     ---       #94
      ---         BLOCKEND  ---      ---       LVL=0
      00000007H   SYMBOL    DATA     CHAR      i

      010028F2H   BLOCK     CODE     ---       LVL=0
      0000002BH   SYMBOL    DATA     ---       s1
      0000002EH   SYMBOL    DATA     ---       s2
      00000031H   SYMBOL    DATA     CHAR      len1
      00000032H   SYMBOL    DATA     CHAR      len2
      010028F8H   BLOCK     CODE     NEAR LAB  LVL=1
      00000033H   SYMBOL    DATA     BYTE      i
      00000034H   SYMBOL    DATA     BYTE      j
      ---         BLOCKEND  ---      ---       LVL=1
      010028F2H   LINE      CODE     ---       #115
      010028F8H   LINE      CODE     ---       #116
      010028F8H   LINE      CODE     ---       #117
      010028FDH   LINE      CODE     ---       #118
      0100290AH   LINE      CODE     ---       #119
      0100290CH   LINE      CODE     ---       #120
      01002931H   LINE      CODE     ---       #121
      01002931H   LINE      CODE     ---       #122
      01002948H   LINE      CODE     ---       #123
      01002948H   LINE      CODE     ---       #124
      0100296EH   LINE      CODE     ---       #125
      0100296EH   LINE      CODE     ---       #126
      01002972H   LINE      CODE     ---       #127
      01002977H   LINE      CODE     ---       #128
      01002979H   LINE      CODE     ---       #129
      0100297DH   LINE      CODE     ---       #130
      0100297EH   LINE      CODE     ---       #131
      ---         BLOCKEND  ---      ---       LVL=0

      01001B9AH   BLOCK     CODE     ---       LVL=0
      0000002FH   SYMBOL    DATA     LONG      num
      00000033H   SYMBOL    DATA     CHAR      want_bit
      01001BA2H   BLOCK     CODE     NEAR LAB  LVL=1
      00000034H   SYMBOL    DATA     BYTE      i
      00000035H   SYMBOL    DATA     LONG      t
      ---         BLOCKEND  ---      ---       LVL=1
      01001B9AH   LINE      CODE     ---       #135
      01001BA2H   LINE      CODE     ---       #136
      01001BA2H   LINE      CODE     ---       #138
      01001BACH   LINE      CODE     ---       #139
      01001BB9H   LINE      CODE     ---       #140
      01001BB9H   LINE      CODE     ---       #141
      01001BBCH   LINE      CODE     ---       #142
      01001BD5H   LINE      CODE     ---       #143
      01001BD5H   LINE      CODE     ---       #144
      01001BD7H   LINE      CODE     ---       #145
      01001BF0H   LINE      CODE     ---       #146
      01001BF2H   LINE      CODE     ---       #148
      01001BF2H   LINE      CODE     ---       #149
      01001BF2H   LINE      CODE     ---       #150
LX51 LINKER/LOCATER V4.66.97.0                                                        07/05/2021  21:57:21  PAGE 35


      01001C09H   LINE      CODE     ---       #151
      01001C26H   LINE      CODE     ---       #152
      01001C49H   LINE      CODE     ---       #153
      01001C49H   LINE      CODE     ---       #154
      01001C4CH   LINE      CODE     ---       #155
      01001C56H   LINE      CODE     ---       #156
      01001C64H   LINE      CODE     ---       #157
      01001C64H   LINE      CODE     ---       #158
      01001C8BH   LINE      CODE     ---       #159
      01001CAEH   LINE      CODE     ---       #160
      01001CC7H   LINE      CODE     ---       #161
      01001CC9H   LINE      CODE     ---       #162
      01001CD6H   LINE      CODE     ---       #163
      01001CDCH   LINE      CODE     ---       #164
      ---         BLOCKEND  ---      ---       LVL=0

      010037D3H   BLOCK     CODE     ---       LVL=0
      010037D3H   LINE      CODE     ---       #168
      010037D3H   LINE      CODE     ---       #169
      010037D3H   LINE      CODE     ---       #170
      010037D5H   LINE      CODE     ---       #171
      010037D8H   LINE      CODE     ---       #172
      ---         BLOCKEND  ---      ---       LVL=0

      ---         MODULE    ---      ---       IIC
      0100351EH   PUBLIC    CODE     ---       read_byte
      010034F4H   PUBLIC    CODE     ---       _write_byte
      00000020H.0 PUBLIC    BIT      BIT       ?send_respons?BIT
      0100376FH   PUBLIC    CODE     ---       send_respons
      010037B9H   PUBLIC    CODE     ---       rec_respons
      01003796H   PUBLIC    CODE     ---       stop
      01003751H   PUBLIC    CODE     ---       start
      01003749H   PUBLIC    CODE     ---       delay
      00000092H   SFRSYM    DATA     BYTE      P1M0
      00000093H   SFRSYM    DATA     BYTE      P0M1
      00000096H   SFRSYM    DATA     BYTE      P2M0
      00000091H   SFRSYM    DATA     BYTE      P1M1
      00000080H   SFRSYM    DATA     BYTE      P0
      000000B2H   SFRSYM    DATA     BYTE      P3M0
      00000095H   SFRSYM    DATA     BYTE      P2M1
      00000090H   SFRSYM    DATA     BYTE      P1
      000000B4H   SFRSYM    DATA     BYTE      P4M0
      000000B1H   SFRSYM    DATA     BYTE      P3M1
      000000A0H   SFRSYM    DATA     BYTE      P2
      000000CAH   SFRSYM    DATA     BYTE      P5M0
      000000B3H   SFRSYM    DATA     BYTE      P4M1
      000000B0H   SFRSYM    DATA     BYTE      P3
      000000C9H   SFRSYM    DATA     BYTE      P5M1
      000000C0H   SFRSYM    DATA     BYTE      P4
      000000D0H.6 SFRSYM    DATA     BIT       AC
      000000C8H   SFRSYM    DATA     BYTE      P5
      000000A8H.7 SFRSYM    DATA     BIT       EA
      000000CEH   SFRSYM    DATA     BYTE      SPCTL
      000000D8H.7 SFRSYM    DATA     BIT       CF
      000000F9H   SFRSYM    DATA     BYTE      CH
      000000A8H.5 SFRSYM    DATA     BIT       EADC
      000000A8H   SFRSYM    DATA     BYTE      IE
      000000E9H   SFRSYM    DATA     BYTE      CL
      000000C5H   SFRSYM    DATA     BYTE      IAP_CMD
      000000FAH   SFRSYM    DATA     BYTE      CCAP0H
      000000FBH   SFRSYM    DATA     BYTE      CCAP1H
      000000BDH   SFRSYM    DATA     BYTE      ADC_RES
      000000B6H   SFRSYM    DATA     BYTE      IPH2
      000000EAH   SFRSYM    DATA     BYTE      CCAP0L
      000000D8H.6 SFRSYM    DATA     BIT       CR
LX51 LINKER/LOCATER V4.66.97.0                                                        07/05/2021  21:57:21  PAGE 36


      000000EBH   SFRSYM    DATA     BYTE      CCAP1L
      000000DAH   SFRSYM    DATA     BYTE      CCAPM0
      000000DBH   SFRSYM    DATA     BYTE      CCAPM1
      000000A8H.4 SFRSYM    DATA     BIT       ES
      000000B8H.5 SFRSYM    DATA     BIT       PADC
      000000B8H   SFRSYM    DATA     BYTE      IP
      00000098H.0 SFRSYM    DATA     BIT       RI
      000000D0H.7 SFRSYM    DATA     BIT       CY
      00000098H.1 SFRSYM    DATA     BIT       TI
      00000097H   SFRSYM    DATA     BYTE      CLK_DIV
      000000C3H   SFRSYM    DATA     BYTE      IAP_ADDRH
      000000B8H.4 SFRSYM    DATA     BIT       PS
      00000081H   SFRSYM    DATA     BYTE      SP
      000000C4H   SFRSYM    DATA     BYTE      IAP_ADDRL
      000000D9H   SFRSYM    DATA     BYTE      CMOD
      000000D8H   SFRSYM    DATA     BYTE      CCON
      000000B8H.7 SFRSYM    DATA     BIT       PPCA
      000000D0H.2 SFRSYM    DATA     BIT       OV
      000000A8H.6 SFRSYM    DATA     BIT       ELVD
      000000BBH   SFRSYM    DATA     BYTE      P4SW
      00000080H.0 SFRSYM    DATA     BIT       P00
      000000BCH   SFRSYM    DATA     BYTE      ADC_CONTR
      00000099H   SFRSYM    DATA     BYTE      SBUF
      00000090H.0 SFRSYM    DATA     BIT       P10
      00000080H.1 SFRSYM    DATA     BIT       P01
      00000087H   SFRSYM    DATA     BYTE      PCON
      000000A0H.0 SFRSYM    DATA     BIT       P20
      00000090H.1 SFRSYM    DATA     BIT       P11
      00000080H.2 SFRSYM    DATA     BIT       P02
      000000B0H.0 SFRSYM    DATA     BIT       P30
      000000A0H.1 SFRSYM    DATA     BIT       P21
      00000090H.2 SFRSYM    DATA     BIT       P12
      00000080H.3 SFRSYM    DATA     BIT       P03
      00000098H   SFRSYM    DATA     BYTE      SCON
      000000C0H.0 SFRSYM    DATA     BIT       P40
      000000B0H.1 SFRSYM    DATA     BIT       P31
      000000A0H.2 SFRSYM    DATA     BIT       P22
      00000090H.3 SFRSYM    DATA     BIT       P13
      00000080H.4 SFRSYM    DATA     BIT       P04
      0000008FH   SFRSYM    DATA     BYTE      WAKE_CLKO
      00000089H   SFRSYM    DATA     BYTE      TMOD
      00000088H   SFRSYM    DATA     BYTE      TCON
      000000C8H.0 SFRSYM    DATA     BIT       P50
      000000C0H.1 SFRSYM    DATA     BIT       P41
      000000B0H.2 SFRSYM    DATA     BIT       P32
      000000A0H.3 SFRSYM    DATA     BIT       P23
      00000090H.4 SFRSYM    DATA     BIT       P14
      00000080H.5 SFRSYM    DATA     BIT       P05
      000000C8H.1 SFRSYM    DATA     BIT       P51
      000000C0H.2 SFRSYM    DATA     BIT       P42
      000000B0H.3 SFRSYM    DATA     BIT       P33
      000000A0H.4 SFRSYM    DATA     BIT       P24
      00000090H.5 SFRSYM    DATA     BIT       P15
      00000080H.6 SFRSYM    DATA     BIT       P06
      000000C8H.2 SFRSYM    DATA     BIT       P52
      000000C0H.3 SFRSYM    DATA     BIT       P43
      000000B0H.4 SFRSYM    DATA     BIT       P34
      000000A0H.5 SFRSYM    DATA     BIT       P25
      00000090H.6 SFRSYM    DATA     BIT       P16
      00000080H.7 SFRSYM    DATA     BIT       P07
      000000B8H.6 SFRSYM    DATA     BIT       PLVD
      000000C8H.3 SFRSYM    DATA     BIT       P53
      000000C0H.4 SFRSYM    DATA     BIT       P44
      000000B0H.5 SFRSYM    DATA     BIT       P35
      000000A0H.6 SFRSYM    DATA     BIT       P26
LX51 LINKER/LOCATER V4.66.97.0                                                        07/05/2021  21:57:21  PAGE 37


      00000090H.7 SFRSYM    DATA     BIT       P17
      000000A0H.0 SFRSYM    DATA     BIT       sda
      000000C0H.5 SFRSYM    DATA     BIT       P45
      000000B0H.6 SFRSYM    DATA     BIT       P36
      000000A0H.7 SFRSYM    DATA     BIT       P27
      000000C0H.6 SFRSYM    DATA     BIT       P46
      000000B0H.7 SFRSYM    DATA     BIT       P37
      000000C0H.7 SFRSYM    DATA     BIT       P47
      00000088H.1 SFRSYM    DATA     BIT       IE0
      000000A1H   SFRSYM    DATA     BYTE      BUS_SPEED
      00000088H.3 SFRSYM    DATA     BIT       IE1
      000000AFH   SFRSYM    DATA     BYTE      IE2
      0000008EH   SFRSYM    DATA     BYTE      AUXR
      000000F0H   SFRSYM    DATA     BYTE      B
      000000A0H.1 SFRSYM    DATA     BIT       scl
      000000C7H   SFRSYM    DATA     BYTE      IAP_CONTR
      000000E0H   SFRSYM    DATA     BYTE      ACC
      000000A8H.1 SFRSYM    DATA     BIT       ET0
      00000088H.5 SFRSYM    DATA     BIT       TF0
      000000A8H.3 SFRSYM    DATA     BIT       ET1
      00000088H.7 SFRSYM    DATA     BIT       TF1
      000000B5H   SFRSYM    DATA     BYTE      IP2
      00000098H.2 SFRSYM    DATA     BIT       RB8
      0000008CH   SFRSYM    DATA     BYTE      TH0
      0000008DH   SFRSYM    DATA     BYTE      TH1
      00000088H.0 SFRSYM    DATA     BIT       IT0
      000000A8H.0 SFRSYM    DATA     BIT       EX0
      00000098H.3 SFRSYM    DATA     BIT       TB8
      00000088H.2 SFRSYM    DATA     BIT       IT1
      000000A8H.2 SFRSYM    DATA     BIT       EX1
      000000D0H.0 SFRSYM    DATA     BIT       P
      00000098H.7 SFRSYM    DATA     BIT       SM0
      0000008AH   SFRSYM    DATA     BYTE      TL0
      00000098H.6 SFRSYM    DATA     BIT       SM1
      0000008BH   SFRSYM    DATA     BYTE      TL1
      00000098H.5 SFRSYM    DATA     BIT       SM2
      000000B8H.1 SFRSYM    DATA     BIT       PT0
      000000B8H.3 SFRSYM    DATA     BIT       PT1
      000000D0H.3 SFRSYM    DATA     BIT       RS0
      000000C2H   SFRSYM    DATA     BYTE      IAP_DATA
      00000088H.4 SFRSYM    DATA     BIT       TR0
      000000D0H.4 SFRSYM    DATA     BIT       RS1
      00000088H.6 SFRSYM    DATA     BIT       TR1
      000000C1H   SFRSYM    DATA     BYTE      WDT_CONTR
      000000B8H.0 SFRSYM    DATA     BIT       PX0
      000000B8H.2 SFRSYM    DATA     BIT       PX1
      000000F2H   SFRSYM    DATA     BYTE      PCA_PWM0
      000000F3H   SFRSYM    DATA     BYTE      PCA_PWM1
      0000009DH   SFRSYM    DATA     BYTE      P1ASF
      00000083H   SFRSYM    DATA     BYTE      DPH
      000000BEH   SFRSYM    DATA     BYTE      ADC_RESL
      00000082H   SFRSYM    DATA     BYTE      DPL
      000000CDH   SFRSYM    DATA     BYTE      SPSTAT
      000000B7H   SFRSYM    DATA     BYTE      IPH
      0000009BH   SFRSYM    DATA     BYTE      S2BUF
      00000098H.4 SFRSYM    DATA     BIT       REN
      0000009AH   SFRSYM    DATA     BYTE      S2CON
      0000009CH   SFRSYM    DATA     BYTE      BRT
      000000B9H   SFRSYM    DATA     BYTE      SADEN
      000000A9H   SFRSYM    DATA     BYTE      SADDR
      000000C6H   SFRSYM    DATA     BYTE      IAP_TRIG
      000000A2H   SFRSYM    DATA     BYTE      AUXR1
      000000D0H.5 SFRSYM    DATA     BIT       F0
      000000D0H.1 SFRSYM    DATA     BIT       F1
      000000D0H   SFRSYM    DATA     BYTE      PSW
LX51 LINKER/LOCATER V4.66.97.0                                                        07/05/2021  21:57:21  PAGE 38


      000000D8H.0 SFRSYM    DATA     BIT       CCF0
      000000CFH   SFRSYM    DATA     BYTE      SPDAT
      000000D8H.1 SFRSYM    DATA     BIT       CCF1
      00000094H   SFRSYM    DATA     BYTE      P0M0

      01003742H   BLOCK     CODE     ---       LVL=0
      ---         BLOCKEND  ---      ---       LVL=0

      01003749H   BLOCK     CODE     ---       LVL=0
      00000007H   SYMBOL    DATA     BYTE      i
      01003749H   BLOCK     CODE     NEAR LAB  LVL=1
      00000007H   SYMBOL    DATA     BYTE      i
      ---         BLOCKEND  ---      ---       LVL=1
      01003749H   LINE      CODE     ---       #7
      01003749H   LINE      CODE     ---       #8
      01003749H   LINE      CODE     ---       #10
      0100374AH   LINE      CODE     ---       #11
      0100374BH   LINE      CODE     ---       #12
      0100374CH   LINE      CODE     ---       #13
      0100374EH   LINE      CODE     ---       #14
      01003750H   LINE      CODE     ---       #15
      ---         BLOCKEND  ---      ---       LVL=0

      01003751H   BLOCK     CODE     ---       LVL=0
      01003751H   LINE      CODE     ---       #17
      01003751H   LINE      CODE     ---       #18
      01003751H   LINE      CODE     ---       #19
      01003753H   LINE      CODE     ---       #20
      01003755H   LINE      CODE     ---       #21
      01003758H   LINE      CODE     ---       #22
      0100375AH   LINE      CODE     ---       #23
      0100375DH   LINE      CODE     ---       #24
      0100375FH   LINE      CODE     ---       #25
      ---         BLOCKEND  ---      ---       LVL=0

      01003796H   BLOCK     CODE     ---       LVL=0
      01003796H   LINE      CODE     ---       #26
      01003796H   LINE      CODE     ---       #27
      01003796H   LINE      CODE     ---       #28
      01003798H   LINE      CODE     ---       #29
      0100379AH   LINE      CODE     ---       #30
      0100379DH   LINE      CODE     ---       #31
      0100379FH   LINE      CODE     ---       #32
      ---         BLOCKEND  ---      ---       LVL=0

      010037B9H   BLOCK     CODE     ---       LVL=0
      010037B9H   LINE      CODE     ---       #34
      010037B9H   LINE      CODE     ---       #35
      010037B9H   LINE      CODE     ---       #37
      010037BBH   LINE      CODE     ---       #38
      010037BEH   LINE      CODE     ---       #40
      010037C0H   LINE      CODE     ---       #41
      ---         BLOCKEND  ---      ---       LVL=0

      0100376FH   BLOCK     CODE     ---       LVL=0
      00000020H.0 SYMBOL    BIT      BIT       ack
      0100376FH   LINE      CODE     ---       #43
      0100376FH   LINE      CODE     ---       #44
      0100376FH   LINE      CODE     ---       #46
      01003773H   LINE      CODE     ---       #47
      01003775H   LINE      CODE     ---       #48
      01003778H   LINE      CODE     ---       #49
      0100377AH   LINE      CODE     ---       #50
      ---         BLOCKEND  ---      ---       LVL=0

LX51 LINKER/LOCATER V4.66.97.0                                                        07/05/2021  21:57:21  PAGE 39


      010034F4H   BLOCK     CODE     ---       LVL=0
      00000007H   SYMBOL    DATA     BYTE      date
      010034F4H   BLOCK     CODE     NEAR LAB  LVL=1
      00000005H   SYMBOL    DATA     BYTE      i
      00000006H   SYMBOL    DATA     BYTE      temp
      ---         BLOCKEND  ---      ---       LVL=1
      010034F4H   LINE      CODE     ---       #58
      010034F4H   LINE      CODE     ---       #60
      010034F6H   LINE      CODE     ---       #61
      01003502H   LINE      CODE     ---       #62
      01003506H   LINE      CODE     ---       #63
      01003508H   LINE      CODE     ---       #64
      0100350BH   LINE      CODE     ---       #65
      0100350DH   LINE      CODE     ---       #66
      01003510H   LINE      CODE     ---       #67
      01003512H   LINE      CODE     ---       #68
      01003515H   LINE      CODE     ---       #69
      01003518H   LINE      CODE     ---       #70
      01003518H   LINE      CODE     ---       #71
      01003518H   LINE      CODE     ---       #72
      01003518H   LINE      CODE     ---       #73
      0100351BH   LINE      CODE     ---       #74
      ---         BLOCKEND  ---      ---       LVL=0

      0100351EH   BLOCK     CODE     ---       LVL=0
      0100351EH   BLOCK     CODE     NEAR LAB  LVL=1
      00000005H   SYMBOL    DATA     BYTE      i
      00000006H   SYMBOL    DATA     BYTE      k
      ---         BLOCKEND  ---      ---       LVL=1
      0100351EH   LINE      CODE     ---       #76
      0100351EH   LINE      CODE     ---       #78
      0100351EH   LINE      CODE     ---       #79
      0100351EH   LINE      CODE     ---       #80
      0100351EH   LINE      CODE     ---       #81
      01003521H   LINE      CODE     ---       #82
      0100352DH   LINE      CODE     ---       #83
      0100352FH   LINE      CODE     ---       #84
      01003532H   LINE      CODE     ---       #85
      0100353CH   LINE      CODE     ---       #86
      0100353EH   LINE      CODE     ---       #87
      01003541H   LINE      CODE     ---       #88
      01003544H   LINE      CODE     ---       #89
      01003546H   LINE      CODE     ---       #90
      ---         BLOCKEND  ---      ---       LVL=0

      ---         MODULE    ---      ---       ENV
      020003BCH   PUBLIC    XDATA    WORD      ac6
      020003BAH   PUBLIC    XDATA    WORD      ac5
      020003B8H   PUBLIC    XDATA    WORD      ac4
      020003B6H   PUBLIC    XDATA    INT       ac3
      020003B4H   PUBLIC    XDATA    INT       ac2
      020003B2H   PUBLIC    XDATA    INT       ac1
      0200038FH   PUBLIC    XDATA    ---       temp1
      0200038DH   PUBLIC    XDATA    INT       md
      0200038BH   PUBLIC    XDATA    INT       mc
      02000389H   PUBLIC    XDATA    INT       mb
      00000014H   PUBLIC    DATA     BYTE      wet_data
      02000388H   PUBLIC    XDATA    BYTE      ge
      0200037FH   PUBLIC    XDATA    ---       res
      0200037EH   PUBLIC    XDATA    BYTE      wan
      0200037DH   PUBLIC    XDATA    BYTE      shi
      00000010H   PUBLIC    DATA     FLOAT     temp
      0000000CH   PUBLIC    DATA     LONG      temperature
      0200037CH   PUBLIC    XDATA    BYTE      bai
      0200037BH   PUBLIC    XDATA    BYTE      qian
LX51 LINKER/LOCATER V4.66.97.0                                                        07/05/2021  21:57:21  PAGE 40


      02000379H   PUBLIC    XDATA    INT       b2
      02000377H   PUBLIC    XDATA    INT       b1
      02000376H   PUBLIC    XDATA    BYTE      shiwan
      00000008H   PUBLIC    DATA     LONG      pressure
      01002734H   PUBLIC    CODE     ---       getAllEnv
      0100343EH   PUBLIC    CODE     ---       showWet
      01002FE5H   PUBLIC    CODE     ---       showLight
      01003340H   PUBLIC    CODE     ---       showPress
      01003076H   PUBLIC    CODE     ---       showTemperature
      01003210H   PUBLIC    CODE     ---       getWetStr
      010027CEH   PUBLIC    CODE     ---       GetData
      0100377DH   PUBLIC    CODE     ---       Delay20ms
      010037D9H   PUBLIC    CODE     ---       Delay30us
      010031CEH   PUBLIC    CODE     ---       getPressureStr
      010011F1H   PUBLIC    CODE     ---       get_pressure
      0100318CH   PUBLIC    CODE     ---       getTempStr
      01002528H   PUBLIC    CODE     ---       get_temperature
      01002862H   PUBLIC    CODE     ---       press_init
      0100356EH   PUBLIC    CODE     ---       bmp085ReadPressure
      01003635H   PUBLIC    CODE     ---       bmp085ReadTemp
      0100310CH   PUBLIC    CODE     ---       _press_Multiple_read
      010030BEH   PUBLIC    CODE     ---       getLightStr
      01002EDEH   PUBLIC    CODE     ---       light_read
      01003722H   PUBLIC    CODE     ---       light_start
      01003710H   PUBLIC    CODE     ---       _light_write
      0100205DH   PUBLIC    CODE     ---       _conversion
      0100349EH   PUBLIC    CODE     ---       _delay
      00000092H   SFRSYM    DATA     BYTE      P1M0
      00000093H   SFRSYM    DATA     BYTE      P0M1
      00000096H   SFRSYM    DATA     BYTE      P2M0
      00000091H   SFRSYM    DATA     BYTE      P1M1
      00000080H   SFRSYM    DATA     BYTE      P0
      000000B2H   SFRSYM    DATA     BYTE      P3M0
      00000095H   SFRSYM    DATA     BYTE      P2M1
      00000090H   SFRSYM    DATA     BYTE      P1
      000000B4H   SFRSYM    DATA     BYTE      P4M0
      000000B1H   SFRSYM    DATA     BYTE      P3M1
      000000A0H   SFRSYM    DATA     BYTE      P2
      000000CAH   SFRSYM    DATA     BYTE      P5M0
      000000B3H   SFRSYM    DATA     BYTE      P4M1
      000000B0H   SFRSYM    DATA     BYTE      P3
      000000C9H   SFRSYM    DATA     BYTE      P5M1
      000000C0H   SFRSYM    DATA     BYTE      P4
      000000D0H.6 SFRSYM    DATA     BIT       AC
      000000C8H   SFRSYM    DATA     BYTE      P5
      000000A8H.7 SFRSYM    DATA     BIT       EA
      000000CEH   SFRSYM    DATA     BYTE      SPCTL
      000000D8H.7 SFRSYM    DATA     BIT       CF
      000000F9H   SFRSYM    DATA     BYTE      CH
      000000A8H.5 SFRSYM    DATA     BIT       EADC
      000000A8H   SFRSYM    DATA     BYTE      IE
      000000E9H   SFRSYM    DATA     BYTE      CL
      000000C5H   SFRSYM    DATA     BYTE      IAP_CMD
      000000FAH   SFRSYM    DATA     BYTE      CCAP0H
      000000FBH   SFRSYM    DATA     BYTE      CCAP1H
      000000BDH   SFRSYM    DATA     BYTE      ADC_RES
      000000B6H   SFRSYM    DATA     BYTE      IPH2
      000000EAH   SFRSYM    DATA     BYTE      CCAP0L
      000000D8H.6 SFRSYM    DATA     BIT       CR
      000000EBH   SFRSYM    DATA     BYTE      CCAP1L
      000000DAH   SFRSYM    DATA     BYTE      CCAPM0
      000000DBH   SFRSYM    DATA     BYTE      CCAPM1
      000000A8H.4 SFRSYM    DATA     BIT       ES
      000000B8H.5 SFRSYM    DATA     BIT       PADC
      000000B8H   SFRSYM    DATA     BYTE      IP
LX51 LINKER/LOCATER V4.66.97.0                                                        07/05/2021  21:57:21  PAGE 41


      00000098H.0 SFRSYM    DATA     BIT       RI
      000000D0H.7 SFRSYM    DATA     BIT       CY
      00000098H.1 SFRSYM    DATA     BIT       TI
      00000097H   SFRSYM    DATA     BYTE      CLK_DIV
      000000C3H   SFRSYM    DATA     BYTE      IAP_ADDRH
      000000B8H.4 SFRSYM    DATA     BIT       PS
      00000081H   SFRSYM    DATA     BYTE      SP
      000000C4H   SFRSYM    DATA     BYTE      IAP_ADDRL
      000000D9H   SFRSYM    DATA     BYTE      CMOD
      000000D8H   SFRSYM    DATA     BYTE      CCON
      000000B8H.7 SFRSYM    DATA     BIT       PPCA
      000000D0H.2 SFRSYM    DATA     BIT       OV
      000000A8H.6 SFRSYM    DATA     BIT       ELVD
      000000BBH   SFRSYM    DATA     BYTE      P4SW
      00000080H.0 SFRSYM    DATA     BIT       P00
      000000BCH   SFRSYM    DATA     BYTE      ADC_CONTR
      00000099H   SFRSYM    DATA     BYTE      SBUF
      00000090H.0 SFRSYM    DATA     BIT       P10
      00000080H.1 SFRSYM    DATA     BIT       P01
      00000087H   SFRSYM    DATA     BYTE      PCON
      000000A0H.0 SFRSYM    DATA     BIT       P20
      00000090H.1 SFRSYM    DATA     BIT       P11
      00000080H.2 SFRSYM    DATA     BIT       P02
      000000B0H.0 SFRSYM    DATA     BIT       P30
      000000A0H.1 SFRSYM    DATA     BIT       P21
      00000090H.2 SFRSYM    DATA     BIT       P12
      00000080H.3 SFRSYM    DATA     BIT       P03
      00000098H   SFRSYM    DATA     BYTE      SCON
      000000C0H.0 SFRSYM    DATA     BIT       P40
      000000B0H.1 SFRSYM    DATA     BIT       P31
      000000A0H.2 SFRSYM    DATA     BIT       P22
      00000090H.3 SFRSYM    DATA     BIT       P13
      00000080H.4 SFRSYM    DATA     BIT       P04
      0000008FH   SFRSYM    DATA     BYTE      WAKE_CLKO
      00000089H   SFRSYM    DATA     BYTE      TMOD
      00000088H   SFRSYM    DATA     BYTE      TCON
      000000C8H.0 SFRSYM    DATA     BIT       P50
      000000C0H.1 SFRSYM    DATA     BIT       P41
      000000B0H.2 SFRSYM    DATA     BIT       P32
      000000A0H.3 SFRSYM    DATA     BIT       P23
      00000090H.4 SFRSYM    DATA     BIT       P14
      00000080H.5 SFRSYM    DATA     BIT       P05
      000000C8H.1 SFRSYM    DATA     BIT       P51
      000000C0H.2 SFRSYM    DATA     BIT       P42
      000000B0H.3 SFRSYM    DATA     BIT       P33
      000000A0H.4 SFRSYM    DATA     BIT       P24
      00000090H.5 SFRSYM    DATA     BIT       P15
      00000080H.6 SFRSYM    DATA     BIT       P06
      000000C8H.2 SFRSYM    DATA     BIT       P52
      000000C0H.3 SFRSYM    DATA     BIT       P43
      000000B0H.4 SFRSYM    DATA     BIT       P34
      000000A0H.5 SFRSYM    DATA     BIT       P25
      00000090H.6 SFRSYM    DATA     BIT       P16
      00000080H.7 SFRSYM    DATA     BIT       P07
      000000B8H.6 SFRSYM    DATA     BIT       PLVD
      000000C8H.3 SFRSYM    DATA     BIT       P53
      000000C0H.4 SFRSYM    DATA     BIT       P44
      000000B0H.5 SFRSYM    DATA     BIT       P35
      000000A0H.6 SFRSYM    DATA     BIT       P26
      00000090H.7 SFRSYM    DATA     BIT       P17
      000000C0H.5 SFRSYM    DATA     BIT       P45
      000000B0H.6 SFRSYM    DATA     BIT       P36
      000000A0H.7 SFRSYM    DATA     BIT       P27
      000000C0H.6 SFRSYM    DATA     BIT       P46
      000000B0H.7 SFRSYM    DATA     BIT       P37
LX51 LINKER/LOCATER V4.66.97.0                                                        07/05/2021  21:57:21  PAGE 42


      000000C0H.7 SFRSYM    DATA     BIT       P47
      00000088H.1 SFRSYM    DATA     BIT       IE0
      000000A1H   SFRSYM    DATA     BYTE      BUS_SPEED
      00000088H.3 SFRSYM    DATA     BIT       IE1
      000000AFH   SFRSYM    DATA     BYTE      IE2
      0000008EH   SFRSYM    DATA     BYTE      AUXR
      000000F0H   SFRSYM    DATA     BYTE      B
      000000C7H   SFRSYM    DATA     BYTE      IAP_CONTR
      000000E0H   SFRSYM    DATA     BYTE      ACC
      000000A8H.1 SFRSYM    DATA     BIT       ET0
      00000088H.5 SFRSYM    DATA     BIT       TF0
      000000A8H.3 SFRSYM    DATA     BIT       ET1
      00000088H.7 SFRSYM    DATA     BIT       TF1
      000000B5H   SFRSYM    DATA     BYTE      IP2
      00000098H.2 SFRSYM    DATA     BIT       RB8
      0000008CH   SFRSYM    DATA     BYTE      TH0
      0000008DH   SFRSYM    DATA     BYTE      TH1
      00000088H.0 SFRSYM    DATA     BIT       IT0
      000000A8H.0 SFRSYM    DATA     BIT       EX0
      00000098H.3 SFRSYM    DATA     BIT       TB8
      00000088H.2 SFRSYM    DATA     BIT       IT1
      000000A8H.2 SFRSYM    DATA     BIT       EX1
      000000D0H.0 SFRSYM    DATA     BIT       P
      00000098H.7 SFRSYM    DATA     BIT       SM0
      0000008AH   SFRSYM    DATA     BYTE      TL0
      000000A0H.2 SFRSYM    DATA     BIT       wet
      00000098H.6 SFRSYM    DATA     BIT       SM1
      0000008BH   SFRSYM    DATA     BYTE      TL1
      00000098H.5 SFRSYM    DATA     BIT       SM2
      000000B8H.1 SFRSYM    DATA     BIT       PT0
      000000B8H.3 SFRSYM    DATA     BIT       PT1
      000000D0H.3 SFRSYM    DATA     BIT       RS0
      000000C2H   SFRSYM    DATA     BYTE      IAP_DATA
      00000088H.4 SFRSYM    DATA     BIT       TR0
      000000D0H.4 SFRSYM    DATA     BIT       RS1
      00000088H.6 SFRSYM    DATA     BIT       TR1
      000000C1H   SFRSYM    DATA     BYTE      WDT_CONTR
      000000B8H.0 SFRSYM    DATA     BIT       PX0
      000000B8H.2 SFRSYM    DATA     BIT       PX1
      000000F2H   SFRSYM    DATA     BYTE      PCA_PWM0
      000000F3H   SFRSYM    DATA     BYTE      PCA_PWM1
      0000009DH   SFRSYM    DATA     BYTE      P1ASF
      00000083H   SFRSYM    DATA     BYTE      DPH
      000000BEH   SFRSYM    DATA     BYTE      ADC_RESL
      00000082H   SFRSYM    DATA     BYTE      DPL
      000000CDH   SFRSYM    DATA     BYTE      SPSTAT
      000000B7H   SFRSYM    DATA     BYTE      IPH
      0000009BH   SFRSYM    DATA     BYTE      S2BUF
      00000098H.4 SFRSYM    DATA     BIT       REN
      0000009AH   SFRSYM    DATA     BYTE      S2CON
      0000009CH   SFRSYM    DATA     BYTE      BRT
      000000B9H   SFRSYM    DATA     BYTE      SADEN
      000000A9H   SFRSYM    DATA     BYTE      SADDR
      000000C6H   SFRSYM    DATA     BYTE      IAP_TRIG
      000000A2H   SFRSYM    DATA     BYTE      AUXR1
      000000D0H.5 SFRSYM    DATA     BIT       F0
      000000D0H.1 SFRSYM    DATA     BIT       F1
      000000D0H   SFRSYM    DATA     BYTE      PSW
      000000D8H.0 SFRSYM    DATA     BIT       CCF0
      000000CFH   SFRSYM    DATA     BYTE      SPDAT
      000000D8H.1 SFRSYM    DATA     BIT       CCF1
      00000094H   SFRSYM    DATA     BYTE      P0M0

      0100349EH   BLOCK     CODE     ---       LVL=0
      00000006H   SYMBOL    DATA     WORD      t
LX51 LINKER/LOCATER V4.66.97.0                                                        07/05/2021  21:57:21  PAGE 43


      0100349EH   BLOCK     CODE     NEAR LAB  LVL=1
      00000002H   SYMBOL    DATA     WORD      i
      00000082H   SYMBOL    DATA     WORD      j
      00000004H   SYMBOL    DATA     WORD      k
      ---         BLOCKEND  ---      ---       LVL=1
      0100349EH   LINE      CODE     ---       #31
      0100349EH   LINE      CODE     ---       #32
      0100349EH   LINE      CODE     ---       #34
      010034A8H   LINE      CODE     ---       #35
      010034ABH   LINE      CODE     ---       #36
      010034C9H   LINE      CODE     ---       #37
      ---         BLOCKEND  ---      ---       LVL=0

      0100205DH   BLOCK     CODE     ---       LVL=0
      00000027H   SYMBOL    DATA     LONG      temp_data
      0100205DH   LINE      CODE     ---       #41
      01002065H   LINE      CODE     ---       #42
      01002065H   LINE      CODE     ---       #43
      01002077H   LINE      CODE     ---       #44
      0100209AH   LINE      CODE     ---       #45
      010020ABH   LINE      CODE     ---       #46
      010020CDH   LINE      CODE     ---       #47
      010020DEH   LINE      CODE     ---       #48
      01002100H   LINE      CODE     ---       #49
      01002110H   LINE      CODE     ---       #50
      01002131H   LINE      CODE     ---       #51
      01002141H   LINE      CODE     ---       #52
      01002162H   LINE      CODE     ---       #53
      01002169H   LINE      CODE     ---       #54
      ---         BLOCKEND  ---      ---       LVL=0

      01003710H   BLOCK     CODE     ---       LVL=0
      00000027H   SYMBOL    DATA     BYTE      regis
      01003710H   LINE      CODE     ---       #55
      01003712H   LINE      CODE     ---       #56
      01003712H   LINE      CODE     ---       #57
      01003715H   LINE      CODE     ---       #58
      0100371AH   LINE      CODE     ---       #59
      0100371FH   LINE      CODE     ---       #60
      ---         BLOCKEND  ---      ---       LVL=0

      01003722H   BLOCK     CODE     ---       LVL=0
      01003722H   LINE      CODE     ---       #62
      01003722H   LINE      CODE     ---       #63
      01003722H   LINE      CODE     ---       #64
      01003727H   LINE      CODE     ---       #65
      0100372CH   LINE      CODE     ---       #66
      ---         BLOCKEND  ---      ---       LVL=0

      01002EDEH   BLOCK     CODE     ---       LVL=0
      01002EDEH   BLOCK     CODE     NEAR LAB  LVL=1
      00000027H   SYMBOL    DATA     BYTE      i
      00000028H   SYMBOL    DATA     ---       BUF
      00000006H   SYMBOL    DATA     INT       dis_data
      ---         BLOCKEND  ---      ---       LVL=1
      01002EDEH   LINE      CODE     ---       #69
      01002EDEH   LINE      CODE     ---       #70
      01002EDEH   LINE      CODE     ---       #74
      01002EE1H   LINE      CODE     ---       #75
      01002EE6H   LINE      CODE     ---       #76
      01002EF4H   LINE      CODE     ---       #77
      01002EF4H   LINE      CODE     ---       #78
      01002EFEH   LINE      CODE     ---       #79
      01002F04H   LINE      CODE     ---       #80
      01002F04H   LINE      CODE     ---       #81
LX51 LINKER/LOCATER V4.66.97.0                                                        07/05/2021  21:57:21  PAGE 44


      01002F06H   LINE      CODE     ---       #82
      01002F08H   LINE      CODE     ---       #84
      01002F08H   LINE      CODE     ---       #85
      01002F0DH   LINE      CODE     ---       #86
      01002F0DH   LINE      CODE     ---       #87
      01002F11H   LINE      CODE     ---       #88
      01002F14H   LINE      CODE     ---       #89
      01002F1BH   LINE      CODE     ---       #90
      01002F1DH   LINE      CODE     ---       #91
      01002F28H   LINE      CODE     ---       #92
      01002F41H   LINE      CODE     ---       #93
      01002F41H   LINE      CODE     ---       #94
      ---         BLOCKEND  ---      ---       LVL=0

      010030BEH   BLOCK     CODE     ---       LVL=0
      010030BEH   LINE      CODE     ---       #95
      010030BEH   LINE      CODE     ---       #96
      010030BEH   LINE      CODE     ---       #97
      010030CCH   LINE      CODE     ---       #98
      010030D4H   LINE      CODE     ---       #99
      010030DCH   LINE      CODE     ---       #100
      010030E4H   LINE      CODE     ---       #101
      010030ECH   LINE      CODE     ---       #102
      010030F4H   LINE      CODE     ---       #103
      010030FCH   LINE      CODE     ---       #104
      01003102H   LINE      CODE     ---       #105
      ---         BLOCKEND  ---      ---       LVL=0

      01003103H   BLOCK     CODE     VOID      LVL=0
      ---         BLOCKEND  ---      ---       LVL=0

      0100310CH   BLOCK     CODE     ---       LVL=0
      0000004EH   SYMBOL    DATA     BYTE      ST_Address
      0000004FH   SYMBOL    DATA     BYTE      msb
      00000050H   SYMBOL    DATA     BYTE      lsb
      00000006H   SYMBOL    DATA     INT       _data
      0100310EH   BLOCK     CODE     NEAR LAB  LVL=1
      0000004FH   SYMBOL    DATA     BYTE      msb
      00000050H   SYMBOL    DATA     BYTE      lsb
      00000006H   SYMBOL    DATA     INT       _data
      ---         BLOCKEND  ---      ---       LVL=1
      0100310CH   LINE      CODE     ---       #112
      0100310EH   LINE      CODE     ---       #113
      0100310EH   LINE      CODE     ---       #116
      01003111H   LINE      CODE     ---       #117
      01003116H   LINE      CODE     ---       #118
      0100311BH   LINE      CODE     ---       #119
      0100311EH   LINE      CODE     ---       #120
      01003123H   LINE      CODE     ---       #122
      01003128H   LINE      CODE     ---       #123
      0100312DH   LINE      CODE     ---       #124
      01003132H   LINE      CODE     ---       #125
      01003137H   LINE      CODE     ---       #127
      0100313AH   LINE      CODE     ---       #128
      01003141H   LINE      CODE     ---       #129
      01003144H   LINE      CODE     ---       #130
      01003147H   LINE      CODE     ---       #131
      01003147H   LINE      CODE     ---       #132
      ---         BLOCKEND  ---      ---       LVL=0

      01003635H   BLOCK     CODE     ---       LVL=0
      01003635H   LINE      CODE     ---       #133
      01003635H   LINE      CODE     ---       #134
      01003635H   LINE      CODE     ---       #136
      01003638H   LINE      CODE     ---       #137
LX51 LINKER/LOCATER V4.66.97.0                                                        07/05/2021  21:57:21  PAGE 45


      0100363DH   LINE      CODE     ---       #138
      01003642H   LINE      CODE     ---       #139
      01003647H   LINE      CODE     ---       #140
      0100364AH   LINE      CODE     ---       #141
      0100364AH   LINE      CODE     ---       #142
      01003653H   LINE      CODE     ---       #143
      ---         BLOCKEND  ---      ---       LVL=0

      0100356EH   BLOCK     CODE     ---       LVL=0
      0100356EH   BLOCK     CODE     NEAR LAB  LVL=1
      00000004H   SYMBOL    DATA     LONG      pressure
      ---         BLOCKEND  ---      ---       LVL=1
      0100356EH   LINE      CODE     ---       #144
      0100356EH   LINE      CODE     ---       #145
      0100356EH   LINE      CODE     ---       #146
      01003576H   LINE      CODE     ---       #147
      01003579H   LINE      CODE     ---       #148
      0100357EH   LINE      CODE     ---       #149
      01003583H   LINE      CODE     ---       #150
      01003588H   LINE      CODE     ---       #151
      0100358BH   LINE      CODE     ---       #152
      0100358BH   LINE      CODE     ---       #153
      0100358EH   LINE      CODE     ---       #154
      01003591H   LINE      CODE     ---       #155
      01003591H   LINE      CODE     ---       #156
      ---         BLOCKEND  ---      ---       LVL=0

      01002862H   BLOCK     CODE     ---       LVL=0
      01002862H   LINE      CODE     ---       #157
      01002862H   LINE      CODE     ---       #158
      01002862H   LINE      CODE     ---       #159
      0100286FH   LINE      CODE     ---       #160
      0100287CH   LINE      CODE     ---       #161
      01002889H   LINE      CODE     ---       #162
      01002896H   LINE      CODE     ---       #163
      010028A3H   LINE      CODE     ---       #164
      010028B0H   LINE      CODE     ---       #165
      010028BDH   LINE      CODE     ---       #166
      010028CAH   LINE      CODE     ---       #167
      010028D7H   LINE      CODE     ---       #168
      010028E4H   LINE      CODE     ---       #169
      010028F1H   LINE      CODE     ---       #170
      ---         BLOCKEND  ---      ---       LVL=0

      01002528H   BLOCK     CODE     ---       LVL=0
      01002528H   BLOCK     CODE     NEAR LAB  LVL=1
      00000026H   SYMBOL    DATA     LONG      ut
      0000002AH   SYMBOL    DATA     LONG      x1
      0000002EH   SYMBOL    DATA     LONG      x2
      00000032H   SYMBOL    DATA     LONG      b5
      ---         BLOCKEND  ---      ---       LVL=1
      01002528H   LINE      CODE     ---       #171
      01002528H   LINE      CODE     ---       #172
      01002528H   LINE      CODE     ---       #175
      01002533H   LINE      CODE     ---       #176
      01002569H   LINE      CODE     ---       #177
      010025B3H   LINE      CODE     ---       #178
      010025CBH   LINE      CODE     ---       #179
      010025E9H   LINE      CODE     ---       #180
      010025E9H   LINE      CODE     ---       #181
      ---         BLOCKEND  ---      ---       LVL=0

      0100318CH   BLOCK     CODE     ---       LVL=0
      0100318CH   LINE      CODE     ---       #182
      0100318CH   LINE      CODE     ---       #183
LX51 LINKER/LOCATER V4.66.97.0                                                        07/05/2021  21:57:21  PAGE 46


      0100318CH   LINE      CODE     ---       #184
      01003197H   LINE      CODE     ---       #185
      0100319FH   LINE      CODE     ---       #186
      010031A7H   LINE      CODE     ---       #187
      010031AFH   LINE      CODE     ---       #188
      010031B7H   LINE      CODE     ---       #189
      010031BFH   LINE      CODE     ---       #190
      010031C7H   LINE      CODE     ---       #191
      010031CDH   LINE      CODE     ---       #192
      ---         BLOCKEND  ---      ---       LVL=0

      010011F1H   BLOCK     CODE     ---       LVL=0
      010011F1H   BLOCK     CODE     NEAR LAB  LVL=1
      00000026H   SYMBOL    DATA     LONG      up
      0000002AH   SYMBOL    DATA     LONG      x1
      0000002EH   SYMBOL    DATA     LONG      x2
      00000032H   SYMBOL    DATA     LONG      b5
      00000036H   SYMBOL    DATA     LONG      b6
      0000003AH   SYMBOL    DATA     LONG      x3
      0000003EH   SYMBOL    DATA     LONG      b3
      00000042H   SYMBOL    DATA     LONG      p
      00000046H   SYMBOL    DATA     DWORD     b4
      0000004AH   SYMBOL    DATA     DWORD     b7
      ---         BLOCKEND  ---      ---       LVL=1
      010011F1H   LINE      CODE     ---       #193
      010011F1H   LINE      CODE     ---       #194
      010011F1H   LINE      CODE     ---       #198
      010011FCH   LINE      CODE     ---       #199
      01001214H   LINE      CODE     ---       #200
      01001250H   LINE      CODE     ---       #201
      01001276H   LINE      CODE     ---       #202
      0100128EH   LINE      CODE     ---       #203
      010012D3H   LINE      CODE     ---       #204
      010012F9H   LINE      CODE     ---       #205
      01001337H   LINE      CODE     ---       #206
      01001365H   LINE      CODE     ---       #207
      01001397H   LINE      CODE     ---       #208
      010013BEH   LINE      CODE     ---       #209
      010013D2H   LINE      CODE     ---       #210
      010013EAH   LINE      CODE     ---       #212
      0100140EH   LINE      CODE     ---       #213
      01001443H   LINE      CODE     ---       #214
      01001462H   LINE      CODE     ---       #215
      01001482H   LINE      CODE     ---       #216
      010014BDH   LINE      CODE     ---       #217
      010014C4H   LINE      CODE     ---       #218
      ---         BLOCKEND  ---      ---       LVL=0

      010031CEH   BLOCK     CODE     ---       LVL=0
      010031CEH   LINE      CODE     ---       #219
      010031CEH   LINE      CODE     ---       #220
      010031CEH   LINE      CODE     ---       #221
      010031D9H   LINE      CODE     ---       #222
      010031E1H   LINE      CODE     ---       #223
      010031E9H   LINE      CODE     ---       #224
      010031F1H   LINE      CODE     ---       #225
      010031F9H   LINE      CODE     ---       #226
      01003201H   LINE      CODE     ---       #227
      01003209H   LINE      CODE     ---       #228
      0100320FH   LINE      CODE     ---       #229
      ---         BLOCKEND  ---      ---       LVL=0

      010037D9H   BLOCK     CODE     ---       LVL=0
      010037D9H   BLOCK     CODE     NEAR LAB  LVL=1
      00000007H   SYMBOL    DATA     BYTE      i
LX51 LINKER/LOCATER V4.66.97.0                                                        07/05/2021  21:57:21  PAGE 47


      ---         BLOCKEND  ---      ---       LVL=1
      010037D9H   LINE      CODE     ---       #233
      010037D9H   LINE      CODE     ---       #234
      010037D9H   LINE      CODE     ---       #237
      010037DBH   LINE      CODE     ---       #238
      010037DDH   LINE      CODE     ---       #239
      ---         BLOCKEND  ---      ---       LVL=0

      0100377DH   BLOCK     CODE     ---       LVL=0
      0100377DH   BLOCK     CODE     NEAR LAB  LVL=1
      00000007H   SYMBOL    DATA     BYTE      i
      00000006H   SYMBOL    DATA     BYTE      j
      00000005H   SYMBOL    DATA     BYTE      k
      ---         BLOCKEND  ---      ---       LVL=1
      0100377DH   LINE      CODE     ---       #240
      0100377DH   LINE      CODE     ---       #241
      0100377DH   LINE      CODE     ---       #244
      0100377FH   LINE      CODE     ---       #245
      01003781H   LINE      CODE     ---       #246
      01003783H   LINE      CODE     ---       #248
      01003783H   LINE      CODE     ---       #250
      01003783H   LINE      CODE     ---       #251
      01003785H   LINE      CODE     ---       #252
      01003787H   LINE      CODE     ---       #253
      01003789H   LINE      CODE     ---       #254
      ---         BLOCKEND  ---      ---       LVL=0

      010027CEH   BLOCK     CODE     ---       LVL=0
      010027CEH   BLOCK     CODE     NEAR LAB  LVL=1
      00000005H   SYMBOL    DATA     BYTE      i
      00000006H   SYMBOL    DATA     BYTE      j
      00000007H   SYMBOL    DATA     BYTE      t
      00000004H   SYMBOL    DATA     BYTE      dat8
      ---         BLOCKEND  ---      ---       LVL=1
      010027CEH   LINE      CODE     ---       #255
      010027CEH   LINE      CODE     ---       #256
      010027CEH   LINE      CODE     ---       #259
      010027D0H   LINE      CODE     ---       #260
      010027D2H   LINE      CODE     ---       #261
      010027D5H   LINE      CODE     ---       #262
      010027D7H   LINE      CODE     ---       #263
      010027DAH   LINE      CODE     ---       #264
      010027DCH   LINE      CODE     ---       #265
      010027E5H   LINE      CODE     ---       #266
      010027E8H   LINE      CODE     ---       #267
      010027E8H   LINE      CODE     ---       #268
      010027E8H   LINE      CODE     ---       #269
      010027EAH   LINE      CODE     ---       #270
      010027EAH   LINE      CODE     ---       #272
      010027ECH   LINE      CODE     ---       #273
      010027F5H   LINE      CODE     ---       #274
      010027F8H   LINE      CODE     ---       #275
      010027F8H   LINE      CODE     ---       #276
      010027F8H   LINE      CODE     ---       #277
      010027FAH   LINE      CODE     ---       #278
      010027FAH   LINE      CODE     ---       #280
      010027FCH   LINE      CODE     ---       #281
      01002805H   LINE      CODE     ---       #282
      01002808H   LINE      CODE     ---       #283
      01002808H   LINE      CODE     ---       #284
      01002808H   LINE      CODE     ---       #285
      0100280AH   LINE      CODE     ---       #286
      0100280AH   LINE      CODE     ---       #288
      01002816H   LINE      CODE     ---       #289
      01002816H   LINE      CODE     ---       #290
LX51 LINKER/LOCATER V4.66.97.0                                                        07/05/2021  21:57:21  PAGE 48


      01002822H   LINE      CODE     ---       #291
      01002822H   LINE      CODE     ---       #293
      01002824H   LINE      CODE     ---       #294
      0100282DH   LINE      CODE     ---       #295
      01002830H   LINE      CODE     ---       #296
      01002830H   LINE      CODE     ---       #297
      01002832H   LINE      CODE     ---       #298
      01002834H   LINE      CODE     ---       #299
      01002834H   LINE      CODE     ---       #300
      01002836H   LINE      CODE     ---       #301
      0100283DH   LINE      CODE     ---       #302
      01002841H   LINE      CODE     ---       #303
      0100284BH   LINE      CODE     ---       #304
      0100284CH   LINE      CODE     ---       #305
      0100284FH   LINE      CODE     ---       #306
      01002852H   LINE      CODE     ---       #307
      01002854H   LINE      CODE     ---       #308
      01002857H   LINE      CODE     ---       #309
      0100285AH   LINE      CODE     ---       #310
      0100285DH   LINE      CODE     ---       #311
      0100285FH   LINE      CODE     ---       #312
      01002861H   LINE      CODE     ---       #313
      ---         BLOCKEND  ---      ---       LVL=0

      01003210H   BLOCK     CODE     ---       LVL=0
      01003210H   LINE      CODE     ---       #314
      01003210H   LINE      CODE     ---       #315
      01003210H   LINE      CODE     ---       #316
      01003219H   LINE      CODE     ---       #317
      01003221H   LINE      CODE     ---       #318
      01003229H   LINE      CODE     ---       #319
      01003231H   LINE      CODE     ---       #320
      01003239H   LINE      CODE     ---       #321
      01003241H   LINE      CODE     ---       #322
      01003249H   LINE      CODE     ---       #323
      0100324FH   LINE      CODE     ---       #324
      ---         BLOCKEND  ---      ---       LVL=0

      01003076H   BLOCK     CODE     ---       LVL=0
      01003076H   LINE      CODE     ---       #328
      01003076H   LINE      CODE     ---       #329
      01003076H   LINE      CODE     ---       #330
      01003079H   LINE      CODE     ---       #331
      0100307CH   LINE      CODE     ---       #332
      0100307FH   LINE      CODE     ---       #333
      01003088H   LINE      CODE     ---       #334
      01003093H   LINE      CODE     ---       #335
      0100309EH   LINE      CODE     ---       #336
      010030A7H   LINE      CODE     ---       #337
      010030B2H   LINE      CODE     ---       #338
      010030BBH   LINE      CODE     ---       #339
      ---         BLOCKEND  ---      ---       LVL=0

      01003340H   BLOCK     CODE     ---       LVL=0
      01003340H   LINE      CODE     ---       #341
      01003340H   LINE      CODE     ---       #342
      01003340H   LINE      CODE     ---       #343
      01003343H   LINE      CODE     ---       #344
      01003346H   LINE      CODE     ---       #345
      01003349H   LINE      CODE     ---       #346
      01003352H   LINE      CODE     ---       #347
      01003358H   LINE      CODE     ---       #348
      0100335EH   LINE      CODE     ---       #349
      01003363H   LINE      CODE     ---       #350
      0100336CH   LINE      CODE     ---       #351
LX51 LINKER/LOCATER V4.66.97.0                                                        07/05/2021  21:57:21  PAGE 49


      01003375H   LINE      CODE     ---       #352
      ---         BLOCKEND  ---      ---       LVL=0

      01002FE5H   BLOCK     CODE     ---       LVL=0
      01002FE5H   BLOCK     CODE     NEAR LAB  LVL=1
      00000026H   SYMBOL    DATA     BYTE      i
      ---         BLOCKEND  ---      ---       LVL=1
      01002FE5H   LINE      CODE     ---       #354
      01002FE5H   LINE      CODE     ---       #355
      01002FE5H   LINE      CODE     ---       #357
      01002FE8H   LINE      CODE     ---       #358
      01002FEBH   LINE      CODE     ---       #359
      01002FEEH   LINE      CODE     ---       #360
      01002FF1H   LINE      CODE     ---       #361
      01002FFAH   LINE      CODE     ---       #362
      0100300DH   LINE      CODE     ---       #363
      0100300FH   LINE      CODE     ---       #364
      01003014H   LINE      CODE     ---       #365
      01003022H   LINE      CODE     ---       #366
      0100302BH   LINE      CODE     ---       #367
      ---         BLOCKEND  ---      ---       LVL=0

      0100343EH   BLOCK     CODE     ---       LVL=0
      0100343EH   LINE      CODE     ---       #369
      0100343EH   LINE      CODE     ---       #370
      0100343EH   LINE      CODE     ---       #371
      01003444H   LINE      CODE     ---       #372
      01003444H   LINE      CODE     ---       #373
      01003447H   LINE      CODE     ---       #374
      0100344AH   LINE      CODE     ---       #375
      01003453H   LINE      CODE     ---       #376
      01003458H   LINE      CODE     ---       #377
      01003461H   LINE      CODE     ---       #378
      0100346AH   LINE      CODE     ---       #379
      0100346DH   LINE      CODE     ---       #380
      0100346DH   LINE      CODE     ---       #381
      ---         BLOCKEND  ---      ---       LVL=0

      01002734H   BLOCK     CODE     ---       LVL=0
      01002734H   LINE      CODE     ---       #382
      01002734H   LINE      CODE     ---       #383
      01002734H   LINE      CODE     ---       #384
      01002737H   LINE      CODE     ---       #385
      01002752H   LINE      CODE     ---       #386
      01002755H   LINE      CODE     ---       #387
      01002779H   LINE      CODE     ---       #388
      0100277CH   LINE      CODE     ---       #389
      010027A0H   LINE      CODE     ---       #390
      010027A3H   LINE      CODE     ---       #391
      010027C7H   LINE      CODE     ---       #392
      010027CDH   LINE      CODE     ---       #393
      ---         BLOCKEND  ---      ---       LVL=0

      ---         MODULE    ---      ---       TIMER
      020001DEH   PUBLIC    XDATA    ---       mempool
      020001DAH   PUBLIC    XDATA    LONG      nowTime
      0000001DH   PUBLIC    DATA     WORD      count_down_time
      020001D9H   PUBLIC    XDATA    BYTE      weekDay
      020001CDH   PUBLIC    XDATA    ---       month_day
      020001C9H   PUBLIC    XDATA    LONG      cnt
      020001C8H   PUBLIC    XDATA    BYTE      hour
      020001C7H   PUBLIC    XDATA    BYTE      day
      02000005H   PUBLIC    XDATA    ---       timetable
      0000001CH   PUBLIC    DATA     CHAR      door_flag
      02000003H   PUBLIC    XDATA    WORD      year
LX51 LINKER/LOCATER V4.66.97.0                                                        07/05/2021  21:57:21  PAGE 50


      02000002H   PUBLIC    XDATA    BYTE      month
      00000022H.1 PUBLIC    BIT      BIT       sensor_send_flag
      00000019H   PUBLIC    DATA     ---       clock_last
      00000022H.0 PUBLIC    BIT      BIT       sensor_flag
      00000021H.7 PUBLIC    BIT      BIT       time_update_flag
      02000001H   PUBLIC    XDATA    BYTE      minute
      00000018H   PUBLIC    DATA     CHAR      screen_state
      00000015H   PUBLIC    DATA     ---       clock_head
      00000021H.6 PUBLIC    BIT      BIT       AD_flag
      02000000H   PUBLIC    XDATA    BYTE      second
      01003BEEH   PUBLIC    CONST    ---       class_minute
      01003BE9H   PUBLIC    CONST    ---       class_hour
      01003BB8H   PUBLIC    CONST    ---       weekDays
      01002462H   PUBLIC    CODE     ---       showTime
      010036A1H   PUBLIC    CODE     ---       _setTime
      01001F3AH   PUBLIC    CODE     ---       _parseClass
      01001E15H   PUBLIC    CODE     ---       checkClock
      01002A96H   PUBLIC    CODE     ---       _deleteClock
      0000002AH   PUBLIC    DATA     BYTE      ?_addClock?BYTE
      01002A0BH   PUBLIC    CODE     ---       _addClock
      01003305H   PUBLIC    CODE     ---       time_update
      010016DBH   PUBLIC    CODE     ---       _changeToNowTime
      01003476H   PUBLIC    CODE     ---       _isRun
      010018AFH   PUBLIC    CODE     ---       T0_time
      010025EAH   PUBLIC    CODE     ---       time0_init
      00000092H   SFRSYM    DATA     BYTE      P1M0
      00000093H   SFRSYM    DATA     BYTE      P0M1
      00000096H   SFRSYM    DATA     BYTE      P2M0
      00000091H   SFRSYM    DATA     BYTE      P1M1
      00000080H   SFRSYM    DATA     BYTE      P0
      000000B2H   SFRSYM    DATA     BYTE      P3M0
      00000095H   SFRSYM    DATA     BYTE      P2M1
      00000090H   SFRSYM    DATA     BYTE      P1
      000000B4H   SFRSYM    DATA     BYTE      P4M0
      000000B1H   SFRSYM    DATA     BYTE      P3M1
      000000A0H   SFRSYM    DATA     BYTE      P2
      000000CAH   SFRSYM    DATA     BYTE      P5M0
      000000B3H   SFRSYM    DATA     BYTE      P4M1
      000000B0H   SFRSYM    DATA     BYTE      P3
      000000C9H   SFRSYM    DATA     BYTE      P5M1
      000000C0H   SFRSYM    DATA     BYTE      P4
      000000D0H.6 SFRSYM    DATA     BIT       AC
      000000C8H   SFRSYM    DATA     BYTE      P5
      000000A8H.7 SFRSYM    DATA     BIT       EA
      000000CEH   SFRSYM    DATA     BYTE      SPCTL
      000000D8H.7 SFRSYM    DATA     BIT       CF
      000000F9H   SFRSYM    DATA     BYTE      CH
      000000A8H.5 SFRSYM    DATA     BIT       EADC
      000000A8H   SFRSYM    DATA     BYTE      IE
      000000E9H   SFRSYM    DATA     BYTE      CL
      000000C5H   SFRSYM    DATA     BYTE      IAP_CMD
      000000FAH   SFRSYM    DATA     BYTE      CCAP0H
      000000FBH   SFRSYM    DATA     BYTE      CCAP1H
      000000BDH   SFRSYM    DATA     BYTE      ADC_RES
      000000B6H   SFRSYM    DATA     BYTE      IPH2
      000000EAH   SFRSYM    DATA     BYTE      CCAP0L
      000000D8H.6 SFRSYM    DATA     BIT       CR
      000000EBH   SFRSYM    DATA     BYTE      CCAP1L
      000000DAH   SFRSYM    DATA     BYTE      CCAPM0
      000000DBH   SFRSYM    DATA     BYTE      CCAPM1
      000000A8H.4 SFRSYM    DATA     BIT       ES
      000000B8H.5 SFRSYM    DATA     BIT       PADC
      000000B8H   SFRSYM    DATA     BYTE      IP
      00000098H.0 SFRSYM    DATA     BIT       RI
      000000D0H.7 SFRSYM    DATA     BIT       CY
LX51 LINKER/LOCATER V4.66.97.0                                                        07/05/2021  21:57:21  PAGE 51


      00000098H.1 SFRSYM    DATA     BIT       TI
      00000097H   SFRSYM    DATA     BYTE      CLK_DIV
      000000C3H   SFRSYM    DATA     BYTE      IAP_ADDRH
      000000B8H.4 SFRSYM    DATA     BIT       PS
      00000081H   SFRSYM    DATA     BYTE      SP
      000000C4H   SFRSYM    DATA     BYTE      IAP_ADDRL
      000000D9H   SFRSYM    DATA     BYTE      CMOD
      000000D8H   SFRSYM    DATA     BYTE      CCON
      000000B8H.7 SFRSYM    DATA     BIT       PPCA
      000000D0H.2 SFRSYM    DATA     BIT       OV
      000000A8H.6 SFRSYM    DATA     BIT       ELVD
      000000BBH   SFRSYM    DATA     BYTE      P4SW
      00000080H.0 SFRSYM    DATA     BIT       P00
      000000BCH   SFRSYM    DATA     BYTE      ADC_CONTR
      00000099H   SFRSYM    DATA     BYTE      SBUF
      00000090H.0 SFRSYM    DATA     BIT       P10
      00000080H.1 SFRSYM    DATA     BIT       P01
      00000087H   SFRSYM    DATA     BYTE      PCON
      000000A0H.0 SFRSYM    DATA     BIT       P20
      00000090H.1 SFRSYM    DATA     BIT       P11
      00000080H.2 SFRSYM    DATA     BIT       P02
      000000B0H.0 SFRSYM    DATA     BIT       P30
      000000A0H.1 SFRSYM    DATA     BIT       P21
      00000090H.2 SFRSYM    DATA     BIT       P12
      00000080H.3 SFRSYM    DATA     BIT       P03
      00000098H   SFRSYM    DATA     BYTE      SCON
      000000C0H.0 SFRSYM    DATA     BIT       P40
      000000B0H.1 SFRSYM    DATA     BIT       P31
      000000A0H.2 SFRSYM    DATA     BIT       P22
      00000090H.3 SFRSYM    DATA     BIT       P13
      00000080H.4 SFRSYM    DATA     BIT       P04
      0000008FH   SFRSYM    DATA     BYTE      WAKE_CLKO
      00000089H   SFRSYM    DATA     BYTE      TMOD
      00000088H   SFRSYM    DATA     BYTE      TCON
      000000C8H.0 SFRSYM    DATA     BIT       P50
      000000C0H.1 SFRSYM    DATA     BIT       P41
      000000B0H.2 SFRSYM    DATA     BIT       P32
      000000A0H.3 SFRSYM    DATA     BIT       P23
      00000090H.4 SFRSYM    DATA     BIT       P14
      00000080H.5 SFRSYM    DATA     BIT       P05
      000000C8H.1 SFRSYM    DATA     BIT       P51
      000000C0H.2 SFRSYM    DATA     BIT       P42
      000000B0H.3 SFRSYM    DATA     BIT       P33
      000000A0H.4 SFRSYM    DATA     BIT       P24
      00000090H.5 SFRSYM    DATA     BIT       P15
      00000080H.6 SFRSYM    DATA     BIT       P06
      000000C8H.2 SFRSYM    DATA     BIT       P52
      000000C0H.3 SFRSYM    DATA     BIT       P43
      000000B0H.4 SFRSYM    DATA     BIT       P34
      000000A0H.5 SFRSYM    DATA     BIT       P25
      00000090H.6 SFRSYM    DATA     BIT       P16
      00000080H.7 SFRSYM    DATA     BIT       P07
      000000B8H.6 SFRSYM    DATA     BIT       PLVD
      000000C8H.3 SFRSYM    DATA     BIT       P53
      000000C0H.4 SFRSYM    DATA     BIT       P44
      000000B0H.5 SFRSYM    DATA     BIT       P35
      000000A0H.6 SFRSYM    DATA     BIT       P26
      00000090H.7 SFRSYM    DATA     BIT       P17
      000000C0H.5 SFRSYM    DATA     BIT       P45
      000000B0H.6 SFRSYM    DATA     BIT       P36
      000000A0H.7 SFRSYM    DATA     BIT       P27
      000000C0H.6 SFRSYM    DATA     BIT       P46
      000000B0H.7 SFRSYM    DATA     BIT       P37
      000000C0H.7 SFRSYM    DATA     BIT       P47
      00000088H.1 SFRSYM    DATA     BIT       IE0
LX51 LINKER/LOCATER V4.66.97.0                                                        07/05/2021  21:57:21  PAGE 52


      000000A1H   SFRSYM    DATA     BYTE      BUS_SPEED
      00000088H.3 SFRSYM    DATA     BIT       IE1
      000000AFH   SFRSYM    DATA     BYTE      IE2
      0000008EH   SFRSYM    DATA     BYTE      AUXR
      000000F0H   SFRSYM    DATA     BYTE      B
      000000C7H   SFRSYM    DATA     BYTE      IAP_CONTR
      000000E0H   SFRSYM    DATA     BYTE      ACC
      000000A8H.1 SFRSYM    DATA     BIT       ET0
      00000088H.5 SFRSYM    DATA     BIT       TF0
      000000A8H.3 SFRSYM    DATA     BIT       ET1
      00000088H.7 SFRSYM    DATA     BIT       TF1
      000000B5H   SFRSYM    DATA     BYTE      IP2
      00000098H.2 SFRSYM    DATA     BIT       RB8
      0000008CH   SFRSYM    DATA     BYTE      TH0
      0000008DH   SFRSYM    DATA     BYTE      TH1
      00000088H.0 SFRSYM    DATA     BIT       IT0
      000000A8H.0 SFRSYM    DATA     BIT       EX0
      00000098H.3 SFRSYM    DATA     BIT       TB8
      00000088H.2 SFRSYM    DATA     BIT       IT1
      000000A8H.2 SFRSYM    DATA     BIT       EX1
      000000D0H.0 SFRSYM    DATA     BIT       P
      00000098H.7 SFRSYM    DATA     BIT       SM0
      0000008AH   SFRSYM    DATA     BYTE      TL0
      00000098H.6 SFRSYM    DATA     BIT       SM1
      0000008BH   SFRSYM    DATA     BYTE      TL1
      00000098H.5 SFRSYM    DATA     BIT       SM2
      000000B8H.1 SFRSYM    DATA     BIT       PT0
      000000B8H.3 SFRSYM    DATA     BIT       PT1
      000000D0H.3 SFRSYM    DATA     BIT       RS0
      000000C2H   SFRSYM    DATA     BYTE      IAP_DATA
      00000088H.4 SFRSYM    DATA     BIT       TR0
      000000D0H.4 SFRSYM    DATA     BIT       RS1
      00000088H.6 SFRSYM    DATA     BIT       TR1
      000000C1H   SFRSYM    DATA     BYTE      WDT_CONTR
      000000B8H.0 SFRSYM    DATA     BIT       PX0
      000000B8H.2 SFRSYM    DATA     BIT       PX1
      000000F2H   SFRSYM    DATA     BYTE      PCA_PWM0
      000000F3H   SFRSYM    DATA     BYTE      PCA_PWM1
      0000009DH   SFRSYM    DATA     BYTE      P1ASF
      00000083H   SFRSYM    DATA     BYTE      DPH
      000000BEH   SFRSYM    DATA     BYTE      ADC_RESL
      00000082H   SFRSYM    DATA     BYTE      DPL
      000000CDH   SFRSYM    DATA     BYTE      SPSTAT
      000000B7H   SFRSYM    DATA     BYTE      IPH
      0000009BH   SFRSYM    DATA     BYTE      S2BUF
      00000098H.4 SFRSYM    DATA     BIT       REN
      0000009AH   SFRSYM    DATA     BYTE      S2CON
      00000090H.0 SFRSYM    DATA     BIT       led1
      0000009CH   SFRSYM    DATA     BYTE      BRT
      000000B9H   SFRSYM    DATA     BYTE      SADEN
      000000A9H   SFRSYM    DATA     BYTE      SADDR
      000000C6H   SFRSYM    DATA     BYTE      IAP_TRIG
      000000A2H   SFRSYM    DATA     BYTE      AUXR1
      000000D0H.5 SFRSYM    DATA     BIT       F0
      000000D0H.1 SFRSYM    DATA     BIT       F1
      000000D0H   SFRSYM    DATA     BYTE      PSW
      000000D8H.0 SFRSYM    DATA     BIT       CCF0
      000000CFH   SFRSYM    DATA     BYTE      SPDAT
      000000D8H.1 SFRSYM    DATA     BIT       CCF1
      00000094H   SFRSYM    DATA     BYTE      P0M0

      010025EAH   BLOCK     CODE     ---       LVL=0
      010025EAH   BLOCK     CODE     NEAR LAB  LVL=1
      00000007H   SYMBOL    DATA     BYTE      i
      00000006H   SYMBOL    DATA     BYTE      j
LX51 LINKER/LOCATER V4.66.97.0                                                        07/05/2021  21:57:21  PAGE 53


      ---         BLOCKEND  ---      ---       LVL=1
      010025EAH   LINE      CODE     ---       #39
      010025EAH   LINE      CODE     ---       #40
      010025EAH   LINE      CODE     ---       #42
      010025EDH   LINE      CODE     ---       #43
      010025F0H   LINE      CODE     ---       #44
      010025F3H   LINE      CODE     ---       #45
      010025F5H   LINE      CODE     ---       #46
      010025F7H   LINE      CODE     ---       #47
      010025F9H   LINE      CODE     ---       #48
      010025FBH   LINE      CODE     ---       #49
      01002606H   LINE      CODE     ---       #50
      01002619H   LINE      CODE     ---       #51
      01002622H   LINE      CODE     ---       #52
      01002628H   LINE      CODE     ---       #53
      0100263CH   LINE      CODE     ---       #54
      01002648H   LINE      CODE     ---       #58
      01002654H   LINE      CODE     ---       #59
      01002654H   LINE      CODE     ---       #60
      01002660H   LINE      CODE     ---       #61
      0100267BH   LINE      CODE     ---       #62
      0100267EH   LINE      CODE     ---       #63
      01002687H   LINE      CODE     ---       #64
      ---         BLOCKEND  ---      ---       LVL=0

      010018AFH   BLOCK     CODE     ---       LVL=0
      010018AFH   LINE      CODE     ---       #69
      010018CCH   LINE      CODE     ---       #71
      010018CFH   LINE      CODE     ---       #72
      010018D2H   LINE      CODE     ---       #73
      010018F7H   LINE      CODE     ---       #74
      0100191AH   LINE      CODE     ---       #75
      0100191AH   LINE      CODE     ---       #76
      0100191CH   LINE      CODE     ---       #77
      01001941H   LINE      CODE     ---       #78
      01001943H   LINE      CODE     ---       #79
      0100194EH   LINE      CODE     ---       #80
      01001956H   LINE      CODE     ---       #81
      01001968H   LINE      CODE     ---       #82
      0100196AH   LINE      CODE     ---       #83
      01001972H   LINE      CODE     ---       #84
      01001972H   LINE      CODE     ---       #85
      01001975H   LINE      CODE     ---       #87
      01001978H   LINE      CODE     ---       #88
      01001978H   LINE      CODE     ---       #89
      01001978H   LINE      CODE     ---       #90
      0100199EH   LINE      CODE     ---       #91
      0100199EH   LINE      CODE     ---       #92
      010019A0H   LINE      CODE     ---       #93
      010019A0H   LINE      CODE     ---       #94
      010019C6H   LINE      CODE     ---       #95
      010019C6H   LINE      CODE     ---       #96
      010019C8H   LINE      CODE     ---       #97
      010019C8H   LINE      CODE     ---       #98
      010019EEH   LINE      CODE     ---       #99
      010019F0H   LINE      CODE     ---       #100
      01001A0CH   LINE      CODE     ---       #101
      01001A16H   LINE      CODE     ---       #102
      ---         BLOCKEND  ---      ---       LVL=0

      0100346EH   BLOCK     CODE     VOID      LVL=0
      ---         BLOCKEND  ---      ---       LVL=0

      01003476H   BLOCK     CODE     ---       LVL=0
      00000002H   SYMBOL    DATA     WORD      y
LX51 LINKER/LOCATER V4.66.97.0                                                        07/05/2021  21:57:21  PAGE 54


      01003476H   LINE      CODE     ---       #106
      0100347AH   LINE      CODE     ---       #107
      0100347AH   LINE      CODE     ---       #108
      01003498H   LINE      CODE     ---       #109
      0100349BH   LINE      CODE     ---       #111
      0100349DH   LINE      CODE     ---       #112
      ---         BLOCKEND  ---      ---       LVL=0

      010016DBH   BLOCK     CODE     ---       LVL=0
      0000002BH   SYMBOL    DATA     LONG      n
      010016E3H   BLOCK     CODE     NEAR LAB  LVL=1
      0000002FH   SYMBOL    DATA     BYTE      i
      00000030H   SYMBOL    DATA     LONG      t
      00000034H   SYMBOL    DATA     LONG      u
      ---         BLOCKEND  ---      ---       LVL=1
      010016DBH   LINE      CODE     ---       #116
      010016E3H   LINE      CODE     ---       #117
      010016E3H   LINE      CODE     ---       #120
      010016FFH   LINE      CODE     ---       #121
      01001722H   LINE      CODE     ---       #122
      01001744H   LINE      CODE     ---       #123
      0100174EH   LINE      CODE     ---       #124
      01001782H   LINE      CODE     ---       #125
      01001782H   LINE      CODE     ---       #126
      01001790H   LINE      CODE     ---       #127
      010017B2H   LINE      CODE     ---       #128
      010017B4H   LINE      CODE     ---       #129
      010017BDH   LINE      CODE     ---       #130
      010017C2H   LINE      CODE     ---       #132
      010017C5H   LINE      CODE     ---       #133
      010017CBH   LINE      CODE     ---       #134
      010017D9H   LINE      CODE     ---       #135
      010017D9H   LINE      CODE     ---       #136
      01001805H   LINE      CODE     ---       #137
      01001805H   LINE      CODE     ---       #138
      01001828H   LINE      CODE     ---       #139
      0100182EH   LINE      CODE     ---       #140
      0100182EH   LINE      CODE     ---       #142
      0100182EH   LINE      CODE     ---       #143
      01001832H   LINE      CODE     ---       #144
      01001838H   LINE      CODE     ---       #145
      0100184FH   LINE      CODE     ---       #146
      01001871H   LINE      CODE     ---       #147
      0100187FH   LINE      CODE     ---       #148
      010018A0H   LINE      CODE     ---       #149
      010018AEH   LINE      CODE     ---       #150
      ---         BLOCKEND  ---      ---       LVL=0

      01003305H   BLOCK     CODE     ---       LVL=0
      01003305H   LINE      CODE     ---       #178
      01003305H   LINE      CODE     ---       #179
      01003305H   LINE      CODE     ---       #180
      01003312H   LINE      CODE     ---       #181
      01003312H   LINE      CODE     ---       #182
      01003312H   LINE      CODE     ---       #183
      01003321H   LINE      CODE     ---       #184
      01003321H   LINE      CODE     ---       #185
      01003326H   LINE      CODE     ---       #186
      0100332AH   LINE      CODE     ---       #187
      0100332CH   LINE      CODE     ---       #188
      0100333DH   LINE      CODE     ---       #189
      ---         BLOCKEND  ---      ---       LVL=0

      01002A0BH   BLOCK     CODE     ---       LVL=0
      0000002AH   SYMBOL    DATA     BYTE      hour
LX51 LINKER/LOCATER V4.66.97.0                                                        07/05/2021  21:57:21  PAGE 55


      0000002BH   SYMBOL    DATA     BYTE      minute
      0000002CH   SYMBOL    DATA     BYTE      second
      0000002DH   SYMBOL    DATA     BYTE      sta
      01002A11H   BLOCK     CODE     NEAR LAB  LVL=1
      0000002EH   SYMBOL    DATA     ---       t
      ---         BLOCKEND  ---      ---       LVL=1
      01002A0BH   LINE      CODE     ---       #194
      01002A11H   LINE      CODE     ---       #195
      01002A11H   LINE      CODE     ---       #197
      01002A23H   LINE      CODE     ---       #198
      01002A34H   LINE      CODE     ---       #199
      01002A42H   LINE      CODE     ---       #200
      01002A4AH   LINE      CODE     ---       #201
      01002A52H   LINE      CODE     ---       #202
      01002A5AH   LINE      CODE     ---       #203
      01002A6FH   LINE      CODE     ---       #204
      01002A8FH   LINE      CODE     ---       #205
      01002A95H   LINE      CODE     ---       #206
      ---         BLOCKEND  ---      ---       LVL=0

      01002A96H   BLOCK     CODE     ---       LVL=0
      0000002AH   SYMBOL    DATA     WORD      id
      01002A9AH   BLOCK     CODE     NEAR LAB  LVL=1
      0000002CH   SYMBOL    DATA     ---       t
      0000002FH   SYMBOL    DATA     ---       tt
      ---         BLOCKEND  ---      ---       LVL=1
      01002A96H   LINE      CODE     ---       #207
      01002A9AH   LINE      CODE     ---       #208
      01002A9AH   LINE      CODE     ---       #211
      01002AA3H   LINE      CODE     ---       #212
      01002AB1H   LINE      CODE     ---       #213
      01002AB1H   LINE      CODE     ---       #214
      01002ACAH   LINE      CODE     ---       #215
      01002ACAH   LINE      CODE     ---       #216
      01002AD0H   LINE      CODE     ---       #217
      01002AE5H   LINE      CODE     ---       #218
      01002AEEH   LINE      CODE     ---       #219
      01002B06H   LINE      CODE     ---       #220
      01002B0DH   LINE      CODE     ---       #221
      01002B0DH   LINE      CODE     ---       #222
      01002B0DH   LINE      CODE     ---       #223
      01002B1CH   LINE      CODE     ---       #224
      01002B1EH   LINE      CODE     ---       #225
      ---         BLOCKEND  ---      ---       LVL=0

      01001E15H   BLOCK     CODE     ---       LVL=0
      01001E15H   BLOCK     CODE     NEAR LAB  LVL=1
      00000026H   SYMBOL    DATA     BYTE      i
      00000027H   SYMBOL    DATA     ---       t
      ---         BLOCKEND  ---      ---       LVL=1
      01001E15H   LINE      CODE     ---       #323
      01001E15H   LINE      CODE     ---       #324
      01001E15H   LINE      CODE     ---       #327
      01001E1EH   LINE      CODE     ---       #328
      01001E2FH   LINE      CODE     ---       #329
      01001E2FH   LINE      CODE     ---       #330
      01001E3EH   LINE      CODE     ---       #331
      01001E48H   LINE      CODE     ---       #332
      01001E48H   LINE      CODE     ---       #333
      01001E72H   LINE      CODE     ---       #334
      01001E72H   LINE      CODE     ---       #336
      01001E77H   LINE      CODE     ---       #337
      01001E77H   LINE      CODE     ---       #339
      01001E7AH   LINE      CODE     ---       #340
      01001E80H   LINE      CODE     ---       #341
LX51 LINKER/LOCATER V4.66.97.0                                                        07/05/2021  21:57:21  PAGE 56


      01001E8FH   LINE      CODE     ---       #342
      01001E92H   LINE      CODE     ---       #343
      01001E94H   LINE      CODE     ---       #345
      01001EB9H   LINE      CODE     ---       #346
      01001EB9H   LINE      CODE     ---       #347
      01001EBFH   LINE      CODE     ---       #348
      01001EBFH   LINE      CODE     ---       #349
      01001EBFH   LINE      CODE     ---       #350
      01001EC2H   LINE      CODE     ---       #351
      01001ED0H   LINE      CODE     ---       #352
      01001ED0H   LINE      CODE     ---       #353
      01001F1AH   LINE      CODE     ---       #354
      01001F1AH   LINE      CODE     ---       #355
      01001F1DH   LINE      CODE     ---       #356
      01001F23H   LINE      CODE     ---       #357
      01001F32H   LINE      CODE     ---       #358
      01001F35H   LINE      CODE     ---       #360
      01001F35H   LINE      CODE     ---       #361
      01001F39H   LINE      CODE     ---       #362
      ---         BLOCKEND  ---      ---       LVL=0

      01001F3AH   BLOCK     CODE     ---       LVL=0
      00000026H   SYMBOL    DATA     ---       s
      01001F40H   BLOCK     CODE     NEAR LAB  LVL=1
      00000029H   SYMBOL    DATA     CHAR      t
      0000002AH   SYMBOL    DATA     CHAR      u
      0000002BH   SYMBOL    DATA     BYTE      w
      0000002CH   SYMBOL    DATA     BYTE      i
      0000002DH   SYMBOL    DATA     BYTE      j
      ---         BLOCKEND  ---      ---       LVL=1
      01001F3AH   LINE      CODE     ---       #366
      01001F40H   LINE      CODE     ---       #367
      01001F40H   LINE      CODE     ---       #368
      01001F46H   LINE      CODE     ---       #370
      01001F49H   LINE      CODE     ---       #371
      01001F5DH   LINE      CODE     ---       #372
      01001F5DH   LINE      CODE     ---       #373
      01001F64H   LINE      CODE     ---       #374
      01001F64H   LINE      CODE     ---       #375
      01001F71H   LINE      CODE     ---       #376
      01001F7AH   LINE      CODE     ---       #377
      01001F8CH   LINE      CODE     ---       #378
      01001F8CH   LINE      CODE     ---       #379
      01001F8EH   LINE      CODE     ---       #380
      01001F94H   LINE      CODE     ---       #381
      01001F97H   LINE      CODE     ---       #382
      01001FAEH   LINE      CODE     ---       #383
      01001FFEH   LINE      CODE     ---       #384
      0100203FH   LINE      CODE     ---       #385
      01002042H   LINE      CODE     ---       #386
      01002045H   LINE      CODE     ---       #387
      01002045H   LINE      CODE     ---       #388
      01002045H   LINE      CODE     ---       #389
      01002059H   LINE      CODE     ---       #390
      0100205CH   LINE      CODE     ---       #391
      ---         BLOCKEND  ---      ---       LVL=0

      010036A1H   BLOCK     CODE     ---       LVL=0
      00000004H   SYMBOL    DATA     LONG      t
      010036A1H   LINE      CODE     ---       #395
      010036A1H   LINE      CODE     ---       #396
      010036A1H   LINE      CODE     ---       #397
      010036A7H   LINE      CODE     ---       #398
      ---         BLOCKEND  ---      ---       LVL=0

LX51 LINKER/LOCATER V4.66.97.0                                                        07/05/2021  21:57:21  PAGE 57


      01002462H   BLOCK     CODE     ---       LVL=0
      01002462H   LINE      CODE     ---       #403
      01002462H   LINE      CODE     ---       #404
      01002462H   LINE      CODE     ---       #405
      01002465H   LINE      CODE     ---       #406
      0100246EH   LINE      CODE     ---       #407
      01002480H   LINE      CODE     ---       #408
      01002489H   LINE      CODE     ---       #409
      0100249BH   LINE      CODE     ---       #410
      010024A4H   LINE      CODE     ---       #411
      010024B6H   LINE      CODE     ---       #412
      010024BFH   LINE      CODE     ---       #413
      010024C8H   LINE      CODE     ---       #414
      010024DAH   LINE      CODE     ---       #415
      010024E3H   LINE      CODE     ---       #416
      010024F5H   LINE      CODE     ---       #417
      010024FEH   LINE      CODE     ---       #418
      01002507H   LINE      CODE     ---       #419
      0100251CH   LINE      CODE     ---       #420
      01002525H   LINE      CODE     ---       #421
      ---         BLOCKEND  ---      ---       LVL=0

      ---         MODULE    ---      ---       MUSIC
      00000078H   PUBLIC    DATA     BYTE      N
      010037CCH   PUBLIC    CODE     ---       clock_stop
      010037E8H   PUBLIC    CODE     ---       class_start
      010037E5H   PUBLIC    CODE     ---       warm_start
      010037E2H   PUBLIC    CODE     ---       clock_start
      01000003H   PUBLIC    CODE     ---       music_init
      00000092H   SFRSYM    DATA     BYTE      P1M0
      00000093H   SFRSYM    DATA     BYTE      P0M1
      00000096H   SFRSYM    DATA     BYTE      P2M0
      00000091H   SFRSYM    DATA     BYTE      P1M1
      00000080H   SFRSYM    DATA     BYTE      P0
      000000B2H   SFRSYM    DATA     BYTE      P3M0
      00000095H   SFRSYM    DATA     BYTE      P2M1
      00000090H   SFRSYM    DATA     BYTE      P1
      000000B4H   SFRSYM    DATA     BYTE      P4M0
      000000B1H   SFRSYM    DATA     BYTE      P3M1
      000000A0H   SFRSYM    DATA     BYTE      P2
      000000CAH   SFRSYM    DATA     BYTE      P5M0
      000000B3H   SFRSYM    DATA     BYTE      P4M1
      000000B0H   SFRSYM    DATA     BYTE      P3
      000000C9H   SFRSYM    DATA     BYTE      P5M1
      000000C0H   SFRSYM    DATA     BYTE      P4
      000000D0H.6 SFRSYM    DATA     BIT       AC
      000000C8H   SFRSYM    DATA     BYTE      P5
      000000A8H.7 SFRSYM    DATA     BIT       EA
      000000CEH   SFRSYM    DATA     BYTE      SPCTL
      000000D8H.7 SFRSYM    DATA     BIT       CF
      00000090H.5 SFRSYM    DATA     BIT       io1
      00000090H.6 SFRSYM    DATA     BIT       io2
      000000F9H   SFRSYM    DATA     BYTE      CH
      00000090H.7 SFRSYM    DATA     BIT       io3
      000000A8H.5 SFRSYM    DATA     BIT       EADC
      000000A8H   SFRSYM    DATA     BYTE      IE
      000000E9H   SFRSYM    DATA     BYTE      CL
      000000C5H   SFRSYM    DATA     BYTE      IAP_CMD
      000000FAH   SFRSYM    DATA     BYTE      CCAP0H
      000000FBH   SFRSYM    DATA     BYTE      CCAP1H
      000000BDH   SFRSYM    DATA     BYTE      ADC_RES
      000000B6H   SFRSYM    DATA     BYTE      IPH2
      000000EAH   SFRSYM    DATA     BYTE      CCAP0L
      000000D8H.6 SFRSYM    DATA     BIT       CR
      000000EBH   SFRSYM    DATA     BYTE      CCAP1L
LX51 LINKER/LOCATER V4.66.97.0                                                        07/05/2021  21:57:21  PAGE 58


      000000DAH   SFRSYM    DATA     BYTE      CCAPM0
      000000DBH   SFRSYM    DATA     BYTE      CCAPM1
      000000A8H.4 SFRSYM    DATA     BIT       ES
      000000B8H.5 SFRSYM    DATA     BIT       PADC
      000000B8H   SFRSYM    DATA     BYTE      IP
      00000098H.0 SFRSYM    DATA     BIT       RI
      000000D0H.7 SFRSYM    DATA     BIT       CY
      00000098H.1 SFRSYM    DATA     BIT       TI
      00000097H   SFRSYM    DATA     BYTE      CLK_DIV
      000000C3H   SFRSYM    DATA     BYTE      IAP_ADDRH
      000000B8H.4 SFRSYM    DATA     BIT       PS
      00000081H   SFRSYM    DATA     BYTE      SP
      000000C4H   SFRSYM    DATA     BYTE      IAP_ADDRL
      000000D9H   SFRSYM    DATA     BYTE      CMOD
      000000D8H   SFRSYM    DATA     BYTE      CCON
      000000B8H.7 SFRSYM    DATA     BIT       PPCA
      000000D0H.2 SFRSYM    DATA     BIT       OV
      000000A8H.6 SFRSYM    DATA     BIT       ELVD
      000000BBH   SFRSYM    DATA     BYTE      P4SW
      00000080H.0 SFRSYM    DATA     BIT       P00
      000000BCH   SFRSYM    DATA     BYTE      ADC_CONTR
      00000099H   SFRSYM    DATA     BYTE      SBUF
      00000090H.0 SFRSYM    DATA     BIT       P10
      00000080H.1 SFRSYM    DATA     BIT       P01
      00000087H   SFRSYM    DATA     BYTE      PCON
      000000A0H.0 SFRSYM    DATA     BIT       P20
      00000090H.1 SFRSYM    DATA     BIT       P11
      00000080H.2 SFRSYM    DATA     BIT       P02
      000000B0H.0 SFRSYM    DATA     BIT       P30
      000000A0H.1 SFRSYM    DATA     BIT       P21
      00000090H.2 SFRSYM    DATA     BIT       P12
      00000080H.3 SFRSYM    DATA     BIT       P03
      00000098H   SFRSYM    DATA     BYTE      SCON
      000000C0H.0 SFRSYM    DATA     BIT       P40
      000000B0H.1 SFRSYM    DATA     BIT       P31
      000000A0H.2 SFRSYM    DATA     BIT       P22
      00000090H.3 SFRSYM    DATA     BIT       P13
      00000080H.4 SFRSYM    DATA     BIT       P04
      0000008FH   SFRSYM    DATA     BYTE      WAKE_CLKO
      00000089H   SFRSYM    DATA     BYTE      TMOD
      00000088H   SFRSYM    DATA     BYTE      TCON
      000000C8H.0 SFRSYM    DATA     BIT       P50
      000000C0H.1 SFRSYM    DATA     BIT       P41
      000000B0H.2 SFRSYM    DATA     BIT       P32
      000000A0H.3 SFRSYM    DATA     BIT       P23
      00000090H.4 SFRSYM    DATA     BIT       P14
      00000080H.5 SFRSYM    DATA     BIT       P05
      000000C8H.1 SFRSYM    DATA     BIT       P51
      000000C0H.2 SFRSYM    DATA     BIT       P42
      000000B0H.3 SFRSYM    DATA     BIT       P33
      000000A0H.4 SFRSYM    DATA     BIT       P24
      00000090H.5 SFRSYM    DATA     BIT       P15
      00000080H.6 SFRSYM    DATA     BIT       P06
      000000C8H.2 SFRSYM    DATA     BIT       P52
      000000C0H.3 SFRSYM    DATA     BIT       P43
      000000B0H.4 SFRSYM    DATA     BIT       P34
      000000A0H.5 SFRSYM    DATA     BIT       P25
      00000090H.6 SFRSYM    DATA     BIT       P16
      00000080H.7 SFRSYM    DATA     BIT       P07
      000000B8H.6 SFRSYM    DATA     BIT       PLVD
      000000C8H.3 SFRSYM    DATA     BIT       P53
      000000C0H.4 SFRSYM    DATA     BIT       P44
      000000B0H.5 SFRSYM    DATA     BIT       P35
      000000A0H.6 SFRSYM    DATA     BIT       P26
      00000090H.7 SFRSYM    DATA     BIT       P17
LX51 LINKER/LOCATER V4.66.97.0                                                        07/05/2021  21:57:21  PAGE 59


      000000C0H.5 SFRSYM    DATA     BIT       P45
      000000B0H.6 SFRSYM    DATA     BIT       P36
      000000A0H.7 SFRSYM    DATA     BIT       P27
      000000C0H.6 SFRSYM    DATA     BIT       P46
      000000B0H.7 SFRSYM    DATA     BIT       P37
      000000C0H.7 SFRSYM    DATA     BIT       P47
      00000088H.1 SFRSYM    DATA     BIT       IE0
      000000A1H   SFRSYM    DATA     BYTE      BUS_SPEED
      00000088H.3 SFRSYM    DATA     BIT       IE1
      000000AFH   SFRSYM    DATA     BYTE      IE2
      0000008EH   SFRSYM    DATA     BYTE      AUXR
      000000F0H   SFRSYM    DATA     BYTE      B
      000000C7H   SFRSYM    DATA     BYTE      IAP_CONTR
      000000E0H   SFRSYM    DATA     BYTE      ACC
      000000A8H.1 SFRSYM    DATA     BIT       ET0
      00000088H.5 SFRSYM    DATA     BIT       TF0
      000000A8H.3 SFRSYM    DATA     BIT       ET1
      00000088H.7 SFRSYM    DATA     BIT       TF1
      000000B5H   SFRSYM    DATA     BYTE      IP2
      00000098H.2 SFRSYM    DATA     BIT       RB8
      0000008CH   SFRSYM    DATA     BYTE      TH0
      0000008DH   SFRSYM    DATA     BYTE      TH1
      00000088H.0 SFRSYM    DATA     BIT       IT0
      000000A8H.0 SFRSYM    DATA     BIT       EX0
      00000098H.3 SFRSYM    DATA     BIT       TB8
      00000088H.2 SFRSYM    DATA     BIT       IT1
      000000A8H.2 SFRSYM    DATA     BIT       EX1
      000000D0H.0 SFRSYM    DATA     BIT       P
      00000098H.7 SFRSYM    DATA     BIT       SM0
      0000008AH   SFRSYM    DATA     BYTE      TL0
      00000098H.6 SFRSYM    DATA     BIT       SM1
      0000008BH   SFRSYM    DATA     BYTE      TL1
      00000098H.5 SFRSYM    DATA     BIT       SM2
      000000B8H.1 SFRSYM    DATA     BIT       PT0
      000000B8H.3 SFRSYM    DATA     BIT       PT1
      000000D0H.3 SFRSYM    DATA     BIT       RS0
      000000C2H   SFRSYM    DATA     BYTE      IAP_DATA
      00000088H.4 SFRSYM    DATA     BIT       TR0
      000000D0H.4 SFRSYM    DATA     BIT       RS1
      00000088H.6 SFRSYM    DATA     BIT       TR1
      000000C1H   SFRSYM    DATA     BYTE      WDT_CONTR
      000000B8H.0 SFRSYM    DATA     BIT       PX0
      000000B8H.2 SFRSYM    DATA     BIT       PX1
      000000F2H   SFRSYM    DATA     BYTE      PCA_PWM0
      000000F3H   SFRSYM    DATA     BYTE      PCA_PWM1
      0000009DH   SFRSYM    DATA     BYTE      P1ASF
      00000083H   SFRSYM    DATA     BYTE      DPH
      000000BEH   SFRSYM    DATA     BYTE      ADC_RESL
      00000082H   SFRSYM    DATA     BYTE      DPL
      000000CDH   SFRSYM    DATA     BYTE      SPSTAT
      000000B7H   SFRSYM    DATA     BYTE      IPH
      0000009BH   SFRSYM    DATA     BYTE      S2BUF
      00000098H.4 SFRSYM    DATA     BIT       REN
      0000009AH   SFRSYM    DATA     BYTE      S2CON
      0000009CH   SFRSYM    DATA     BYTE      BRT
      000000B9H   SFRSYM    DATA     BYTE      SADEN
      000000A9H   SFRSYM    DATA     BYTE      SADDR
      000000C6H   SFRSYM    DATA     BYTE      IAP_TRIG
      000000A2H   SFRSYM    DATA     BYTE      AUXR1
      000000D0H.5 SFRSYM    DATA     BIT       F0
      000000D0H.1 SFRSYM    DATA     BIT       F1
      000000D0H   SFRSYM    DATA     BYTE      PSW
      000000D8H.0 SFRSYM    DATA     BIT       CCF0
      000000CFH   SFRSYM    DATA     BYTE      SPDAT
      000000D8H.1 SFRSYM    DATA     BIT       CCF1
LX51 LINKER/LOCATER V4.66.97.0                                                        07/05/2021  21:57:21  PAGE 60


      00000094H   SFRSYM    DATA     BYTE      P0M0
      00000006H   SYMBOL    DATA     WORD      t
      00000002H   SYMBOL    DATA     WORD      i
      00000082H   SYMBOL    DATA     WORD      j
      00000004H   SYMBOL    DATA     WORD      k

      01000003H   BLOCK     CODE     ---       LVL=0
      01000003H   LINE      CODE     ---       #16
      01000003H   LINE      CODE     ---       #17
      01000003H   LINE      CODE     ---       #18
      01000005H   LINE      CODE     ---       #19
      01000007H   LINE      CODE     ---       #20
      01000009H   LINE      CODE     ---       #21
      ---         BLOCKEND  ---      ---       LVL=0

      010037E2H   BLOCK     CODE     ---       LVL=0
      010037E2H   LINE      CODE     ---       #22
      010037E2H   LINE      CODE     ---       #23
      010037E2H   LINE      CODE     ---       #24
      010037E4H   LINE      CODE     ---       #25
      ---         BLOCKEND  ---      ---       LVL=0

      010037E5H   BLOCK     CODE     ---       LVL=0
      010037E5H   LINE      CODE     ---       #26
      010037E5H   LINE      CODE     ---       #27
      010037E5H   LINE      CODE     ---       #28
      010037E7H   LINE      CODE     ---       #29
      ---         BLOCKEND  ---      ---       LVL=0

      010037E8H   BLOCK     CODE     ---       LVL=0
      010037E8H   LINE      CODE     ---       #30
      010037E8H   LINE      CODE     ---       #31
      010037E8H   LINE      CODE     ---       #32
      010037EAH   LINE      CODE     ---       #33
      ---         BLOCKEND  ---      ---       LVL=0

      010037CCH   BLOCK     CODE     ---       LVL=0
      010037CCH   LINE      CODE     ---       #34
      010037CCH   LINE      CODE     ---       #35
      010037CCH   LINE      CODE     ---       #36
      010037CEH   LINE      CODE     ---       #37
      010037D0H   LINE      CODE     ---       #38
      010037D2H   LINE      CODE     ---       #39
      ---         BLOCKEND  ---      ---       LVL=0

      ---         MODULE    ---      ---       KEY
      00000071H   PUBLIC    DATA     ---       keys
      00000020H.0 PUBLIC    BIT      BIT       ?scanKey?BIT
      01002E00H   PUBLIC    CODE     ---       scanKey
      01003250H   PUBLIC    CODE     ---       _getBit
      010037AEH   PUBLIC    CODE     ---       Delay10ms
      00000092H   SFRSYM    DATA     BYTE      P1M0
      00000093H   SFRSYM    DATA     BYTE      P0M1
      00000096H   SFRSYM    DATA     BYTE      P2M0
      00000091H   SFRSYM    DATA     BYTE      P1M1
      00000080H   SFRSYM    DATA     BYTE      P0
      000000B2H   SFRSYM    DATA     BYTE      P3M0
      00000095H   SFRSYM    DATA     BYTE      P2M1
      00000090H   SFRSYM    DATA     BYTE      P1
      000000B4H   SFRSYM    DATA     BYTE      P4M0
      000000B1H   SFRSYM    DATA     BYTE      P3M1
      000000A0H   SFRSYM    DATA     BYTE      P2
      000000CAH   SFRSYM    DATA     BYTE      P5M0
      000000B3H   SFRSYM    DATA     BYTE      P4M1
      000000B0H   SFRSYM    DATA     BYTE      P3
LX51 LINKER/LOCATER V4.66.97.0                                                        07/05/2021  21:57:21  PAGE 61


      000000C9H   SFRSYM    DATA     BYTE      P5M1
      000000C0H   SFRSYM    DATA     BYTE      P4
      000000D0H.6 SFRSYM    DATA     BIT       AC
      000000C8H   SFRSYM    DATA     BYTE      P5
      000000A8H.7 SFRSYM    DATA     BIT       EA
      000000CEH   SFRSYM    DATA     BYTE      SPCTL
      000000D8H.7 SFRSYM    DATA     BIT       CF
      000000F9H   SFRSYM    DATA     BYTE      CH
      000000A8H.5 SFRSYM    DATA     BIT       EADC
      000000A8H   SFRSYM    DATA     BYTE      IE
      000000E9H   SFRSYM    DATA     BYTE      CL
      000000C5H   SFRSYM    DATA     BYTE      IAP_CMD
      000000FAH   SFRSYM    DATA     BYTE      CCAP0H
      000000FBH   SFRSYM    DATA     BYTE      CCAP1H
      000000BDH   SFRSYM    DATA     BYTE      ADC_RES
      000000B6H   SFRSYM    DATA     BYTE      IPH2
      000000EAH   SFRSYM    DATA     BYTE      CCAP0L
      000000D8H.6 SFRSYM    DATA     BIT       CR
      000000EBH   SFRSYM    DATA     BYTE      CCAP1L
      000000DAH   SFRSYM    DATA     BYTE      CCAPM0
      000000DBH   SFRSYM    DATA     BYTE      CCAPM1
      000000A8H.4 SFRSYM    DATA     BIT       ES
      000000B8H.5 SFRSYM    DATA     BIT       PADC
      000000B8H   SFRSYM    DATA     BYTE      IP
      00000098H.0 SFRSYM    DATA     BIT       RI
      000000D0H.7 SFRSYM    DATA     BIT       CY
      00000098H.1 SFRSYM    DATA     BIT       TI
      00000097H   SFRSYM    DATA     BYTE      CLK_DIV
      000000C3H   SFRSYM    DATA     BYTE      IAP_ADDRH
      000000B8H.4 SFRSYM    DATA     BIT       PS
      00000081H   SFRSYM    DATA     BYTE      SP
      000000C4H   SFRSYM    DATA     BYTE      IAP_ADDRL
      000000D9H   SFRSYM    DATA     BYTE      CMOD
      000000D8H   SFRSYM    DATA     BYTE      CCON
      000000B8H.7 SFRSYM    DATA     BIT       PPCA
      000000D0H.2 SFRSYM    DATA     BIT       OV
      000000A8H.6 SFRSYM    DATA     BIT       ELVD
      000000BBH   SFRSYM    DATA     BYTE      P4SW
      00000080H.0 SFRSYM    DATA     BIT       P00
      000000BCH   SFRSYM    DATA     BYTE      ADC_CONTR
      00000099H   SFRSYM    DATA     BYTE      SBUF
      00000090H.0 SFRSYM    DATA     BIT       P10
      00000080H.1 SFRSYM    DATA     BIT       P01
      00000087H   SFRSYM    DATA     BYTE      PCON
      000000A0H.0 SFRSYM    DATA     BIT       P20
      00000090H.1 SFRSYM    DATA     BIT       P11
      00000080H.2 SFRSYM    DATA     BIT       P02
      000000B0H.0 SFRSYM    DATA     BIT       P30
      000000A0H.1 SFRSYM    DATA     BIT       P21
      00000090H.2 SFRSYM    DATA     BIT       P12
      00000080H.3 SFRSYM    DATA     BIT       P03
      00000098H   SFRSYM    DATA     BYTE      SCON
      000000C0H.0 SFRSYM    DATA     BIT       P40
      000000B0H.1 SFRSYM    DATA     BIT       P31
      000000A0H.2 SFRSYM    DATA     BIT       P22
      00000090H.3 SFRSYM    DATA     BIT       P13
      00000080H.4 SFRSYM    DATA     BIT       P04
      0000008FH   SFRSYM    DATA     BYTE      WAKE_CLKO
      00000089H   SFRSYM    DATA     BYTE      TMOD
      00000088H   SFRSYM    DATA     BYTE      TCON
      000000C8H.0 SFRSYM    DATA     BIT       P50
      000000C0H.1 SFRSYM    DATA     BIT       P41
      000000B0H.2 SFRSYM    DATA     BIT       P32
      000000A0H.3 SFRSYM    DATA     BIT       P23
      00000090H.4 SFRSYM    DATA     BIT       P14
LX51 LINKER/LOCATER V4.66.97.0                                                        07/05/2021  21:57:21  PAGE 62


      00000080H.5 SFRSYM    DATA     BIT       P05
      000000C8H.1 SFRSYM    DATA     BIT       P51
      000000C0H.2 SFRSYM    DATA     BIT       P42
      000000B0H.3 SFRSYM    DATA     BIT       P33
      000000A0H.4 SFRSYM    DATA     BIT       P24
      00000090H.5 SFRSYM    DATA     BIT       P15
      00000080H.6 SFRSYM    DATA     BIT       P06
      000000C8H.2 SFRSYM    DATA     BIT       P52
      000000C0H.3 SFRSYM    DATA     BIT       P43
      000000B0H.4 SFRSYM    DATA     BIT       P34
      000000A0H.5 SFRSYM    DATA     BIT       P25
      00000090H.6 SFRSYM    DATA     BIT       P16
      00000080H.7 SFRSYM    DATA     BIT       P07
      000000B8H.6 SFRSYM    DATA     BIT       PLVD
      000000C8H.3 SFRSYM    DATA     BIT       P53
      000000C0H.4 SFRSYM    DATA     BIT       P44
      000000B0H.5 SFRSYM    DATA     BIT       P35
      000000A0H.6 SFRSYM    DATA     BIT       P26
      00000090H.7 SFRSYM    DATA     BIT       P17
      000000C0H.5 SFRSYM    DATA     BIT       P45
      000000B0H.6 SFRSYM    DATA     BIT       P36
      000000A0H.7 SFRSYM    DATA     BIT       P27
      000000C0H.6 SFRSYM    DATA     BIT       P46
      000000B0H.7 SFRSYM    DATA     BIT       P37
      000000C0H.7 SFRSYM    DATA     BIT       P47
      00000088H.1 SFRSYM    DATA     BIT       IE0
      000000A1H   SFRSYM    DATA     BYTE      BUS_SPEED
      00000088H.3 SFRSYM    DATA     BIT       IE1
      000000AFH   SFRSYM    DATA     BYTE      IE2
      0000008EH   SFRSYM    DATA     BYTE      AUXR
      000000F0H   SFRSYM    DATA     BYTE      B
      000000C7H   SFRSYM    DATA     BYTE      IAP_CONTR
      000000E0H   SFRSYM    DATA     BYTE      ACC
      000000A8H.1 SFRSYM    DATA     BIT       ET0
      00000088H.5 SFRSYM    DATA     BIT       TF0
      000000A8H.3 SFRSYM    DATA     BIT       ET1
      00000088H.7 SFRSYM    DATA     BIT       TF1
      000000B5H   SFRSYM    DATA     BYTE      IP2
      00000098H.2 SFRSYM    DATA     BIT       RB8
      0000008CH   SFRSYM    DATA     BYTE      TH0
      0000008DH   SFRSYM    DATA     BYTE      TH1
      00000088H.0 SFRSYM    DATA     BIT       IT0
      000000A8H.0 SFRSYM    DATA     BIT       EX0
      00000098H.3 SFRSYM    DATA     BIT       TB8
      00000088H.2 SFRSYM    DATA     BIT       IT1
      000000A8H.2 SFRSYM    DATA     BIT       EX1
      000000D0H.0 SFRSYM    DATA     BIT       P
      00000098H.7 SFRSYM    DATA     BIT       SM0
      0000008AH   SFRSYM    DATA     BYTE      TL0
      00000098H.6 SFRSYM    DATA     BIT       SM1
      0000008BH   SFRSYM    DATA     BYTE      TL1
      00000098H.5 SFRSYM    DATA     BIT       SM2
      000000B8H.1 SFRSYM    DATA     BIT       PT0
      000000B8H.3 SFRSYM    DATA     BIT       PT1
      000000D0H.3 SFRSYM    DATA     BIT       RS0
      000000C2H   SFRSYM    DATA     BYTE      IAP_DATA
      00000088H.4 SFRSYM    DATA     BIT       TR0
      000000D0H.4 SFRSYM    DATA     BIT       RS1
      00000088H.6 SFRSYM    DATA     BIT       TR1
      000000C1H   SFRSYM    DATA     BYTE      WDT_CONTR
      000000B8H.0 SFRSYM    DATA     BIT       PX0
      000000B8H.2 SFRSYM    DATA     BIT       PX1
      000000F2H   SFRSYM    DATA     BYTE      PCA_PWM0
      000000F3H   SFRSYM    DATA     BYTE      PCA_PWM1
      0000009DH   SFRSYM    DATA     BYTE      P1ASF
LX51 LINKER/LOCATER V4.66.97.0                                                        07/05/2021  21:57:21  PAGE 63


      00000083H   SFRSYM    DATA     BYTE      DPH
      000000BEH   SFRSYM    DATA     BYTE      ADC_RESL
      00000082H   SFRSYM    DATA     BYTE      DPL
      000000CDH   SFRSYM    DATA     BYTE      SPSTAT
      000000B7H   SFRSYM    DATA     BYTE      IPH
      0000009BH   SFRSYM    DATA     BYTE      S2BUF
      00000098H.4 SFRSYM    DATA     BIT       REN
      0000009AH   SFRSYM    DATA     BYTE      S2CON
      00000080H.7 SFRSYM    DATA     BIT       tt
      0000009CH   SFRSYM    DATA     BYTE      BRT
      000000B9H   SFRSYM    DATA     BYTE      SADEN
      000000A9H   SFRSYM    DATA     BYTE      SADDR
      000000C6H   SFRSYM    DATA     BYTE      IAP_TRIG
      000000A2H   SFRSYM    DATA     BYTE      AUXR1
      000000D0H.5 SFRSYM    DATA     BIT       F0
      000000D0H.1 SFRSYM    DATA     BIT       F1
      000000D0H   SFRSYM    DATA     BYTE      PSW
      000000D8H.0 SFRSYM    DATA     BIT       CCF0
      000000CFH   SFRSYM    DATA     BYTE      SPDAT
      000000D8H.1 SFRSYM    DATA     BIT       CCF1
      00000094H   SFRSYM    DATA     BYTE      P0M0
      0100000AH   SYMBOL    CONST    ---       _?ix1000

      010037AEH   BLOCK     CODE     ---       LVL=0
      010037AEH   BLOCK     CODE     NEAR LAB  LVL=1
      00000007H   SYMBOL    DATA     BYTE      i
      00000006H   SYMBOL    DATA     BYTE      j
      ---         BLOCKEND  ---      ---       LVL=1
      010037AEH   LINE      CODE     ---       #10
      010037AEH   LINE      CODE     ---       #11
      010037AEH   LINE      CODE     ---       #14
      010037AFH   LINE      CODE     ---       #15
      010037B0H   LINE      CODE     ---       #16
      010037B2H   LINE      CODE     ---       #17
      010037B4H   LINE      CODE     ---       #19
      010037B4H   LINE      CODE     ---       #20
      010037B6H   LINE      CODE     ---       #21
      010037B8H   LINE      CODE     ---       #22
      ---         BLOCKEND  ---      ---       LVL=0

      01003250H   BLOCK     CODE     ---       LVL=0
      00000007H   SYMBOL    DATA     BYTE      p
      00000005H   SYMBOL    DATA     BYTE      i
      01003250H   BLOCK     CODE     NEAR LAB  LVL=1
      00000006H   SYMBOL    DATA     BYTE      mask
      ---         BLOCKEND  ---      ---       LVL=1
      01003250H   LINE      CODE     ---       #26
      01003250H   LINE      CODE     ---       #27
      0100325EH   LINE      CODE     ---       #28
      0100326CH   LINE      CODE     ---       #29
      0100326CH   LINE      CODE     ---       #30
      01003274H   LINE      CODE     ---       #31
      01003274H   LINE      CODE     ---       #32
      0100327CH   LINE      CODE     ---       #33
      0100327CH   LINE      CODE     ---       #34
      01003284H   LINE      CODE     ---       #35
      01003284H   LINE      CODE     ---       #36
      0100328CH   LINE      CODE     ---       #37
      0100328CH   LINE      CODE     ---       #38
      0100328DH   LINE      CODE     ---       #39
      ---         BLOCKEND  ---      ---       LVL=0
      00000007H   SYMBOL    DATA     BYTE      p
      00000005H   SYMBOL    DATA     BYTE      i
      00000006H   SYMBOL    DATA     BYTE      mask

LX51 LINKER/LOCATER V4.66.97.0                                                        07/05/2021  21:57:21  PAGE 64


      01002E00H   BLOCK     CODE     ---       LVL=0
      00000020H.0 SYMBOL    BIT      BIT       longAble
      01002E00H   BLOCK     CODE     NEAR LAB  LVL=1
      00000028H   SYMBOL    DATA     ---       col
      00000003H   SYMBOL    DATA     BYTE      i
      00000002H   SYMBOL    DATA     BYTE      j
      00000004H   SYMBOL    DATA     BYTE      t
      ---         BLOCKEND  ---      ---       LVL=1
      01002E00H   LINE      CODE     ---       #77
      01002E00H   LINE      CODE     ---       #78
      01002E00H   LINE      CODE     ---       #79
      01002E13H   LINE      CODE     ---       #80
      01002E15H   LINE      CODE     ---       #81
      01002E18H   LINE      CODE     ---       #82
      01002E1AH   LINE      CODE     ---       #83
      01002E26H   LINE      CODE     ---       #84
      01002E26H   LINE      CODE     ---       #85
      01002E34H   LINE      CODE     ---       #86
      01002E40H   LINE      CODE     ---       #87
      01002E40H   LINE      CODE     ---       #88
      01002E49H   LINE      CODE     ---       #89
      01002E49H   LINE      CODE     ---       #90
      01002E4CH   LINE      CODE     ---       #91
      01002E53H   LINE      CODE     ---       #92
      01002E53H   LINE      CODE     ---       #93
      01002E56H   LINE      CODE     ---       #94
      01002E5FH   LINE      CODE     ---       #95
      01002E67H   LINE      CODE     ---       #96
      01002E67H   LINE      CODE     ---       #97
      01002E67H   LINE      CODE     ---       #98
      01002E6AH   LINE      CODE     ---       #99
      01002E6DH   LINE      CODE     ---       #100
      01002E6FH   LINE      CODE     ---       #101
      ---         BLOCKEND  ---      ---       LVL=0
      00000022H.3 SYMBOL    BIT      BIT       be_state
      00000006H   SYMBOL    DATA     BYTE      temp
      00000005H   SYMBOL    DATA     BYTE      out
      00000001H   SYMBOL    DATA     BYTE      mask
      00000004H   SYMBOL    DATA     BYTE      i
      00000003H   SYMBOL    DATA     BYTE      j

      ---         MODULE    ---      ---       CLOCK
      00000022H.4 PUBLIC    BIT      BIT       uiflag
      020003D0H   PUBLIC    XDATA    ---       hour1
      00000070H   PUBLIC    DATA     CHAR      key
      020003CBH   PUBLIC    XDATA    ---       minute1
      020003C6H   PUBLIC    XDATA    ---       yaxis
      020003C1H   PUBLIC    XDATA    ---       second1
      020003BEH   PUBLIC    XDATA    ---       xaxis
      0000006EH   PUBLIC    DATA     WORD      address2
      0000006CH   PUBLIC    DATA     WORD      address1
      0000006BH   PUBLIC    DATA     CHAR      num1
      0000006AH   PUBLIC    DATA     CHAR      bflag
      01003378H   PUBLIC    CODE     ---       clock_init
      01002C26H   PUBLIC    CODE     ---       _write_time
      01002CA3H   PUBLIC    CODE     ---       _read_time
      01002B1FH   PUBLIC    CODE     ---       updateclock
      01000EC2H   PUBLIC    CODE     ---       setclock
      00000028H   PUBLIC    DATA     BYTE      ?_Show_oneclock?BYTE
      01002F6FH   PUBLIC    CODE     ---       _Show_oneclock
      0100216AH   PUBLIC    CODE     ---       _Show_onebit
      0100359AH   PUBLIC    CODE     ---       _delay1
      00000092H   SFRSYM    DATA     BYTE      P1M0
      00000093H   SFRSYM    DATA     BYTE      P0M1
      00000096H   SFRSYM    DATA     BYTE      P2M0
LX51 LINKER/LOCATER V4.66.97.0                                                        07/05/2021  21:57:21  PAGE 65


      00000091H   SFRSYM    DATA     BYTE      P1M1
      00000080H   SFRSYM    DATA     BYTE      P0
      000000B2H   SFRSYM    DATA     BYTE      P3M0
      00000095H   SFRSYM    DATA     BYTE      P2M1
      00000090H   SFRSYM    DATA     BYTE      P1
      000000B4H   SFRSYM    DATA     BYTE      P4M0
      000000B1H   SFRSYM    DATA     BYTE      P3M1
      000000A0H   SFRSYM    DATA     BYTE      P2
      000000CAH   SFRSYM    DATA     BYTE      P5M0
      000000B3H   SFRSYM    DATA     BYTE      P4M1
      000000B0H   SFRSYM    DATA     BYTE      P3
      000000C9H   SFRSYM    DATA     BYTE      P5M1
      000000C0H   SFRSYM    DATA     BYTE      P4
      000000D0H.6 SFRSYM    DATA     BIT       AC
      000000C8H   SFRSYM    DATA     BYTE      P5
      000000A8H.7 SFRSYM    DATA     BIT       EA
      000000CEH   SFRSYM    DATA     BYTE      SPCTL
      000000D8H.7 SFRSYM    DATA     BIT       CF
      000000F9H   SFRSYM    DATA     BYTE      CH
      000000A8H.5 SFRSYM    DATA     BIT       EADC
      000000A8H   SFRSYM    DATA     BYTE      IE
      000000E9H   SFRSYM    DATA     BYTE      CL
      000000C5H   SFRSYM    DATA     BYTE      IAP_CMD
      000000FAH   SFRSYM    DATA     BYTE      CCAP0H
      000000FBH   SFRSYM    DATA     BYTE      CCAP1H
      000000BDH   SFRSYM    DATA     BYTE      ADC_RES
      000000B6H   SFRSYM    DATA     BYTE      IPH2
      000000EAH   SFRSYM    DATA     BYTE      CCAP0L
      000000D8H.6 SFRSYM    DATA     BIT       CR
      000000EBH   SFRSYM    DATA     BYTE      CCAP1L
      000000DAH   SFRSYM    DATA     BYTE      CCAPM0
      000000DBH   SFRSYM    DATA     BYTE      CCAPM1
      000000A8H.4 SFRSYM    DATA     BIT       ES
      000000B8H.5 SFRSYM    DATA     BIT       PADC
      000000B8H   SFRSYM    DATA     BYTE      IP
      00000098H.0 SFRSYM    DATA     BIT       RI
      000000D0H.7 SFRSYM    DATA     BIT       CY
      00000098H.1 SFRSYM    DATA     BIT       TI
      00000097H   SFRSYM    DATA     BYTE      CLK_DIV
      000000C3H   SFRSYM    DATA     BYTE      IAP_ADDRH
      000000B8H.4 SFRSYM    DATA     BIT       PS
      00000081H   SFRSYM    DATA     BYTE      SP
      000000C4H   SFRSYM    DATA     BYTE      IAP_ADDRL
      000000D9H   SFRSYM    DATA     BYTE      CMOD
      000000D8H   SFRSYM    DATA     BYTE      CCON
      000000B8H.7 SFRSYM    DATA     BIT       PPCA
      000000D0H.2 SFRSYM    DATA     BIT       OV
      000000A8H.6 SFRSYM    DATA     BIT       ELVD
      000000BBH   SFRSYM    DATA     BYTE      P4SW
      00000080H.0 SFRSYM    DATA     BIT       P00
      000000BCH   SFRSYM    DATA     BYTE      ADC_CONTR
      00000099H   SFRSYM    DATA     BYTE      SBUF
      00000090H.0 SFRSYM    DATA     BIT       P10
      00000080H.1 SFRSYM    DATA     BIT       P01
      00000087H   SFRSYM    DATA     BYTE      PCON
      000000A0H.0 SFRSYM    DATA     BIT       P20
      00000090H.1 SFRSYM    DATA     BIT       P11
      00000080H.2 SFRSYM    DATA     BIT       P02
      000000B0H.0 SFRSYM    DATA     BIT       P30
      000000A0H.1 SFRSYM    DATA     BIT       P21
      00000090H.2 SFRSYM    DATA     BIT       P12
      00000080H.3 SFRSYM    DATA     BIT       P03
      00000098H   SFRSYM    DATA     BYTE      SCON
      000000C0H.0 SFRSYM    DATA     BIT       P40
      000000B0H.1 SFRSYM    DATA     BIT       P31
LX51 LINKER/LOCATER V4.66.97.0                                                        07/05/2021  21:57:21  PAGE 66


      000000A0H.2 SFRSYM    DATA     BIT       P22
      00000090H.3 SFRSYM    DATA     BIT       P13
      00000080H.4 SFRSYM    DATA     BIT       P04
      0000008FH   SFRSYM    DATA     BYTE      WAKE_CLKO
      00000089H   SFRSYM    DATA     BYTE      TMOD
      00000088H   SFRSYM    DATA     BYTE      TCON
      000000C8H.0 SFRSYM    DATA     BIT       P50
      000000C0H.1 SFRSYM    DATA     BIT       P41
      000000B0H.2 SFRSYM    DATA     BIT       P32
      000000A0H.3 SFRSYM    DATA     BIT       P23
      00000090H.4 SFRSYM    DATA     BIT       P14
      00000080H.5 SFRSYM    DATA     BIT       P05
      000000C8H.1 SFRSYM    DATA     BIT       P51
      000000C0H.2 SFRSYM    DATA     BIT       P42
      000000B0H.3 SFRSYM    DATA     BIT       P33
      000000A0H.4 SFRSYM    DATA     BIT       P24
      00000090H.5 SFRSYM    DATA     BIT       P15
      00000080H.6 SFRSYM    DATA     BIT       P06
      000000C8H.2 SFRSYM    DATA     BIT       P52
      000000C0H.3 SFRSYM    DATA     BIT       P43
      000000B0H.4 SFRSYM    DATA     BIT       P34
      000000A0H.5 SFRSYM    DATA     BIT       P25
      00000090H.6 SFRSYM    DATA     BIT       P16
      00000080H.7 SFRSYM    DATA     BIT       P07
      000000B8H.6 SFRSYM    DATA     BIT       PLVD
      000000C8H.3 SFRSYM    DATA     BIT       P53
      000000C0H.4 SFRSYM    DATA     BIT       P44
      000000B0H.5 SFRSYM    DATA     BIT       P35
      000000A0H.6 SFRSYM    DATA     BIT       P26
      00000090H.7 SFRSYM    DATA     BIT       P17
      000000C0H.5 SFRSYM    DATA     BIT       P45
      000000B0H.6 SFRSYM    DATA     BIT       P36
      000000A0H.7 SFRSYM    DATA     BIT       P27
      000000C0H.6 SFRSYM    DATA     BIT       P46
      000000B0H.7 SFRSYM    DATA     BIT       P37
      000000C0H.7 SFRSYM    DATA     BIT       P47
      00000088H.1 SFRSYM    DATA     BIT       IE0
      000000A1H   SFRSYM    DATA     BYTE      BUS_SPEED
      00000088H.3 SFRSYM    DATA     BIT       IE1
      000000AFH   SFRSYM    DATA     BYTE      IE2
      0000008EH   SFRSYM    DATA     BYTE      AUXR
      000000F0H   SFRSYM    DATA     BYTE      B
      000000C7H   SFRSYM    DATA     BYTE      IAP_CONTR
      000000E0H   SFRSYM    DATA     BYTE      ACC
      000000A8H.1 SFRSYM    DATA     BIT       ET0
      00000088H.5 SFRSYM    DATA     BIT       TF0
      000000A8H.3 SFRSYM    DATA     BIT       ET1
      00000088H.7 SFRSYM    DATA     BIT       TF1
      000000B5H   SFRSYM    DATA     BYTE      IP2
      00000098H.2 SFRSYM    DATA     BIT       RB8
      0000008CH   SFRSYM    DATA     BYTE      TH0
      0000008DH   SFRSYM    DATA     BYTE      TH1
      00000088H.0 SFRSYM    DATA     BIT       IT0
      000000A8H.0 SFRSYM    DATA     BIT       EX0
      00000098H.3 SFRSYM    DATA     BIT       TB8
      00000088H.2 SFRSYM    DATA     BIT       IT1
      000000A8H.2 SFRSYM    DATA     BIT       EX1
      000000D0H.0 SFRSYM    DATA     BIT       P
      00000098H.7 SFRSYM    DATA     BIT       SM0
      0000008AH   SFRSYM    DATA     BYTE      TL0
      00000098H.6 SFRSYM    DATA     BIT       SM1
      0000008BH   SFRSYM    DATA     BYTE      TL1
      00000098H.5 SFRSYM    DATA     BIT       SM2
      000000B8H.1 SFRSYM    DATA     BIT       PT0
      000000B8H.3 SFRSYM    DATA     BIT       PT1
LX51 LINKER/LOCATER V4.66.97.0                                                        07/05/2021  21:57:21  PAGE 67


      000000D0H.3 SFRSYM    DATA     BIT       RS0
      000000C2H   SFRSYM    DATA     BYTE      IAP_DATA
      00000088H.4 SFRSYM    DATA     BIT       TR0
      000000D0H.4 SFRSYM    DATA     BIT       RS1
      00000088H.6 SFRSYM    DATA     BIT       TR1
      000000C1H   SFRSYM    DATA     BYTE      WDT_CONTR
      000000B8H.0 SFRSYM    DATA     BIT       PX0
      000000B8H.2 SFRSYM    DATA     BIT       PX1
      000000F2H   SFRSYM    DATA     BYTE      PCA_PWM0
      000000F3H   SFRSYM    DATA     BYTE      PCA_PWM1
      0000009DH   SFRSYM    DATA     BYTE      P1ASF
      00000083H   SFRSYM    DATA     BYTE      DPH
      000000BEH   SFRSYM    DATA     BYTE      ADC_RESL
      00000082H   SFRSYM    DATA     BYTE      DPL
      000000CDH   SFRSYM    DATA     BYTE      SPSTAT
      000000B7H   SFRSYM    DATA     BYTE      IPH
      0000009BH   SFRSYM    DATA     BYTE      S2BUF
      00000098H.4 SFRSYM    DATA     BIT       REN
      0000009AH   SFRSYM    DATA     BYTE      S2CON
      0000009CH   SFRSYM    DATA     BYTE      BRT
      000000B9H   SFRSYM    DATA     BYTE      SADEN
      000000A9H   SFRSYM    DATA     BYTE      SADDR
      000000C6H   SFRSYM    DATA     BYTE      IAP_TRIG
      000000A2H   SFRSYM    DATA     BYTE      AUXR1
      000000D0H.5 SFRSYM    DATA     BIT       F0
      000000D0H.1 SFRSYM    DATA     BIT       F1
      000000D0H   SFRSYM    DATA     BYTE      PSW
      000000D8H.0 SFRSYM    DATA     BIT       CCF0
      000000CFH   SFRSYM    DATA     BYTE      SPDAT
      000000D8H.1 SFRSYM    DATA     BIT       CCF1
      00000094H   SFRSYM    DATA     BYTE      P0M0

      01003592H   BLOCK     CODE     VOID      LVL=0
      ---         BLOCKEND  ---      ---       LVL=0

      0100359AH   BLOCK     CODE     ---       LVL=0
      00000006H   SYMBOL    DATA     WORD      t
      00000001H   SYMBOL    DATA     BYTE      i
      00000003H   SYMBOL    DATA     BYTE      j
      00000004H   SYMBOL    DATA     WORD      a
      0100359AH   BLOCK     CODE     NEAR LAB  LVL=1
      00000001H   SYMBOL    DATA     BYTE      i
      00000003H   SYMBOL    DATA     BYTE      j
      00000004H   SYMBOL    DATA     WORD      a
      ---         BLOCKEND  ---      ---       LVL=1
      0100359AH   LINE      CODE     ---       #21
      0100359AH   LINE      CODE     ---       #22
      0100359AH   LINE      CODE     ---       #25
      010035A4H   LINE      CODE     ---       #26
      010035A4H   LINE      CODE     ---       #27
      010035A5H   LINE      CODE     ---       #28
      010035A7H   LINE      CODE     ---       #29
      010035A9H   LINE      CODE     ---       #31
      010035A9H   LINE      CODE     ---       #32
      010035ABH   LINE      CODE     ---       #33
      010035ADH   LINE      CODE     ---       #34
      010035B4H   LINE      CODE     ---       #35
      ---         BLOCKEND  ---      ---       LVL=0

      0100216AH   BLOCK     CODE     ---       LVL=0
      0000002CH   SYMBOL    DATA     BYTE      num
      0000002DH   SYMBOL    DATA     BYTE      bflag1
      0000002EH   SYMBOL    DATA     BYTE      time
      0100216AH   LINE      CODE     ---       #37
      01002170H   LINE      CODE     ---       #38
LX51 LINKER/LOCATER V4.66.97.0                                                        07/05/2021  21:57:21  PAGE 68


      01002170H   LINE      CODE     ---       #39
      0100217FH   LINE      CODE     ---       #40
      0100217FH   LINE      CODE     ---       #41
      01002188H   LINE      CODE     ---       #42
      010021A2H   LINE      CODE     ---       #43
      010021ABH   LINE      CODE     ---       #44
      010021C5H   LINE      CODE     ---       #45
      010021CEH   LINE      CODE     ---       #46
      010021DDH   LINE      CODE     ---       #47
      010021E8H   LINE      CODE     ---       #48
      010021E8H   LINE      CODE     ---       #49
      010021F1H   LINE      CODE     ---       #50
      010021F1H   LINE      CODE     ---       #51
      010021F7H   LINE      CODE     ---       #52
      010021F9H   LINE      CODE     ---       #54
      010021F9H   LINE      CODE     ---       #55
      01002202H   LINE      CODE     ---       #56
      0100221CH   LINE      CODE     ---       #57
      01002225H   LINE      CODE     ---       #58
      0100223FH   LINE      CODE     ---       #59
      01002248H   LINE      CODE     ---       #60
      01002257H   LINE      CODE     ---       #61
      01002262H   LINE      CODE     ---       #62
      01002262H   LINE      CODE     ---       #63
      0100226BH   LINE      CODE     ---       #64
      0100226BH   LINE      CODE     ---       #65
      01002274H   LINE      CODE     ---       #66
      01002274H   LINE      CODE     ---       #67
      ---         BLOCKEND  ---      ---       LVL=0

      01002F42H   BLOCK     CODE     VOID      LVL=0
      ---         BLOCKEND  ---      ---       LVL=0

      01002F6FH   BLOCK     CODE     ---       LVL=0
      00000028H   SYMBOL    DATA     BYTE      num
      00000029H   SYMBOL    DATA     BYTE      hour
      0000002AH   SYMBOL    DATA     BYTE      minute
      0000002BH   SYMBOL    DATA     BYTE      second
      01002F6FH   LINE      CODE     ---       #69
      01002F75H   LINE      CODE     ---       #70
      01002F75H   LINE      CODE     ---       #71
      01002F78H   LINE      CODE     ---       #72
      01002F81H   LINE      CODE     ---       #73
      01002F8AH   LINE      CODE     ---       #74
      01002F93H   LINE      CODE     ---       #75
      01002F96H   LINE      CODE     ---       #76
      ---         BLOCKEND  ---      ---       LVL=0

      01000EC2H   BLOCK     CODE     ---       LVL=0
      01000EC2H   BLOCK     CODE     NEAR LAB  LVL=1
      00000026H   SYMBOL    DATA     WORD      i
      ---         BLOCKEND  ---      ---       LVL=1
      01000EC2H   LINE      CODE     ---       #79
      01000EC2H   LINE      CODE     ---       #80
      01000EC2H   LINE      CODE     ---       #82
      01000ECBH   LINE      CODE     ---       #83
      01000ED0H   LINE      CODE     ---       #84
      01000ED0H   LINE      CODE     ---       #85
      01000ED5H   LINE      CODE     ---       #86
      01000EE6H   LINE      CODE     ---       #88
      01000EE6H   LINE      CODE     ---       #90
      01000EE9H   LINE      CODE     ---       #91
      01000EE9H   LINE      CODE     ---       #95
      01000EEEH   LINE      CODE     ---       #96
      01000EEEH   LINE      CODE     ---       #97
LX51 LINKER/LOCATER V4.66.97.0                                                        07/05/2021  21:57:21  PAGE 69


      01000EF1H   LINE      CODE     ---       #98
      01000F02H   LINE      CODE     ---       #99
      01000F02H   LINE      CODE     ---       #101
      01000F02H   LINE      CODE     ---       #102
      01000F09H   LINE      CODE     ---       #103
      01000F16H   LINE      CODE     ---       #104
      01000F2AH   LINE      CODE     ---       #105
      01000F2AH   LINE      CODE     ---       #106
      01000F3CH   LINE      CODE     ---       #107
      01000F3EH   LINE      CODE     ---       #108
      01000F40H   LINE      CODE     ---       #109
      01000F52H   LINE      CODE     ---       #110
      01000F54H   LINE      CODE     ---       #111
      01000F56H   LINE      CODE     ---       #112
      01000F58H   LINE      CODE     ---       #113
      01000F67H   LINE      CODE     ---       #114
      01000F69H   LINE      CODE     ---       #115
      01000F6BH   LINE      CODE     ---       #116
      01000F6EH   LINE      CODE     ---       #117
      01000F77H   LINE      CODE     ---       #118
      01000F7AH   LINE      CODE     ---       #119
      01000F7DH   LINE      CODE     ---       #120
      01000F7FH   LINE      CODE     ---       #121
      01000F81H   LINE      CODE     ---       #122
      01000F91H   LINE      CODE     ---       #123
      01000F91H   LINE      CODE     ---       #124
      01000F91H   LINE      CODE     ---       #125
      01000FA4H   LINE      CODE     ---       #127
      01000FA4H   LINE      CODE     ---       #128
      01000FA7H   LINE      CODE     ---       #129
      01000FA7H   LINE      CODE     ---       #130
      01000FACH   LINE      CODE     ---       #131
      01000FACH   LINE      CODE     ---       #132
      01000FAFH   LINE      CODE     ---       #133
      01000FC0H   LINE      CODE     ---       #134
      01000FC0H   LINE      CODE     ---       #136
      01000FC0H   LINE      CODE     ---       #137
      01000FC7H   LINE      CODE     ---       #138
      01000FD4H   LINE      CODE     ---       #139
      01000FE7H   LINE      CODE     ---       #140
      01000FE7H   LINE      CODE     ---       #141
      01000FE9H   LINE      CODE     ---       #142
      01000FECH   LINE      CODE     ---       #143
      01000FF5H   LINE      CODE     ---       #144
      01000FF8H   LINE      CODE     ---       #145
      01000FFBH   LINE      CODE     ---       #146
      01000FFBH   LINE      CODE     ---       #147
      0100100DH   LINE      CODE     ---       #148
      0100100DH   LINE      CODE     ---       #149
      01001021H   LINE      CODE     ---       #150
      0100104DH   LINE      CODE     ---       #151
      01001050H   LINE      CODE     ---       #152
      01001064H   LINE      CODE     ---       #153
      01001090H   LINE      CODE     ---       #154
      01001092H   LINE      CODE     ---       #155
      010010A6H   LINE      CODE     ---       #156
      010010D7H   LINE      CODE     ---       #157
      010010DAH   LINE      CODE     ---       #158
      010010DAH   LINE      CODE     ---       #159
      010010DAH   LINE      CODE     ---       #160
      010010DAH   LINE      CODE     ---       #161
      010010E9H   LINE      CODE     ---       #162
      010010E9H   LINE      CODE     ---       #163
      010010FDH   LINE      CODE     ---       #164
      01001121H   LINE      CODE     ---       #165
LX51 LINKER/LOCATER V4.66.97.0                                                        07/05/2021  21:57:21  PAGE 70


      01001123H   LINE      CODE     ---       #166
      01001137H   LINE      CODE     ---       #167
      0100115EH   LINE      CODE     ---       #168
      01001160H   LINE      CODE     ---       #169
      01001174H   LINE      CODE     ---       #170
      0100119BH   LINE      CODE     ---       #171
      0100119BH   LINE      CODE     ---       #172
      0100119BH   LINE      CODE     ---       #173
      0100119BH   LINE      CODE     ---       #174
      0100119BH   LINE      CODE     ---       #175
      0100119BH   LINE      CODE     ---       #176
      010011AEH   LINE      CODE     ---       #177
      010011B5H   LINE      CODE     ---       #178
      010011B8H   LINE      CODE     ---       #179
      010011C1H   LINE      CODE     ---       #180
      010011C4H   LINE      CODE     ---       #181
      010011D2H   LINE      CODE     ---       #182
      010011D5H   LINE      CODE     ---       #183
      010011DAH   LINE      CODE     ---       #184
      010011DAH   LINE      CODE     ---       #185
      010011DFH   LINE      CODE     ---       #186
      010011F0H   LINE      CODE     ---       #187
      ---         BLOCKEND  ---      ---       LVL=0

      01002B1FH   BLOCK     CODE     ---       LVL=0
      01002B1FH   BLOCK     CODE     NEAR LAB  LVL=1
      00000026H   SYMBOL    DATA     BYTE      i
      00000027H   SYMBOL    DATA     BYTE      hour0
      00000028H   SYMBOL    DATA     BYTE      second0
      00000029H   SYMBOL    DATA     BYTE      minute0
      ---         BLOCKEND  ---      ---       LVL=1
      01002B1FH   LINE      CODE     ---       #189
      01002B1FH   LINE      CODE     ---       #190
      01002B1FH   LINE      CODE     ---       #192
      01002B2DH   LINE      CODE     ---       #193
      01002B2DH   LINE      CODE     ---       #194
      01002B34H   LINE      CODE     ---       #195
      01002B38H   LINE      CODE     ---       #196
      01002B46H   LINE      CODE     ---       #197
      01002B46H   LINE      CODE     ---       #198
      01002B60H   LINE      CODE     ---       #199
      01002B7AH   LINE      CODE     ---       #200
      01002B94H   LINE      CODE     ---       #201
      01002BA0H   LINE      CODE     ---       #202
      01002BA4H   LINE      CODE     ---       #203
      ---         BLOCKEND  ---      ---       LVL=0

      01002CA3H   BLOCK     CODE     ---       LVL=0
      00000028H   SYMBOL    DATA     BYTE      num1
      01002CA3H   LINE      CODE     ---       #214
      01002CA5H   LINE      CODE     ---       #215
      01002CA5H   LINE      CODE     ---       #216
      01002CC5H   LINE      CODE     ---       #217
      01002CC8H   LINE      CODE     ---       #219
      01002CE9H   LINE      CODE     ---       #220
      01002CECH   LINE      CODE     ---       #222
      01002D11H   LINE      CODE     ---       #223
      ---         BLOCKEND  ---      ---       LVL=0

      01002C26H   BLOCK     CODE     ---       LVL=0
      00000028H   SYMBOL    DATA     BYTE      num1
      01002C26H   LINE      CODE     ---       #227
      01002C28H   LINE      CODE     ---       #228
      01002C28H   LINE      CODE     ---       #229
      01002C4CH   LINE      CODE     ---       #230
LX51 LINKER/LOCATER V4.66.97.0                                                        07/05/2021  21:57:21  PAGE 71


      01002C4FH   LINE      CODE     ---       #231
      01002C74H   LINE      CODE     ---       #232
      01002C77H   LINE      CODE     ---       #233
      01002C9CH   LINE      CODE     ---       #234
      ---         BLOCKEND  ---      ---       LVL=0

      01003378H   BLOCK     CODE     ---       LVL=0
      01003378H   BLOCK     CODE     NEAR LAB  LVL=1
      00000026H   SYMBOL    DATA     BYTE      i
      00000007H   SYMBOL    DATA     BYTE      flag
      ---         BLOCKEND  ---      ---       LVL=1
      01003378H   LINE      CODE     ---       #237
      01003378H   LINE      CODE     ---       #238
      01003378H   LINE      CODE     ---       #240
      01003384H   LINE      CODE     ---       #241
      01003387H   LINE      CODE     ---       #242
      01003387H   LINE      CODE     ---       #243
      01003395H   LINE      CODE     ---       #244
      01003395H   LINE      CODE     ---       #245
      010033A5H   LINE      CODE     ---       #246
      010033A8H   LINE      CODE     ---       #247
      010033ACH   LINE      CODE     ---       #248
      010033ACH   LINE      CODE     ---       #249
      ---         BLOCKEND  ---      ---       LVL=0

      ---         MODULE    ---      ---       EEPROM
      00000075H   PUBLIC    DATA     ---       my_unTemp16
      010037A2H   PUBLIC    CODE     ---       IAP_Disable
      0100366FH   PUBLIC    CODE     ---       _Sector_Erase
      01000026H   PUBLIC    CODE     ---       _Byte_Program
      01003615H   PUBLIC    CODE     ---       _Byte_Read
      00000092H   SFRSYM    DATA     BYTE      P1M0
      00000093H   SFRSYM    DATA     BYTE      P0M1
      00000096H   SFRSYM    DATA     BYTE      P2M0
      00000091H   SFRSYM    DATA     BYTE      P1M1
      00000080H   SFRSYM    DATA     BYTE      P0
      000000B2H   SFRSYM    DATA     BYTE      P3M0
      00000095H   SFRSYM    DATA     BYTE      P2M1
      00000090H   SFRSYM    DATA     BYTE      P1
      000000B4H   SFRSYM    DATA     BYTE      P4M0
      000000B1H   SFRSYM    DATA     BYTE      P3M1
      000000A0H   SFRSYM    DATA     BYTE      P2
      000000CAH   SFRSYM    DATA     BYTE      P5M0
      000000B3H   SFRSYM    DATA     BYTE      P4M1
      000000B0H   SFRSYM    DATA     BYTE      P3
      000000C9H   SFRSYM    DATA     BYTE      P5M1
      000000C0H   SFRSYM    DATA     BYTE      P4
      000000D0H.6 SFRSYM    DATA     BIT       AC
      000000C8H   SFRSYM    DATA     BYTE      P5
      000000A8H.7 SFRSYM    DATA     BIT       EA
      000000CEH   SFRSYM    DATA     BYTE      SPCTL
      000000D8H.7 SFRSYM    DATA     BIT       CF
      000000F9H   SFRSYM    DATA     BYTE      CH
      000000A8H.5 SFRSYM    DATA     BIT       EADC
      000000A8H   SFRSYM    DATA     BYTE      IE
      000000E9H   SFRSYM    DATA     BYTE      CL
      000000C5H   SFRSYM    DATA     BYTE      IAP_CMD
      000000FAH   SFRSYM    DATA     BYTE      CCAP0H
      000000FBH   SFRSYM    DATA     BYTE      CCAP1H
      000000BDH   SFRSYM    DATA     BYTE      ADC_RES
      000000B6H   SFRSYM    DATA     BYTE      IPH2
      000000EAH   SFRSYM    DATA     BYTE      CCAP0L
      000000D8H.6 SFRSYM    DATA     BIT       CR
      000000EBH   SFRSYM    DATA     BYTE      CCAP1L
      000000DAH   SFRSYM    DATA     BYTE      CCAPM0
LX51 LINKER/LOCATER V4.66.97.0                                                        07/05/2021  21:57:21  PAGE 72


      000000DBH   SFRSYM    DATA     BYTE      CCAPM1
      000000A8H.4 SFRSYM    DATA     BIT       ES
      000000B8H.5 SFRSYM    DATA     BIT       PADC
      000000B8H   SFRSYM    DATA     BYTE      IP
      00000098H.0 SFRSYM    DATA     BIT       RI
      000000D0H.7 SFRSYM    DATA     BIT       CY
      00000098H.1 SFRSYM    DATA     BIT       TI
      00000097H   SFRSYM    DATA     BYTE      CLK_DIV
      000000C3H   SFRSYM    DATA     BYTE      IAP_ADDRH
      000000B8H.4 SFRSYM    DATA     BIT       PS
      00000081H   SFRSYM    DATA     BYTE      SP
      000000C4H   SFRSYM    DATA     BYTE      IAP_ADDRL
      000000D9H   SFRSYM    DATA     BYTE      CMOD
      000000D8H   SFRSYM    DATA     BYTE      CCON
      000000B8H.7 SFRSYM    DATA     BIT       PPCA
      000000D0H.2 SFRSYM    DATA     BIT       OV
      000000A8H.6 SFRSYM    DATA     BIT       ELVD
      000000BBH   SFRSYM    DATA     BYTE      P4SW
      00000080H.0 SFRSYM    DATA     BIT       P00
      000000BCH   SFRSYM    DATA     BYTE      ADC_CONTR
      00000099H   SFRSYM    DATA     BYTE      SBUF
      00000090H.0 SFRSYM    DATA     BIT       P10
      00000080H.1 SFRSYM    DATA     BIT       P01
      00000087H   SFRSYM    DATA     BYTE      PCON
      000000A0H.0 SFRSYM    DATA     BIT       P20
      00000090H.1 SFRSYM    DATA     BIT       P11
      00000080H.2 SFRSYM    DATA     BIT       P02
      000000B0H.0 SFRSYM    DATA     BIT       P30
      000000A0H.1 SFRSYM    DATA     BIT       P21
      00000090H.2 SFRSYM    DATA     BIT       P12
      00000080H.3 SFRSYM    DATA     BIT       P03
      00000098H   SFRSYM    DATA     BYTE      SCON
      000000C0H.0 SFRSYM    DATA     BIT       P40
      000000B0H.1 SFRSYM    DATA     BIT       P31
      000000A0H.2 SFRSYM    DATA     BIT       P22
      00000090H.3 SFRSYM    DATA     BIT       P13
      00000080H.4 SFRSYM    DATA     BIT       P04
      0000008FH   SFRSYM    DATA     BYTE      WAKE_CLKO
      00000089H   SFRSYM    DATA     BYTE      TMOD
      00000088H   SFRSYM    DATA     BYTE      TCON
      000000C8H.0 SFRSYM    DATA     BIT       P50
      000000C0H.1 SFRSYM    DATA     BIT       P41
      000000B0H.2 SFRSYM    DATA     BIT       P32
      000000A0H.3 SFRSYM    DATA     BIT       P23
      00000090H.4 SFRSYM    DATA     BIT       P14
      00000080H.5 SFRSYM    DATA     BIT       P05
      000000C8H.1 SFRSYM    DATA     BIT       P51
      000000C0H.2 SFRSYM    DATA     BIT       P42
      000000B0H.3 SFRSYM    DATA     BIT       P33
      000000A0H.4 SFRSYM    DATA     BIT       P24
      00000090H.5 SFRSYM    DATA     BIT       P15
      00000080H.6 SFRSYM    DATA     BIT       P06
      000000C8H.2 SFRSYM    DATA     BIT       P52
      000000C0H.3 SFRSYM    DATA     BIT       P43
      000000B0H.4 SFRSYM    DATA     BIT       P34
      000000A0H.5 SFRSYM    DATA     BIT       P25
      00000090H.6 SFRSYM    DATA     BIT       P16
      00000080H.7 SFRSYM    DATA     BIT       P07
      000000B8H.6 SFRSYM    DATA     BIT       PLVD
      000000C8H.3 SFRSYM    DATA     BIT       P53
      000000C0H.4 SFRSYM    DATA     BIT       P44
      000000B0H.5 SFRSYM    DATA     BIT       P35
      000000A0H.6 SFRSYM    DATA     BIT       P26
      00000090H.7 SFRSYM    DATA     BIT       P17
      000000C0H.5 SFRSYM    DATA     BIT       P45
LX51 LINKER/LOCATER V4.66.97.0                                                        07/05/2021  21:57:21  PAGE 73


      000000B0H.6 SFRSYM    DATA     BIT       P36
      000000A0H.7 SFRSYM    DATA     BIT       P27
      000000C0H.6 SFRSYM    DATA     BIT       P46
      000000B0H.7 SFRSYM    DATA     BIT       P37
      000000C0H.7 SFRSYM    DATA     BIT       P47
      00000088H.1 SFRSYM    DATA     BIT       IE0
      000000A1H   SFRSYM    DATA     BYTE      BUS_SPEED
      00000088H.3 SFRSYM    DATA     BIT       IE1
      000000AFH   SFRSYM    DATA     BYTE      IE2
      0000008EH   SFRSYM    DATA     BYTE      AUXR
      000000F0H   SFRSYM    DATA     BYTE      B
      000000C7H   SFRSYM    DATA     BYTE      IAP_CONTR
      000000E0H   SFRSYM    DATA     BYTE      ACC
      000000A8H.1 SFRSYM    DATA     BIT       ET0
      00000088H.5 SFRSYM    DATA     BIT       TF0
      000000A8H.3 SFRSYM    DATA     BIT       ET1
      00000088H.7 SFRSYM    DATA     BIT       TF1
      000000B5H   SFRSYM    DATA     BYTE      IP2
      00000098H.2 SFRSYM    DATA     BIT       RB8
      0000008CH   SFRSYM    DATA     BYTE      TH0
      0000008DH   SFRSYM    DATA     BYTE      TH1
      00000088H.0 SFRSYM    DATA     BIT       IT0
      000000A8H.0 SFRSYM    DATA     BIT       EX0
      00000098H.3 SFRSYM    DATA     BIT       TB8
      00000088H.2 SFRSYM    DATA     BIT       IT1
      000000A8H.2 SFRSYM    DATA     BIT       EX1
      000000D0H.0 SFRSYM    DATA     BIT       P
      00000098H.7 SFRSYM    DATA     BIT       SM0
      0000008AH   SFRSYM    DATA     BYTE      TL0
      00000098H.6 SFRSYM    DATA     BIT       SM1
      0000008BH   SFRSYM    DATA     BYTE      TL1
      00000098H.5 SFRSYM    DATA     BIT       SM2
      000000B8H.1 SFRSYM    DATA     BIT       PT0
      000000B8H.3 SFRSYM    DATA     BIT       PT1
      000000D0H.3 SFRSYM    DATA     BIT       RS0
      000000C2H   SFRSYM    DATA     BYTE      IAP_DATA
      00000088H.4 SFRSYM    DATA     BIT       TR0
      000000D0H.4 SFRSYM    DATA     BIT       RS1
      00000088H.6 SFRSYM    DATA     BIT       TR1
      000000C1H   SFRSYM    DATA     BYTE      WDT_CONTR
      000000B8H.0 SFRSYM    DATA     BIT       PX0
      000000B8H.2 SFRSYM    DATA     BIT       PX1
      000000F2H   SFRSYM    DATA     BYTE      PCA_PWM0
      000000F3H   SFRSYM    DATA     BYTE      PCA_PWM1
      0000009DH   SFRSYM    DATA     BYTE      P1ASF
      00000083H   SFRSYM    DATA     BYTE      DPH
      000000BEH   SFRSYM    DATA     BYTE      ADC_RESL
      00000082H   SFRSYM    DATA     BYTE      DPL
      000000CDH   SFRSYM    DATA     BYTE      SPSTAT
      000000B7H   SFRSYM    DATA     BYTE      IPH
      0000009BH   SFRSYM    DATA     BYTE      S2BUF
      00000098H.4 SFRSYM    DATA     BIT       REN
      0000009AH   SFRSYM    DATA     BYTE      S2CON
      0000009CH   SFRSYM    DATA     BYTE      BRT
      000000B9H   SFRSYM    DATA     BYTE      SADEN
      000000A9H   SFRSYM    DATA     BYTE      SADDR
      000000C6H   SFRSYM    DATA     BYTE      IAP_TRIG
      000000A2H   SFRSYM    DATA     BYTE      AUXR1
      000000D0H.5 SFRSYM    DATA     BIT       F0
      000000D0H.1 SFRSYM    DATA     BIT       F1
      000000D0H   SFRSYM    DATA     BYTE      PSW
      000000D8H.0 SFRSYM    DATA     BIT       CCF0
      000000CFH   SFRSYM    DATA     BYTE      SPDAT
      000000D8H.1 SFRSYM    DATA     BIT       CCF1
      00000094H   SFRSYM    DATA     BYTE      P0M0
LX51 LINKER/LOCATER V4.66.97.0                                                        07/05/2021  21:57:21  PAGE 74



      01003615H   BLOCK     CODE     ---       LVL=0
      00000006H   SYMBOL    DATA     WORD      add
      01003615H   LINE      CODE     ---       #33
      01003615H   LINE      CODE     ---       #34
      01003615H   LINE      CODE     ---       #35
      01003618H   LINE      CODE     ---       #36
      0100361BH   LINE      CODE     ---       #37
      0100361EH   LINE      CODE     ---       #39
      01003622H   LINE      CODE     ---       #40
      01003625H   LINE      CODE     ---       #41
      01003628H   LINE      CODE     ---       #44
      0100362BH   LINE      CODE     ---       #45
      0100362EH   LINE      CODE     ---       #46
      0100362FH   LINE      CODE     ---       #48
      01003632H   LINE      CODE     ---       #50
      01003634H   LINE      CODE     ---       #51
      ---         BLOCKEND  ---      ---       LVL=0

      01000026H   BLOCK     CODE     ---       LVL=0
      00000006H   SYMBOL    DATA     WORD      add
      00000005H   SYMBOL    DATA     BYTE      ch
      01000026H   LINE      CODE     ---       #54
      01000026H   LINE      CODE     ---       #55
      01000026H   LINE      CODE     ---       #56
      01000029H   LINE      CODE     ---       #57
      0100002CH   LINE      CODE     ---       #59
      01000030H   LINE      CODE     ---       #60
      01000033H   LINE      CODE     ---       #61
      01000036H   LINE      CODE     ---       #63
      01000038H   LINE      CODE     ---       #65
      0100003BH   LINE      CODE     ---       #66
      0100003EH   LINE      CODE     ---       #67
      0100003FH   LINE      CODE     ---       #69
      ---         BLOCKEND  ---      ---       LVL=0

      0100366FH   BLOCK     CODE     ---       LVL=0
      00000006H   SYMBOL    DATA     WORD      add
      0100366FH   LINE      CODE     ---       #74
      0100366FH   LINE      CODE     ---       #75
      0100366FH   LINE      CODE     ---       #76
      01003672H   LINE      CODE     ---       #77
      01003675H   LINE      CODE     ---       #79
      01003679H   LINE      CODE     ---       #80
      0100367CH   LINE      CODE     ---       #81
      0100367FH   LINE      CODE     ---       #84
      01003682H   LINE      CODE     ---       #85
      01003685H   LINE      CODE     ---       #86
      01003686H   LINE      CODE     ---       #88
      ---         BLOCKEND  ---      ---       LVL=0

      010037A2H   BLOCK     CODE     ---       LVL=0
      010037A2H   LINE      CODE     ---       #92
      010037A2H   LINE      CODE     ---       #93
      010037A2H   LINE      CODE     ---       #96
      010037A5H   LINE      CODE     ---       #97
      010037A7H   LINE      CODE     ---       #98
      010037A9H   LINE      CODE     ---       #99
      010037ABH   LINE      CODE     ---       #100
      010037ADH   LINE      CODE     ---       #101
      ---         BLOCKEND  ---      ---       LVL=0
      00000007H   SYMBOL    DATA     BYTE      i
      00000004H   SYMBOL    DATA     WORD      d

      ---         MODULE    ---      ---       ADC
LX51 LINKER/LOCATER V4.66.97.0                                                        07/05/2021  21:57:21  PAGE 75


      0100000EH   PUBLIC    CODE     ---       _GetADCResult
      01003760H   PUBLIC    CODE     ---       InitADC
      01003654H   PUBLIC    CODE     ---       _Delay2
      00000080H   SFRSYM    DATA     BYTE      P0
      00000090H   SFRSYM    DATA     BYTE      P1
      000000A0H   SFRSYM    DATA     BYTE      P2
      000000B0H   SFRSYM    DATA     BYTE      P3
      000000B0H.4 SFRSYM    DATA     BIT       T0
      000000D0H.6 SFRSYM    DATA     BIT       AC
      000000B0H.5 SFRSYM    DATA     BIT       T1
      00000090H.0 SFRSYM    DATA     BIT       T2
      000000A8H.7 SFRSYM    DATA     BIT       EA
      000000A8H   SFRSYM    DATA     BYTE      IE
      000000BDH   SFRSYM    DATA     BYTE      ADC_RES
      000000C8H.6 SFRSYM    DATA     BIT       EXF2
      000000B0H.7 SFRSYM    DATA     BIT       RD
      000000A8H.4 SFRSYM    DATA     BIT       ES
      000000B8H   SFRSYM    DATA     BYTE      IP
      00000098H.0 SFRSYM    DATA     BIT       RI
      000000B0H.2 SFRSYM    DATA     BIT       INT0
      000000D0H.7 SFRSYM    DATA     BIT       CY
      00000098H.1 SFRSYM    DATA     BIT       TI
      000000B0H.3 SFRSYM    DATA     BIT       INT1
      000000CBH   SFRSYM    DATA     BYTE      RCAP2H
      000000B8H.4 SFRSYM    DATA     BIT       PS
      00000081H   SFRSYM    DATA     BYTE      SP
      00000090H.1 SFRSYM    DATA     BIT       T2EX
      000000D0H.2 SFRSYM    DATA     BIT       OV
      000000CAH   SFRSYM    DATA     BYTE      RCAP2L
      000000C8H.1 SFRSYM    DATA     BIT       C_T2
      000000B0H.6 SFRSYM    DATA     BIT       WR
      000000C8H.5 SFRSYM    DATA     BIT       RCLK
      000000C8H.4 SFRSYM    DATA     BIT       TCLK
      000000BCH   SFRSYM    DATA     BYTE      ADC_CONTR
      00000099H   SFRSYM    DATA     BYTE      SBUF
      00000087H   SFRSYM    DATA     BYTE      PCON
      00000098H   SFRSYM    DATA     BYTE      SCON
      00000089H   SFRSYM    DATA     BYTE      TMOD
      00000088H   SFRSYM    DATA     BYTE      TCON
      00000088H.1 SFRSYM    DATA     BIT       IE0
      00000088H.3 SFRSYM    DATA     BIT       IE1
      000000F0H   SFRSYM    DATA     BYTE      B
      000000C8H.0 SFRSYM    DATA     BIT       CP_RL2
      000000E0H   SFRSYM    DATA     BYTE      ACC
      000000A8H.1 SFRSYM    DATA     BIT       ET0
      000000A8H.3 SFRSYM    DATA     BIT       ET1
      00000088H.5 SFRSYM    DATA     BIT       TF0
      000000A8H.5 SFRSYM    DATA     BIT       ET2
      00000088H.7 SFRSYM    DATA     BIT       TF1
      000000C8H.7 SFRSYM    DATA     BIT       TF2
      00000098H.2 SFRSYM    DATA     BIT       RB8
      0000008CH   SFRSYM    DATA     BYTE      TH0
      000000A8H.0 SFRSYM    DATA     BIT       EX0
      00000088H.0 SFRSYM    DATA     BIT       IT0
      0000008DH   SFRSYM    DATA     BYTE      TH1
      000000BEH   SFRSYM    DATA     BYTE      ADC_LOW2
      00000098H.3 SFRSYM    DATA     BIT       TB8
      000000A8H.2 SFRSYM    DATA     BIT       EX1
      00000088H.2 SFRSYM    DATA     BIT       IT1
      000000CDH   SFRSYM    DATA     BYTE      TH2
      000000D0H.0 SFRSYM    DATA     BIT       P
      00000098H.7 SFRSYM    DATA     BIT       SM0
      0000008AH   SFRSYM    DATA     BYTE      TL0
      00000098H.6 SFRSYM    DATA     BIT       SM1
      0000008BH   SFRSYM    DATA     BYTE      TL1
LX51 LINKER/LOCATER V4.66.97.0                                                        07/05/2021  21:57:21  PAGE 76


      00000098H.5 SFRSYM    DATA     BIT       SM2
      000000CCH   SFRSYM    DATA     BYTE      TL2
      000000B8H.1 SFRSYM    DATA     BIT       PT0
      000000B8H.3 SFRSYM    DATA     BIT       PT1
      000000D0H.3 SFRSYM    DATA     BIT       RS0
      000000B8H.5 SFRSYM    DATA     BIT       PT2
      00000088H.4 SFRSYM    DATA     BIT       TR0
      000000D0H.4 SFRSYM    DATA     BIT       RS1
      00000088H.6 SFRSYM    DATA     BIT       TR1
      000000C8H.2 SFRSYM    DATA     BIT       TR2
      000000B8H.0 SFRSYM    DATA     BIT       PX0
      000000B8H.2 SFRSYM    DATA     BIT       PX1
      0000009DH   SFRSYM    DATA     BYTE      P1ASF
      00000083H   SFRSYM    DATA     BYTE      DPH
      00000082H   SFRSYM    DATA     BYTE      DPL
      000000C8H.3 SFRSYM    DATA     BIT       EXEN2
      00000098H.4 SFRSYM    DATA     BIT       REN
      000000C8H   SFRSYM    DATA     BYTE      T2CON
      000000B0H.0 SFRSYM    DATA     BIT       RXD
      000000B0H.1 SFRSYM    DATA     BIT       TXD
      000000D0H.5 SFRSYM    DATA     BIT       F0
      000000D0H   SFRSYM    DATA     BYTE      PSW

      01003654H   BLOCK     CODE     ---       LVL=0
      00000006H   SYMBOL    DATA     WORD      n
      01003654H   BLOCK     CODE     NEAR LAB  LVL=1
      00000004H   SYMBOL    DATA     WORD      x
      ---         BLOCKEND  ---      ---       LVL=1
      01003654H   LINE      CODE     ---       #13
      01003654H   LINE      CODE     ---       #14
      01003654H   LINE      CODE     ---       #16
      0100365EH   LINE      CODE     ---       #17
      0100365EH   LINE      CODE     ---       #18
      01003662H   LINE      CODE     ---       #19
      0100366EH   LINE      CODE     ---       #20
      0100366EH   LINE      CODE     ---       #21
      ---         BLOCKEND  ---      ---       LVL=0

      01003760H   BLOCK     CODE     ---       LVL=0
      01003760H   LINE      CODE     ---       #25
      01003760H   LINE      CODE     ---       #26
      01003760H   LINE      CODE     ---       #27
      01003763H   LINE      CODE     ---       #28
      01003766H   LINE      CODE     ---       #29
      01003769H   LINE      CODE     ---       #30
      ---         BLOCKEND  ---      ---       LVL=0

      0100000EH   BLOCK     CODE     ---       LVL=0
      00000007H   SYMBOL    DATA     BYTE      ch
      0100000EH   LINE      CODE     ---       #35
      0100000EH   LINE      CODE     ---       #36
      0100000EH   LINE      CODE     ---       #37
      01000013H   LINE      CODE     ---       #38
      01000014H   LINE      CODE     ---       #39
      01000015H   LINE      CODE     ---       #40
      01000016H   LINE      CODE     ---       #41
      01000017H   LINE      CODE     ---       #42
      0100001CH   LINE      CODE     ---       #43
      0100001FH   LINE      CODE     ---       #45
      01000021H   LINE      CODE     ---       #46
      ---         BLOCKEND  ---      ---       LVL=0

      ---         MODULE    ---      ---       ?C?FPDIV
      01000049H   PUBLIC    CODE     ---       ?C?FPDIV

LX51 LINKER/LOCATER V4.66.97.0                                                        07/05/2021  21:57:21  PAGE 77


      ---         MODULE    ---      ---       ?C?FCAST
      010000F0H   PUBLIC    CODE     ---       ?C?FCASTC
      010000EBH   PUBLIC    CODE     ---       ?C?FCASTI
      010000E6H   PUBLIC    CODE     ---       ?C?FCASTL

      ---         MODULE    ---      ---       ?C?CASTF
      01000124H   PUBLIC    CODE     ---       ?C?CASTF

      ---         MODULE    ---      ---       PRINTF
      0000004EH   PUBLIC    DATA     ---       ?_PRINTF?BYTE
      0000004EH   PUBLIC    DATA     ---       ?_SPRINTF?BYTE
      01000AB5H   PUBLIC    CODE     ---       _PRINTF
      01000AAFH   PUBLIC    CODE     ---       _SPRINTF

      ---         MODULE    ---      ---       ?C?FPGETOPN
      0100015BH   PUBLIC    CODE     ---       ?C?FPGETOPN2
      01000190H   PUBLIC    CODE     ---       ?C?FPNANRESULT
      0100019AH   PUBLIC    CODE     ---       ?C?FPOVERFLOW
      01000172H   PUBLIC    CODE     ---       ?C?FPRESULT
      01000186H   PUBLIC    CODE     ---       ?C?FPRESULT2
      01000197H   PUBLIC    CODE     ---       ?C?FPUNDERFLOW

      ---         MODULE    ---      ---       ?C?FPROUND
      010001A5H   PUBLIC    CODE     ---       ?C?FPROUND

      ---         MODULE    ---      ---       ?C?FPCONVERT
      010001D4H   PUBLIC    CODE     ---       ?C?FPCONVERT

      ---         MODULE    ---      ---       ?C?FPADD
      010002DEH   PUBLIC    CODE     ---       ?C?FPADD
      010002DAH   PUBLIC    CODE     ---       ?C?FPSUB

      ---         MODULE    ---      ---       ?C?FPMUL
      010003CFH   PUBLIC    CODE     ---       ?C?FPMUL

      ---         MODULE    ---      ---       ?C?FTNPWR
      01000505H   PUBLIC    CODE     ---       ?C?FTNPWR

      ---         MODULE    ---      ---       ?C_STARTUP
      01000000H   PUBLIC    CODE     ---       ?C_STARTUP

      ---         MODULE    ---      ---       ?C?COPY
      01000615H   PUBLIC    CODE     ---       ?C?COPY

      ---         MODULE    ---      ---       ?C?CLDPTR
      0100063BH   PUBLIC    CODE     ---       ?C?CLDPTR

      ---         MODULE    ---      ---       ?C?CLDOPTR
      01000654H   PUBLIC    CODE     ---       ?C?CLDOPTR

      ---         MODULE    ---      ---       ?C?CSTPTR
      01000681H   PUBLIC    CODE     ---       ?C?CSTPTR

      ---         MODULE    ---      ---       ?C?CSTOPTR
      01000693H   PUBLIC    CODE     ---       ?C?CSTOPTR

      ---         MODULE    ---      ---       ?C?IMUL
      010006B5H   PUBLIC    CODE     ---       ?C?IMUL

      ---         MODULE    ---      ---       ?C?UIDIV
      010006C7H   PUBLIC    CODE     ---       ?C?UIDIV

      ---         MODULE    ---      ---       ?C?ILDOPTR
      0100071CH   PUBLIC    CODE     ---       ?C?ILDOPTR

LX51 LINKER/LOCATER V4.66.97.0                                                        07/05/2021  21:57:21  PAGE 78


      ---         MODULE    ---      ---       ?C?ISTOPTR
      01000754H   PUBLIC    CODE     ---       ?C?ISTOPTR

      ---         MODULE    ---      ---       ?C?LMUL
      01000781H   PUBLIC    CODE     ---       ?C?LMUL

      ---         MODULE    ---      ---       ?C?ULDIV
      0100080CH   PUBLIC    CODE     ---       ?C?ULDIV

      ---         MODULE    ---      ---       ?C?SLDIV
      01003148H   PUBLIC    CODE     ---       ?C?SLDIV

      ---         MODULE    ---      ---       ?C?LNEG
      0100089EH   PUBLIC    CODE     ---       ?C?LNEG

      ---         MODULE    ---      ---       ?C?SLCMP
      010008ACH   PUBLIC    CODE     ---       ?C?SLCMP

      ---         MODULE    ---      ---       ?C?ULCMP
      010008C2H   PUBLIC    CODE     ---       ?C?ULCMP

      ---         MODULE    ---      ---       ?C?ULSHR
      010008D3H   PUBLIC    CODE     ---       ?C?ULSHR

      ---         MODULE    ---      ---       ?C?SLSHR
      010008E6H   PUBLIC    CODE     ---       ?C?SLSHR

      ---         MODULE    ---      ---       ?C?LSHL
      010008FAH   PUBLIC    CODE     ---       ?C?LSHL

      ---         MODULE    ---      ---       ?C?LSTXDATA
      0100090DH   PUBLIC    CODE     ---       ?C?LSTXDATA

      ---         MODULE    ---      ---       ?C?LSTKXDATA
      01000919H   PUBLIC    CODE     ---       ?C?LSTKXDATA

      ---         MODULE    ---      ---       ?C?OFFXADD
      0100094AH   PUBLIC    CODE     ---       ?C?OFFXADD

      ---         MODULE    ---      ---       ?C?PLDIIDATA
      01000956H   PUBLIC    CODE     ---       ?C?PLDIIDATA

      ---         MODULE    ---      ---       ?C?PLDPTR
      01000966H   PUBLIC    CODE     ---       ?C?PLDPTR

      ---         MODULE    ---      ---       ?C?PSTPTR
      01000986H   PUBLIC    CODE     ---       ?C?PSTPTR

      ---         MODULE    ---      ---       ?C?CCASE
      010009D5H   PUBLIC    CODE     ---       ?C?CCASE

      ---         MODULE    ---      ---       PUTCHAR
      01003547H   PUBLIC    CODE     ---       _PUTCHAR

      ---         MODULE    ---      ---       MALLOC
      01002698H   PUBLIC    CODE     ---       _MALLOC

      ---         MODULE    ---      ---       INIT_MEM
      020003D5H   PUBLIC    XDATA    ---       __MEM_AVAIL__
      0100328EH   PUBLIC    CODE     ---       _INIT_MEMPOOL

      ---         MODULE    ---      ---       FREE
      01002275H   PUBLIC    CODE     ---       _FREE

      ---         MODULE    ---      ---       ?C_INIT
LX51 LINKER/LOCATER V4.66.97.0                                                        07/05/2021  21:57:21  PAGE 79


      010029C6H   PUBLIC    CODE     ---       ?C_START

      ---         MODULE    ---      ---       ?C?IILDX
      010009FBH   PUBLIC    CODE     ---       ?C?IILDX

      ---         MODULE    ---      ---       ?C?PLDIDATA
      01000A11H   PUBLIC    CODE     ---       ?C?PLDIDATA

      ---         MODULE    ---      ---       ?C?PSTIDATA
      01000A1AH   PUBLIC    CODE     ---       ?C?PSTIDATA

      ---         MODULE    ---      ---       ?C?PLDXDATA
      01000A23H   PUBLIC    CODE     ---       ?C?PLDXDATA

      ---         MODULE    ---      ---       ?C?PSTXDATA
      01000A2CH   PUBLIC    CODE     ---       ?C?PSTXDATA

      ---         MODULE    ---      ---       ?C?PLDPDATA
      01000A35H   PUBLIC    CODE     ---       ?C?PLDPDATA

      ---         MODULE    ---      ---       ?C?PSTPDATA
      01000A3EH   PUBLIC    CODE     ---       ?C?PSTPDATA

      ---         MODULE    ---      ---       ?C?PLDCODE
      01000A47H   PUBLIC    CODE     ---       ?C?PLDCODE

Program Size: data=121.5 xdata=989 const=1259 code=14312
LX51 RUN COMPLETE.  0 WARNING(S),  0 ERROR(S)
