LX51 LINKER/LOCATER V4.66.41.0                                                          05/29/2021  13:29:52  PAGE 1


LX51 LINKER/LOCATER V4.66.41.0, INVOKED BY:
E:\C\KEIL\C51\BIN\LX51.EXE .\Objects\main.obj, .\Objects\uart.obj, .\Objects\iic.obj, .\Objects\env.obj, .\Objects\timer
>> .obj, .\Objects\music.obj, .\Objects\key.obj TO .\Objects\123 PRINT (.\Listings\123.map) REMOVEUNUSED


CPU MODE:     8051 MODE
MEMORY MODEL: SMALL WITH FLOATING POINT ARITHMETIC


INPUT MODULES INCLUDED:
  .\Objects\main.obj (MAIN)
         COMMENT TYPE 0: C51 V9.54
  .\Objects\uart.obj (UART)
         COMMENT TYPE 0: C51 V9.54
  .\Objects\iic.obj (IIC)
         COMMENT TYPE 0: C51 V9.54
  .\Objects\env.obj (ENV)
         COMMENT TYPE 0: C51 V9.54
  .\Objects\timer.obj (TIMER)
         COMMENT TYPE 0: C51 V9.54
  .\Objects\music.obj (MUSIC)
         COMMENT TYPE 0: C51 V9.54
  .\Objects\key.obj (KEY)
         COMMENT TYPE 0: C51 V9.54
  E:\C\KEIL\C51\LIB\C51FPS.LIB (?C?FPDIV)
         COMMENT TYPE 1: A51 / ASM51 Assembler
  E:\C\KEIL\C51\LIB\C51FPS.LIB (?C?FCAST)
         COMMENT TYPE 1: A51 / ASM51 Assembler
  E:\C\KEIL\C51\LIB\C51FPS.LIB (?C?CASTF)
         COMMENT TYPE 1: A51 / ASM51 Assembler
  E:\C\KEIL\C51\LIB\C51FPS.LIB (?C?FPGETOPN)
         COMMENT TYPE 1: A51 / ASM51 Assembler
  E:\C\KEIL\C51\LIB\C51S.LIB (?C_STARTUP)
         COMMENT TYPE 1: A51 / ASM51 Assembler
  E:\C\KEIL\C51\LIB\C51S.LIB (?C?CLDOPTR)
         COMMENT TYPE 1: A51 / ASM51 Assembler
  E:\C\KEIL\C51\LIB\C51S.LIB (?C?CSTOPTR)
         COMMENT TYPE 1: A51 / ASM51 Assembler
  E:\C\KEIL\C51\LIB\C51S.LIB (?C?IMUL)
         COMMENT TYPE 1: A51 / ASM51 Assembler
  E:\C\KEIL\C51\LIB\C51S.LIB (?C?UIDIV)
         COMMENT TYPE 1: A51 / ASM51 Assembler
  E:\C\KEIL\C51\LIB\C51S.LIB (?C?ILDOPTR)
         COMMENT TYPE 1: A51 / ASM51 Assembler
  E:\C\KEIL\C51\LIB\C51S.LIB (?C?ISTOPTR)
         COMMENT TYPE 1: A51 / ASM51 Assembler
  E:\C\KEIL\C51\LIB\C51S.LIB (?C?LMUL)
         COMMENT TYPE 1: A51 / ASM51 Assembler
  E:\C\KEIL\C51\LIB\C51S.LIB (?C?ULDIV)
         COMMENT TYPE 1: A51 / ASM51 Assembler
  E:\C\KEIL\C51\LIB\C51S.LIB (?C?SLDIV)
         COMMENT TYPE 1: A51 / ASM51 Assembler
  E:\C\KEIL\C51\LIB\C51S.LIB (?C?LNEG)
         COMMENT TYPE 1: A51 / ASM51 Assembler
  E:\C\KEIL\C51\LIB\C51S.LIB (?C?SLCMP)
         COMMENT TYPE 1: A51 / ASM51 Assembler
  E:\C\KEIL\C51\LIB\C51S.LIB (?C?ULCMP)
         COMMENT TYPE 1: A51 / ASM51 Assembler
  E:\C\KEIL\C51\LIB\C51S.LIB (?C?ULSHR)
         COMMENT TYPE 1: A51 / ASM51 Assembler
  E:\C\KEIL\C51\LIB\C51S.LIB (?C?SLSHR)
         COMMENT TYPE 1: A51 / ASM51 Assembler
  E:\C\KEIL\C51\LIB\C51S.LIB (?C?LSHL)
         COMMENT TYPE 1: A51 / ASM51 Assembler
  E:\C\KEIL\C51\LIB\C51S.LIB (?C?LSTXDATA)
         COMMENT TYPE 1: A51 / ASM51 Assembler
LX51 LINKER/LOCATER V4.66.41.0                                                        05/29/2021  13:29:52  PAGE 2


  E:\C\KEIL\C51\LIB\C51S.LIB (?C?LSTKXDATA)
         COMMENT TYPE 1: A51 / ASM51 Assembler
  E:\C\KEIL\C51\LIB\C51S.LIB (?C?OFFXADD)
         COMMENT TYPE 1: A51 / ASM51 Assembler
  E:\C\KEIL\C51\LIB\C51S.LIB (?C?PLDPTR)
         COMMENT TYPE 1: A51 / ASM51 Assembler
  E:\C\KEIL\C51\LIB\C51S.LIB (?C?PSTPTR)
         COMMENT TYPE 1: A51 / ASM51 Assembler
  E:\C\KEIL\C51\LIB\C51S.LIB (MALLOC)
         COMMENT TYPE 1: C51 Compiler
  E:\C\KEIL\C51\LIB\C51S.LIB (INIT_MEM)
         COMMENT TYPE 1: C51 Compiler
  E:\C\KEIL\C51\LIB\C51S.LIB (FREE)
         COMMENT TYPE 1: C51 Compiler
  E:\C\KEIL\C51\LIB\C51S.LIB (?C_INIT)
         COMMENT TYPE 1: A51 / ASM51 Assembler
  E:\C\KEIL\C51\LIB\C51S.LIB (?C?IILDX)
         COMMENT TYPE 1: A51 / ASM51 Assembler
  E:\C\KEIL\C51\LIB\C51S.LIB (?C?PLDIDATA)
         COMMENT TYPE 1: A51 / ASM51 Assembler
  E:\C\KEIL\C51\LIB\C51S.LIB (?C?PSTIDATA)
         COMMENT TYPE 1: A51 / ASM51 Assembler
  E:\C\KEIL\C51\LIB\C51S.LIB (?C?PLDXDATA)
         COMMENT TYPE 1: A51 / ASM51 Assembler
  E:\C\KEIL\C51\LIB\C51S.LIB (?C?PSTXDATA)
         COMMENT TYPE 1: A51 / ASM51 Assembler
  E:\C\KEIL\C51\LIB\C51S.LIB (?C?PLDPDATA)
         COMMENT TYPE 1: A51 / ASM51 Assembler
  E:\C\KEIL\C51\LIB\C51S.LIB (?C?PSTPDATA)
         COMMENT TYPE 1: A51 / ASM51 Assembler
  E:\C\KEIL\C51\LIB\C51S.LIB (?C?PLDCODE)
         COMMENT TYPE 1: A51 / ASM51 Assembler


ACTIVE MEMORY CLASSES OF MODULE:  .\Objects\123 (MAIN)

BASE        START       END         USED      MEMORY CLASS
==========================================================
C:000000H   C:000000H   C:00FFFFH   0012DDH   CODE
I:000020H.0 I:000020H.0 I:00002FH.7 000001H.2 BIT
I:000000H   I:000000H   I:00007FH   000026H   DATA
X:000000H   X:000000H   X:00FFFFH   0003E8H   XDATA
I:000000H   I:000000H   I:0000FFH   000001H   IDATA


MEMORY MAP OF MODULE:  .\Objects\123 (MAIN)


START     STOP      LENGTH    ALIGN  RELOC    MEMORY CLASS   SEGMENT NAME
=========================================================================

* * * * * * * * * * *   D A T A   M E M O R Y   * * * * * * * * * * * * *
000000H   000007H   000008H   ---    AT..     DATA           "REG BANK 0"
000008H   000014H   00000DH   BYTE   UNIT     DATA           _DATA_GROUP_
000015H   00001AH   000006H   BYTE   UNIT     DATA           ?DT?TIMER
00001BH   00001EH   000004H   BYTE   UNIT     DATA           ?DT?ENV
00001FH   00001FH   000001H   BYTE   UNIT     DATA           ?DT?MAIN
000020H.0 000020H.4 000000H.5 BIT    UNIT     BIT            ?BI?MAIN
000020H.5 000020H.6 000000H.2 BIT    UNIT     BIT            ?BI?TIMER
000020H.7 000021H.0 000000H.2 BIT    UNIT     BIT            ?BI?KEY
000021H.1 000021H.1 000000H.1 BIT    UNIT     BIT            _BIT_GROUP_
000021H.2 000021H   000000H.6 ---    ---      **GAP**
000022H   000025H   000004H   BYTE   UNIT     DATA           ?DT?KEY
000026H   000026H   000001H   BYTE   UNIT     DATA           ?DT?UART
000027H   000027H   000001H   BYTE   UNIT     DATA           ?DT?MUSIC
LX51 LINKER/LOCATER V4.66.41.0                                                        05/29/2021  13:29:52  PAGE 3


000028H   000028H   000001H   BYTE   UNIT     IDATA          ?STACK

* * * * * * * * * * *   C O D E   M E M O R Y   * * * * * * * * * * * * *
000000H   000002H   000003H   ---    OFFS..   CODE           ?CO??C_STARTUP?0
000003H   000006H   000004H   BYTE   UNIT     CODE           ?PR?UART2CLEAR?UART
000007H   000009H   000003H   BYTE   UNIT     CODE           ?CO?UART
00000AH   00000AH   000001H   ---    ---      **GAP**
00000BH   00000DH   000003H   BYTE   OFFS..   CODE           ?TIMER?0000B
00000EH   000019H   00000CH   BYTE   UNIT     CODE           ?PR?UART2SENDEND?UART
00001AH   000022H   000009H   BYTE   UNIT     CODE           ?PR?WAITUART?MAIN
000023H   000025H   000003H   BYTE   OFFS..   CODE           ?MAIN?00023
000026H   00003DH   000018H   BYTE   UNIT     CODE           ?PR?UART2INIT?UART
00003EH   000040H   000003H   BYTE   UNIT     CODE           ?PR?CLOCK_STOP?MUSIC
000041H   000042H   000002H   ---    ---      **GAP**
000043H   000045H   000003H   BYTE   OFFS..   CODE           ?MAIN?00043
000046H   00055BH   000516H   BYTE   UNIT     CODE           ?C?LIB_CODE
00055CH   000727H   0001CCH   BYTE   UNIT     CODE           ?PR?_CHANGETONOWTIME?TIMER
000728H   000863H   00013CH   BYTE   UNIT     CODE           ?CO?MAIN
000864H   00098AH   000127H   BYTE   UNIT     CODE           ?PR?T0_TIME?TIMER
00098BH   000A9BH   000111H   BYTE   UNIT     CODE           ?PR?_PARSECLASS?TIMER
000A9CH   000B9FH   000104H   BYTE   UNIT     CODE           ?PR?_FREE?FREE
000BA0H   000C57H   0000B8H   BYTE   UNIT     CODE           ?PR?TIME0_INIT?TIMER
000C58H   000CF3H   00009CH   BYTE   UNIT     CODE           ?PR?_MALLOC?MALLOC
000CF4H   000D8EH   00009BH   BYTE   UNIT     CODE           ?CO?TIMER
000D8FH   000E1AH   00008CH   BYTE   UNIT     CODE           ?C_INITSEG
000E1BH   000EA6H   00008CH   BYTE   UNIT     CODE           ?C_C51STARTUP
000EA7H   000F31H   00008BH   BYTE   UNIT     CODE           ?PR?_ADDCLOCK?TIMER
000F32H   000FBAH   000089H   BYTE   UNIT     CODE           ?PR?_DELETECLOCK?TIMER
000FBBH   001035H   00007BH   BYTE   UNIT     CODE           ?PR?SCANMATRICKEY?KEY
001036H   00109EH   000069H   BYTE   UNIT     CODE           ?PR?SER?MAIN
00109FH   0010EAH   00004CH   BYTE   UNIT     CODE           ?PR?UART2_ISR?MAIN
0010EBH   001133H   000049H   BYTE   UNIT     CODE           ?PR?_UART2ADDCHAR?UART
001134H   001177H   000044H   BYTE   UNIT     CODE           ?C?LDIV
001178H   0011B3H   00003CH   BYTE   UNIT     CODE           ?PR?_INIT_MEMPOOL?INIT_MEM
0011B4H   0011E6H   000033H   BYTE   UNIT     CODE           ?PR?_DELAY1MS?MAIN
0011E7H   001218H   000032H   BYTE   UNIT     CODE           ?PR?MAIN?MAIN
001219H   001249H   000031H   BYTE   UNIT     CODE           ?PR?UART2SEND?UART
00124AH   001279H   000030H   BYTE   UNIT     CODE           ?PR?_ISRUN?TIMER
00127AH   001290H   000017H   BYTE   UNIT     CODE           ?PR?_ES2?UART
001291H   0012A7H   000017H   BYTE   UNIT     CODE           ?PR?_S2RI?UART
0012A8H   0012BEH   000017H   BYTE   UNIT     CODE           ?PR?_S2TI?UART
0012BFH   0012D4H   000016H   BYTE   UNIT     CODE           ?PR?UARTINIT?UART
0012D5H   0012DFH   00000BH   BYTE   UNIT     CODE           ?PR?DELAY10MS?KEY

* * * * * * * * * * *  X D A T A   M E M O R Y  * * * * * * * * * * * * *
000000H   0002DFH   0002E0H   BYTE   UNIT     XDATA          ?XD?TIMER
0002E0H   00034BH   00006CH   BYTE   UNIT     XDATA          ?XD?UART
00034CH   0003B1H   000066H   BYTE   UNIT     XDATA          ?XD?MAIN
0003B2H   0003DFH   00002EH   BYTE   UNIT     XDATA          ?XD?ENV
0003E0H   0003E7H   000008H   BYTE   UNIT     XDATA          ?XD?INIT_MEM

* * * * * * * * *   R E M O V E D     S E G M E N T S   * * * * * * * *
   *DEL*:           000016H   BYTE   UNIT     CODE           ?PR?SHOWDOORSTATE?MAIN
   *DEL*:           000016H   BYTE   UNIT     CODE           ?PR?SHOWLIGHTSTATE?MAIN
   *DEL*:           00002FH   BYTE   UNIT     CODE           ?PR?SHOWWORK?MAIN
   *DEL*:           000020H   BYTE   UNIT     CODE           ?PR?UARTEVENT?MAIN
   *DEL*:           000067H   BYTE   UNIT     CODE           ?PR?CONNECTSERVICE?MAIN
   *DEL*:           000006H   BYTE   UNIT     CODE           ?PR?CHECKBUSY?MAIN
   *DEL*:           00002AH   BYTE   UNIT     CODE           ?PR?UPDATASENSOR?MAIN
   *DEL*:           000030H   BYTE   UNIT     CODE           ?PR?_UART2ADDCHARLEN?UART
   *DEL*:           000003H   BYTE   UNIT     DATA           ?DT?_UART2ADDCHARLEN?UART
   *DEL*:           000009H   BYTE   UNIT     CODE           ?PR?_UART2SENDCHAR?UART
   *DEL*:           000040H   BYTE   UNIT     CODE           ?PR?_UARTSEND?UART
   *DEL*:           000003H   BYTE   UNIT     DATA           ?DT?_UARTSEND?UART
   *DEL*:           000099H   BYTE   UNIT     CODE           ?PR?_UARTSEND_NUMBER?UART
LX51 LINKER/LOCATER V4.66.41.0                                                        05/29/2021  13:29:52  PAGE 4


   *DEL*:           000011H   BYTE   UNIT     DATA           ?DT?_UARTSEND_NUMBER?UART
   *DEL*:           00007BH   BYTE   UNIT     CODE           ?PR?_STRINCLUDE?UART
   *DEL*:           00000AH   BYTE   UNIT     DATA           ?DT?_STRINCLUDE?UART
   *DEL*:           00013BH   BYTE   UNIT     CODE           ?PR?_NUM_TO_STR?UART
   *DEL*:           00000AH   BYTE   UNIT     DATA           ?DT?_NUM_TO_STR?UART
   *DEL*:           00000FH   BYTE   UNIT     CODE           ?PR?DELAY?IIC
   *DEL*:           00000FH   BYTE   UNIT     CODE           ?PR?START?IIC
   *DEL*:           00000CH   BYTE   UNIT     CODE           ?PR?STOP?IIC
   *DEL*:           00000AH   BYTE   UNIT     CODE           ?PR?REC_RESPONS?IIC
   *DEL*:           00000EH   BYTE   UNIT     CODE           ?PR?SEND_RESPONS?IIC
   *DEL*:           000000H.1 BIT    UNIT     BIT            ?BI?SEND_RESPONS?IIC
   *DEL*:           00000AH   BYTE   UNIT     CODE           ?PR?INIT?IIC
   *DEL*:           000021H   BYTE   UNIT     CODE           ?PR?_WRITE_BYTE?IIC
   *DEL*:           000020H   BYTE   UNIT     CODE           ?PR?READ_BYTE?IIC
   *DEL*:           00002CH   BYTE   UNIT     CODE           ?PR?_DELAY?ENV
   *DEL*:           000118H   BYTE   UNIT     CODE           ?PR?_CONVERSION?ENV
   *DEL*:           000004H   BYTE   UNIT     DATA           ?DT?_CONVERSION?ENV
   *DEL*:           000012H   BYTE   UNIT     CODE           ?PR?_LIGHT_WRITE?ENV
   *DEL*:           000001H   BYTE   UNIT     DATA           ?DT?_LIGHT_WRITE?ENV
   *DEL*:           000011H   BYTE   UNIT     CODE           ?PR?LIGHT_START?ENV
   *DEL*:           00005DH   BYTE   UNIT     CODE           ?PR?LIGHT_READ?ENV
   *DEL*:           000009H   BYTE   UNIT     DATA           ?DT?LIGHT_READ?ENV
   *DEL*:           000045H   BYTE   UNIT     CODE           ?PR?GETLIGHTSTR?ENV
   *DEL*:           000045H   BYTE   UNIT     CODE           ?PR?_PRESS_MULTIPLE_READ?ENV
   *DEL*:           000003H   BYTE   UNIT     DATA           ?DT?_PRESS_MULTIPLE_READ?ENV
   *DEL*:           00001FH   BYTE   UNIT     CODE           ?PR?BMP085READTEMP?ENV
   *DEL*:           000024H   BYTE   UNIT     CODE           ?PR?BMP085READPRESSURE?ENV
   *DEL*:           000090H   BYTE   UNIT     CODE           ?PR?PRESS_INIT?ENV
   *DEL*:           0000CEH   BYTE   UNIT     CODE           ?PR?GET_TEMPERATURE?ENV
   *DEL*:           000010H   BYTE   UNIT     DATA           ?DT?GET_TEMPERATURE?ENV
   *DEL*:           00003DH   BYTE   UNIT     CODE           ?PR?GETTEMPSTR?ENV
   *DEL*:           0002DDH   BYTE   UNIT     CODE           ?PR?GET_PRESSURE?ENV
   *DEL*:           000028H   BYTE   UNIT     DATA           ?DT?GET_PRESSURE?ENV
   *DEL*:           00003DH   BYTE   UNIT     CODE           ?PR?GETPRESSURESTR?ENV
   *DEL*:           000005H   BYTE   UNIT     CODE           ?PR?DELAY30US?ENV
   *DEL*:           00000DH   BYTE   UNIT     CODE           ?PR?DELAY20MS?ENV
   *DEL*:           000084H   BYTE   UNIT     CODE           ?PR?GETDATA?ENV
   *DEL*:           000043H   BYTE   UNIT     CODE           ?PR?GETWETSTR?ENV
   *DEL*:           000048H   BYTE   UNIT     CODE           ?PR?SHOWTEMPERATURE?ENV
   *DEL*:           000038H   BYTE   UNIT     CODE           ?PR?SHOWPRESS?ENV
   *DEL*:           000049H   BYTE   UNIT     CODE           ?PR?SHOWLIGHT?ENV
   *DEL*:           000001H   BYTE   UNIT     DATA           ?DT?SHOWLIGHT?ENV
   *DEL*:           000030H   BYTE   UNIT     CODE           ?PR?SHOWWET?ENV
   *DEL*:           000085H   BYTE   UNIT     CODE           ?CO?ENV
   *DEL*:           000137H   BYTE   UNIT     CODE           ?PR?_TIMETONUM?TIMER
   *DEL*:           00000CH   BYTE   UNIT     DATA           ?DT?_TIMETONUM?TIMER
   *DEL*:           000030H   BYTE   UNIT     CODE           ?PR?TIME_UPDATE?TIMER
   *DEL*:           00009CH   BYTE   UNIT     CODE           ?PR?SHOWCLOCK?TIMER
   *DEL*:           000003H   BYTE   UNIT     DATA           ?DT?SHOWCLOCK?TIMER
   *DEL*:           0000FFH   BYTE   UNIT     CODE           ?PR?CHECKCLOCK?TIMER
   *DEL*:           000004H   BYTE   UNIT     DATA           ?DT?CHECKCLOCK?TIMER
   *DEL*:           0000C6H   BYTE   UNIT     CODE           ?PR?SHOWTIME?TIMER
   *DEL*:           00002CH   BYTE   UNIT     CODE           ?PR?_DELAYS?MUSIC
   *DEL*:           000005H   BYTE   UNIT     CODE           ?PR?MUSIC_INIT?MUSIC
   *DEL*:           000003H   BYTE   UNIT     CODE           ?PR?CLOCK_START?MUSIC
   *DEL*:           00003CH   BYTE   UNIT     CODE           ?PR?_PLAY_ONE?MUSIC
   *DEL*:           000001H   BYTE   UNIT     DATA           ?DT?_PLAY_ONE?MUSIC
   *DEL*:           000046H   BYTE   UNIT     CODE           ?PR?_GETBIT?KEY
   *DEL*:           000028H   BYTE   UNIT     CODE           ?PR?SCANKEY?KEY
   *DEL*:           000000H.1 BIT    UNIT     BIT            ?BI?SCANKEY?KEY



OVERLAY MAP OF MODULE:   .\Objects\123 (MAIN)

LX51 LINKER/LOCATER V4.66.41.0                                                        05/29/2021  13:29:52  PAGE 5



FUNCTION/MODULE                BIT_GROUP   DATA_GROUP 
--> CALLED FUNCTION/MODULE    START  STOP  START  STOP
======================================================
SER/MAIN                      ----- -----  ----- -----

*** NEW ROOT ****************

UART2_ISR/MAIN                ----- -----  ----- -----
  +--> _S2RI/UART

_S2RI/UART                    ----- -----  ----- -----

*** NEW ROOT ****************

T0_TIME/TIMER                 ----- -----  ----- -----
  +--> CLOCK_STOP/MUSIC

CLOCK_STOP/MUSIC              ----- -----  ----- -----

*** NEW ROOT ****************

?C_C51STARTUP                 ----- -----  ----- -----
  +--> MAIN/MAIN
  +--> ?C_INITSEG

MAIN/MAIN                     ----- -----  ----- -----
  +--> TIME0_INIT/TIMER
  +--> UARTINIT/UART
  +--> UART2INIT/UART
  +--> UART2CLEAR/UART
  +--> ?CO?MAIN
  +--> _UART2ADDCHAR/UART
  +--> UART2SENDEND/UART
  +--> _DELAY1MS/MAIN
  +--> SCANMATRICKEY/KEY

TIME0_INIT/TIMER              ----- -----  ----- -----
  +--> _INIT_MEMPOOL/INIT_MEM
  +--> _MALLOC/MALLOC
  +--> _ADDCLOCK/TIMER
  +--> _DELETECLOCK/TIMER
  +--> ?CO?TIMER
  +--> _PARSECLASS/TIMER
  +--> _CHANGETONOWTIME/TIMER

_INIT_MEMPOOL/INIT_MEM        ----- -----  ----- -----

_MALLOC/MALLOC                ----- -----  000FH 0012H

_ADDCLOCK/TIMER               ----- -----  0008H 000EH
  +--> _MALLOC/MALLOC

_DELETECLOCK/TIMER            ----- -----  0008H 000FH
  +--> _FREE/FREE

_FREE/FREE                    ----- -----  0010H 0013H

?CO?TIMER                     ----- -----  ----- -----

_PARSECLASS/TIMER             ----- -----  0008H 000FH

_CHANGETONOWTIME/TIMER        ----- -----  0008H 0014H
  +--> _ISRUN/TIMER

LX51 LINKER/LOCATER V4.66.41.0                                                        05/29/2021  13:29:52  PAGE 6


_ISRUN/TIMER                  ----- -----  ----- -----

UARTINIT/UART                 ----- -----  ----- -----

UART2INIT/UART                ----- -----  ----- -----

UART2CLEAR/UART               ----- -----  ----- -----

?CO?MAIN                      ----- -----  ----- -----

_UART2ADDCHAR/UART            ----- -----  0008H 000AH

UART2SENDEND/UART             ----- -----  ----- -----
  +--> ?CO?UART
  +--> _UART2ADDCHAR/UART
  +--> UART2SEND/UART

?CO?UART                      ----- -----  ----- -----

UART2SEND/UART                ----- -----  ----- -----
  +--> _ES2/UART
  +--> _S2TI/UART
  +--> UART2CLEAR/UART

_ES2/UART                     ----- -----  ----- -----

_S2TI/UART                    ----- -----  ----- -----

_DELAY1MS/MAIN                ----- -----  ----- -----
  +--> WAITUART/MAIN

WAITUART/MAIN                 ----- -----  ----- -----

SCANMATRICKEY/KEY             21H.1 21H.1  ----- -----
  +--> DELAY10MS/KEY

DELAY10MS/KEY                 ----- -----  ----- -----

?C_INITSEG                    ----- -----  ----- -----



PUBLIC SYMBOLS OF MODULE:  .\Objects\123 (MAIN)


      VALUE       CLASS    TYPE      PUBLIC SYMBOL NAME
      =================================================
      00000008H   DATA     BYTE      ?_addClock?BYTE
*DEL*:00000000H   DATA     BYTE      ?_num_to_Str?BYTE
*DEL*:00000000H   DATA     BYTE      ?_strInclude?BYTE
*DEL*:00000000H   DATA     BYTE      ?_timeToNum?BYTE
      01000124H   CODE     ---       ?C?CASTF
      010001A5H   CODE     ---       ?C?CLDOPTR
      00000000H   NUMBER   ---       ?C?CODESEG
      010001D2H   CODE     ---       ?C?CSTOPTR
      010000F0H   CODE     ---       ?C?FCASTC
      010000EBH   CODE     ---       ?C?FCASTI
      010000E6H   CODE     ---       ?C?FCASTL
      01000049H   CODE     ---       ?C?FPDIV
      0100015BH   CODE     ---       ?C?FPGETOPN2
      01000190H   CODE     ---       ?C?FPNANRESULT
      0100019AH   CODE     ---       ?C?FPOVERFLOW
      01000172H   CODE     ---       ?C?FPRESULT
      01000186H   CODE     ---       ?C?FPRESULT2
      01000197H   CODE     ---       ?C?FPUNDERFLOW
LX51 LINKER/LOCATER V4.66.41.0                                                        05/29/2021  13:29:52  PAGE 7


      01000504H   CODE     ---       ?C?IILDX
      0100025BH   CODE     ---       ?C?ILDOPTR
      010001F4H   CODE     ---       ?C?IMUL
      01000293H   CODE     ---       ?C?ISTOPTR
      010002C0H   CODE     ---       ?C?LMUL
      010003DDH   CODE     ---       ?C?LNEG
      01000439H   CODE     ---       ?C?LSHL
      01000458H   CODE     ---       ?C?LSTKXDATA
      0100044CH   CODE     ---       ?C?LSTXDATA
      01000489H   CODE     ---       ?C?OFFXADD
      01000550H   CODE     ---       ?C?PLDCODE
      0100051AH   CODE     ---       ?C?PLDIDATA
      0100053EH   CODE     ---       ?C?PLDPDATA
      01000495H   CODE     ---       ?C?PLDPTR
      0100052CH   CODE     ---       ?C?PLDXDATA
      01000523H   CODE     ---       ?C?PSTIDATA
      01000547H   CODE     ---       ?C?PSTPDATA
      010004B5H   CODE     ---       ?C?PSTPTR
      01000535H   CODE     ---       ?C?PSTXDATA
      010003EBH   CODE     ---       ?C?SLCMP
      01001134H   CODE     ---       ?C?SLDIV
      01000425H   CODE     ---       ?C?SLSHR
      01000206H   CODE     ---       ?C?UIDIV
      01000401H   CODE     ---       ?C?ULCMP
      0100034BH   CODE     ---       ?C?ULDIV
      01000412H   CODE     ---       ?C?ULSHR
      00000000H   NUMBER   ---       ?C?XDATASEG
      01000E62H   CODE     ---       ?C_START
      01000000H   CODE     ---       ?C_STARTUP
*DEL*:00000000H.0 BIT      BIT       ?scanKey?BIT
      00000021H.1 BIT      BIT       ?scanMatricKey?BIT
*DEL*:00000000H.0 BIT      BIT       ?send_respons?BIT
      020003E0H   XDATA    ---       __mem_avail__
      01000EA7H   CODE     ---       _addClock
      0100055CH   CODE     ---       _changeToNowTime
*DEL*:0000000BH   CODE     ---       _conversion
*DEL*:00000000H   CODE     ---       _delay
      010011BBH   CODE     ---       _delay1ms
*DEL*:00000000H   CODE     ---       _delays
      01000F32H   CODE     ---       _deleteClock
      0100127AH   CODE     ---       _ES2
      01000A9CH   CODE     ---       _free
*DEL*:00000008H   CODE     ---       _getBit
      01001178H   CODE     ---       _init_mempool
      01001252H   CODE     ---       _isRun
*DEL*:00000000H   CODE     ---       _light_write
      01000C58H   CODE     ---       _malloc
*DEL*:00000000H   CODE     ---       _num_to_Str
      0100098BH   CODE     ---       _parseClass
*DEL*:00000000H   CODE     ---       _play_one
*DEL*:00000009H   CODE     ---       _press_Multiple_read
      01001291H   CODE     ---       _S2RI
      010012A8H   CODE     ---       _S2TI
*DEL*:00000000H   CODE     ---       _strInclude
*DEL*:00000000H   CODE     ---       _timeToNum
      010010EBH   CODE     ---       _uart2AddChar
*DEL*:00000000H   CODE     ---       _uart2AddCharLen
*DEL*:00000000H   CODE     ---       _uart2SendChar
*DEL*:00000000H   CODE     ---       _uartSend
*DEL*:00000000H   CODE     ---       _uartSend_number
*DEL*:00000000H   CODE     ---       _write_byte
*SFR* 000000D0H.6 DATA     BIT       AC
      020003D4H   XDATA    INT       ac1
      020003D6H   XDATA    INT       ac2
      020003D8H   XDATA    INT       ac3
LX51 LINKER/LOCATER V4.66.41.0                                                        05/29/2021  13:29:52  PAGE 8


      020003DAH   XDATA    WORD      ac4
      020003DCH   XDATA    WORD      ac5
      020003DEH   XDATA    WORD      ac6
*SFR* 000000E0H   DATA     BYTE      ACC
*SFR* 000000BCH   DATA     BYTE      ADC_CONTR
*SFR* 000000BDH   DATA     BYTE      ADC_RES
*SFR* 000000BEH   DATA     BYTE      ADC_RESL
*SFR* 0000008EH   DATA     BYTE      AUXR
*SFR* 000000A2H   DATA     BYTE      AUXR1
*SFR* 000000F0H   DATA     BYTE      B
      020003B7H   XDATA    INT       b1
      020003B9H   XDATA    INT       b2
      020003BCH   XDATA    BYTE      bai
*DEL*:00000000H   CODE     ---       bmp085ReadPressure
*DEL*:00000000H   CODE     ---       bmp085ReadTemp
*SFR* 0000009CH   DATA     BYTE      BRT
*SFR* 000000A1H   DATA     BYTE      BUS_SPEED
      00000020H.2 BIT      BIT       Busy
*SFR* 000000FAH   DATA     BYTE      CCAP0H
*SFR* 000000EAH   DATA     BYTE      CCAP0L
*SFR* 000000FBH   DATA     BYTE      CCAP1H
*SFR* 000000EBH   DATA     BYTE      CCAP1L
*SFR* 000000DAH   DATA     BYTE      CCAPM0
*SFR* 000000DBH   DATA     BYTE      CCAPM1
*SFR* 000000D8H   DATA     BIT       CCF0
*SFR* 000000D8H.1 DATA     BIT       CCF1
*SFR* 000000D8H   DATA     BYTE      CCON
*SFR* 000000D8H.7 DATA     BIT       CF
*SFR* 000000F9H   DATA     BYTE      CH
*DEL*:00000000H   CODE     ---       checkBusy
*DEL*:00000000H   CODE     ---       checkClock
*SFR* 000000E9H   DATA     BYTE      CL
      01000D85H   CODE     ---       class_hour
      01000D8AH   CODE     ---       class_minute
*SFR* 00000097H   DATA     BYTE      CLK_DIV
      00000015H   DATA     ---       clock_head
      00000018H   DATA     ---       clock_last
*DEL*:00000000H   CODE     ---       clock_start
      0100003EH   CODE     ---       clock_stop
*SFR* 000000D9H   DATA     BYTE      CMOD
      020001C9H   XDATA    LONG      cnt
*DEL*:00000000H   CODE     ---       connectService
      020001DAH   XDATA    WORD      count_down_time
*SFR* 000000D8H.6 DATA     BIT       CR
*SFR* 000000D0H.7 DATA     BIT       CY
      020001C7H   XDATA    BYTE      day
*DEL*:00000007H   CODE     ---       delay
      010012D5H   CODE     ---       Delay10ms
*DEL*:00000000H   CODE     ---       Delay20ms
*DEL*:00000000H   CODE     ---       Delay30us
      00000020H.4 BIT      BIT       dFlag
      00000020H.3 BIT      BIT       door
*SFR* 00000083H   DATA     BYTE      DPH
*SFR* 00000082H   DATA     BYTE      DPL
*SFR* 000000A8H.7 DATA     BIT       EA
*SFR* 000000A8H.5 DATA     BIT       EADC
*SFR* 000000A8H.6 DATA     BIT       ELVD
*SFR* 000000A8H.4 DATA     BIT       ES
*SFR* 000000A8H.1 DATA     BIT       ET0
*SFR* 000000A8H.3 DATA     BIT       ET1
*SFR* 000000A8H   DATA     BIT       EX0
*SFR* 000000A8H.2 DATA     BIT       EX1
*SFR* 000000D0H.5 DATA     BIT       F0
      00000020H.1 BIT      BIT       flag
      020003CCH   XDATA    BYTE      ge
LX51 LINKER/LOCATER V4.66.41.0                                                        05/29/2021  13:29:52  PAGE 9


*DEL*:00000000H   CODE     ---       get_pressure
*DEL*:00000000H   CODE     ---       get_temperature
*DEL*:00000000H   CODE     ---       GetData
*DEL*:00000000H   CODE     ---       getLightStr
*DEL*:00000000H   CODE     ---       getPressureStr
*DEL*:00000000H   CODE     ---       getTempStr
*DEL*:00000000H   CODE     ---       getWetStr
      020001C8H   XDATA    BYTE      hour
      00000026H   DATA     BYTE      i2
*SFR* 000000C3H   DATA     BYTE      IAP_ADDRH
*SFR* 000000C4H   DATA     BYTE      IAP_ADDRL
*SFR* 000000C5H   DATA     BYTE      IAP_CMD
*SFR* 000000C7H   DATA     BYTE      IAP_CONTR
*SFR* 000000C2H   DATA     BYTE      IAP_DATA
*SFR* 000000C6H   DATA     BYTE      IAP_TRIG
*SFR* 000000A8H   DATA     BYTE      IE
*SFR* 00000088H.1 DATA     BIT       IE0
*SFR* 00000088H.3 DATA     BIT       IE1
*SFR* 000000AFH   DATA     BYTE      IE2
*DEL*:00000000H   CODE     ---       init
*SFR* 00000080H   DATA     BIT       io1
*SFR* 00000080H.2 DATA     BIT       io2
*SFR* 00000080H.2 DATA     BIT       io3
*SFR* 000000B8H   DATA     BYTE      IP
*SFR* 000000B5H   DATA     BYTE      IP2
*SFR* 000000B7H   DATA     BYTE      IPH
*SFR* 000000B6H   DATA     BYTE      IPH2
*SFR* 00000088H   DATA     BIT       IT0
*SFR* 00000088H.2 DATA     BIT       IT1
      00000022H   DATA     ---       keys
*SFR* 00000090H.1 DATA     BIT       led
*SFR* 00000090H   DATA     BIT       led1
*SFR* 00000090H.5 DATA     BIT       led5
      00000020H.0 BIT      BIT       light
*DEL*:00000000H   CODE     ---       light_read
*DEL*:00000000H   CODE     ---       light_start
      010011E7H   CODE     ---       main
      020003CEH   XDATA    INT       mb
      020003D0H   XDATA    INT       mc
      020003D2H   XDATA    INT       md
      020001E0H   XDATA    ---       mempool
      02000001H   XDATA    BYTE      minute
      02000002H   XDATA    BYTE      month
      020001CDH   XDATA    ---       month_day
*DEL*:00000000H   CODE     ---       music_init
      00000027H   DATA     BYTE      N
      020001DCH   XDATA    LONG      nowTime
*SFR* 000000D0H.2 DATA     BIT       OV
*SFR* 000000D0H   DATA     BIT       P
*SFR* 00000080H   DATA     BYTE      P0
*SFR* 00000080H   DATA     BIT       P00
*SFR* 00000080H.1 DATA     BIT       P01
*SFR* 00000080H.2 DATA     BIT       P02
*SFR* 00000080H.3 DATA     BIT       P03
*SFR* 00000080H.4 DATA     BIT       P04
*SFR* 00000080H.5 DATA     BIT       P05
*SFR* 00000080H.6 DATA     BIT       P06
*SFR* 00000080H.7 DATA     BIT       P07
*SFR* 00000094H   DATA     BYTE      P0M0
*SFR* 00000093H   DATA     BYTE      P0M1
*SFR* 00000090H   DATA     BYTE      P1
*SFR* 00000090H   DATA     BIT       P10
*SFR* 00000090H.1 DATA     BIT       P11
*SFR* 00000090H.2 DATA     BIT       P12
*SFR* 00000090H.3 DATA     BIT       P13
LX51 LINKER/LOCATER V4.66.41.0                                                        05/29/2021  13:29:52  PAGE 10


*SFR* 00000090H.4 DATA     BIT       P14
*SFR* 00000090H.5 DATA     BIT       P15
*SFR* 00000090H.6 DATA     BIT       P16
*SFR* 00000090H.7 DATA     BIT       P17
*SFR* 0000009DH   DATA     BYTE      P1ASF
*SFR* 00000092H   DATA     BYTE      P1M0
*SFR* 00000091H   DATA     BYTE      P1M1
*SFR* 000000A0H   DATA     BYTE      P2
*SFR* 000000A0H   DATA     BIT       P20
*SFR* 000000A0H.1 DATA     BIT       P21
*SFR* 000000A0H.2 DATA     BIT       P22
*SFR* 000000A0H.3 DATA     BIT       P23
*SFR* 000000A0H.4 DATA     BIT       P24
*SFR* 000000A0H.5 DATA     BIT       P25
*SFR* 000000A0H.6 DATA     BIT       P26
*SFR* 000000A0H.7 DATA     BIT       P27
*SFR* 00000096H   DATA     BYTE      P2M0
*SFR* 00000095H   DATA     BYTE      P2M1
*SFR* 000000B0H   DATA     BYTE      P3
*SFR* 000000B0H   DATA     BIT       P30
*SFR* 000000B0H.1 DATA     BIT       P31
*SFR* 000000B0H.2 DATA     BIT       P32
*SFR* 000000B0H.3 DATA     BIT       P33
*SFR* 000000B0H.4 DATA     BIT       P34
*SFR* 000000B0H.5 DATA     BIT       P35
*SFR* 000000B0H.6 DATA     BIT       P36
*SFR* 000000B0H.7 DATA     BIT       P37
*SFR* 000000B2H   DATA     BYTE      P3M0
*SFR* 000000B1H   DATA     BYTE      P3M1
*SFR* 000000C0H   DATA     BYTE      P4
*SFR* 000000C0H   DATA     BIT       P40
*SFR* 000000C0H.1 DATA     BIT       P41
*SFR* 000000C0H.2 DATA     BIT       P42
*SFR* 000000C0H.3 DATA     BIT       P43
*SFR* 000000C0H.4 DATA     BIT       P44
*SFR* 000000C0H.5 DATA     BIT       P45
*SFR* 000000C0H.6 DATA     BIT       P46
*SFR* 000000C0H.7 DATA     BIT       P47
*SFR* 000000B4H   DATA     BYTE      P4M0
*SFR* 000000B3H   DATA     BYTE      P4M1
*SFR* 000000BBH   DATA     BYTE      P4SW
*SFR* 000000C8H   DATA     BYTE      P5
*SFR* 000000C8H   DATA     BIT       P50
*SFR* 000000C8H.1 DATA     BIT       P51
*SFR* 000000C8H.2 DATA     BIT       P52
*SFR* 000000C8H.3 DATA     BIT       P53
*SFR* 000000CAH   DATA     BYTE      P5M0
*SFR* 000000C9H   DATA     BYTE      P5M1
*SFR* 000000B8H.5 DATA     BIT       PADC
*SFR* 000000F2H   DATA     BYTE      PCA_PWM0
*SFR* 000000F3H   DATA     BYTE      PCA_PWM1
*SFR* 00000087H   DATA     BYTE      PCON
*SFR* 000000B8H.6 DATA     BIT       PLVD
      0000001FH   DATA     BYTE      pos
*SFR* 000000B8H.7 DATA     BIT       PPCA
*DEL*:00000000H   CODE     ---       press_init
      020003B2H   XDATA    LONG      pressure
*SFR* 000000B8H.4 DATA     BIT       PS
*SFR* 000000D0H   DATA     BYTE      PSW
*SFR* 000000B8H.1 DATA     BIT       PT0
*SFR* 000000B8H.3 DATA     BIT       PT1
*SFR* 000000B8H   DATA     BIT       PX0
*SFR* 000000B8H.2 DATA     BIT       PX1
      020003BBH   XDATA    BYTE      qian
*SFR* 00000098H.2 DATA     BIT       RB8
LX51 LINKER/LOCATER V4.66.41.0                                                        05/29/2021  13:29:52  PAGE 11


*DEL*:00000000H   CODE     ---       read_byte
*DEL*:00000000H   CODE     ---       rec_respons
      0200034EH   XDATA    ---       receive
*SFR* 00000098H.4 DATA     BIT       REN
      020003C3H   XDATA    ---       res
*SFR* 00000098H   DATA     BIT       RI
*SFR* 000000D0H.3 DATA     BIT       RS0
*SFR* 000000D0H.4 DATA     BIT       RS1
*SFR* 0000009BH   DATA     BYTE      S2BUF
*SFR* 0000009AH   DATA     BYTE      S2CON
*SFR* 000000A9H   DATA     BYTE      SADDR
*SFR* 000000B9H   DATA     BYTE      SADEN
*SFR* 00000099H   DATA     BYTE      SBUF
*DEL*:00000000H   CODE     ---       scanKey
      01000FBBH   CODE     ---       scanMatricKey
*SFR* 000000A0H.1 DATA     BIT       scl
*SFR* 00000098H   DATA     BYTE      SCON
*SFR* 000000A0H   DATA     BIT       sda
      02000000H   XDATA    BYTE      second
*DEL*:00000000H   CODE     ---       send_respons
      00000020H.6 BIT      BIT       sensor_flag
      01001036H   CODE     ---       ser
      020003C1H   XDATA    BYTE      shi
      020003B6H   XDATA    BYTE      shiwan
*DEL*:00000000H   CODE     ---       showClock
*DEL*:00000000H   CODE     ---       showDoorState
*DEL*:00000000H   CODE     ---       showLight
*DEL*:00000000H   CODE     ---       showLightState
*DEL*:00000000H   CODE     ---       showPress
*DEL*:00000000H   CODE     ---       showTemperature
*DEL*:00000000H   CODE     ---       showTime
*DEL*:00000000H   CODE     ---       showWet
*DEL*:00000000H   CODE     ---       showWork
*SFR* 00000098H.7 DATA     BIT       SM0
*SFR* 00000098H.6 DATA     BIT       SM1
*SFR* 00000098H.5 DATA     BIT       SM2
*SFR* 00000081H   DATA     BYTE      SP
*SFR* 000000CEH   DATA     BYTE      SPCTL
*SFR* 000000CFH   DATA     BYTE      SPDAT
*SFR* 000000CDH   DATA     BYTE      SPSTAT
*DEL*:00000000H   CODE     ---       start
*DEL*:00000000H   CODE     ---       stop
      020002E0H   XDATA    ---       strRes
      01000864H   CODE     ---       T0_time
*SFR* 00000098H.3 DATA     BIT       TB8
*SFR* 00000088H   DATA     BYTE      TCON
      0000001BH   DATA     FLOAT     temp
      020003BDH   XDATA    LONG      temperature
*SFR* 00000088H.5 DATA     BIT       TF0
*SFR* 00000088H.7 DATA     BIT       TF1
*SFR* 0000008CH   DATA     BYTE      TH0
*SFR* 0000008DH   DATA     BYTE      TH1
*SFR* 00000098H.1 DATA     BIT       TI
      01000BA0H   CODE     ---       time0_init
*DEL*:00000000H   CODE     ---       time_update
      00000020H.5 BIT      BIT       time_update_flag
      02000005H   XDATA    ---       timetable
*SFR* 0000008AH   DATA     BYTE      TL0
*SFR* 0000008BH   DATA     BYTE      TL1
*SFR* 00000089H   DATA     BYTE      TMOD
*SFR* 00000088H.4 DATA     BIT       TR0
*SFR* 00000088H.6 DATA     BIT       TR1
      0100109FH   CODE     ---       uart2_isr
      01000003H   CODE     ---       uart2Clear
      01000026H   CODE     ---       uart2Init
LX51 LINKER/LOCATER V4.66.41.0                                                        05/29/2021  13:29:52  PAGE 12


      01001219H   CODE     ---       uart2Send
      020002E8H   XDATA    ---       uart2SendData
      0100000EH   CODE     ---       uart2SendEnd
*DEL*:00000000H   CODE     ---       uartEvent
      010012BFH   CODE     ---       uartInit
*DEL*:00000000H   CODE     ---       updataSensor
      0100001AH   CODE     ---       waitUart
*SFR* 0000008FH   DATA     BYTE      WAKE_CLKO
      020003C2H   XDATA    BYTE      wan
*SFR* 000000C1H   DATA     BYTE      WDT_CONTR
      020001D9H   XDATA    BYTE      weekDay
      01000D54H   CODE     ---       weekDays
*SFR* 000000A0H.2 DATA     BIT       wet
      020003CDH   XDATA    BYTE      wet_data
      0200034CH   XDATA    INT       workTime
      02000003H   XDATA    WORD      year



SYMBOL TABLE OF MODULE:  .\Objects\123 (MAIN)

      VALUE       REP       CLASS    TYPE      SYMBOL NAME
      ====================================================
      ---         MODULE    ---      ---       MAIN
      0200034EH   PUBLIC    XDATA    ---       receive
      00000020H.4 PUBLIC    BIT      BIT       dFlag
      0200034CH   PUBLIC    XDATA    INT       workTime
      0000001FH   PUBLIC    DATA     BYTE      pos
      00000020H.3 PUBLIC    BIT      BIT       door
      00000020H.2 PUBLIC    BIT      BIT       Busy
      00000020H.1 PUBLIC    BIT      BIT       flag
      00000020H.0 PUBLIC    BIT      BIT       light
      010011E7H   PUBLIC    CODE     ---       main
      0100109FH   PUBLIC    CODE     ---       uart2_isr
      0100001AH   PUBLIC    CODE     ---       waitUart
      01001036H   PUBLIC    CODE     ---       ser
      010011BBH   PUBLIC    CODE     ---       _delay1ms
      00000092H   SFRSYM    DATA     BYTE      P1M0
      00000093H   SFRSYM    DATA     BYTE      P0M1
      00000096H   SFRSYM    DATA     BYTE      P2M0
      00000091H   SFRSYM    DATA     BYTE      P1M1
      00000080H   SFRSYM    DATA     BYTE      P0
      000000B2H   SFRSYM    DATA     BYTE      P3M0
      00000095H   SFRSYM    DATA     BYTE      P2M1
      00000090H   SFRSYM    DATA     BYTE      P1
      000000B4H   SFRSYM    DATA     BYTE      P4M0
      000000B1H   SFRSYM    DATA     BYTE      P3M1
      000000A0H   SFRSYM    DATA     BYTE      P2
      000000CAH   SFRSYM    DATA     BYTE      P5M0
      000000B3H   SFRSYM    DATA     BYTE      P4M1
      000000B0H   SFRSYM    DATA     BYTE      P3
      000000C9H   SFRSYM    DATA     BYTE      P5M1
      000000C0H   SFRSYM    DATA     BYTE      P4
      000000D0H.6 SFRSYM    DATA     BIT       AC
      000000C8H   SFRSYM    DATA     BYTE      P5
      000000A8H.7 SFRSYM    DATA     BIT       EA
      000000CEH   SFRSYM    DATA     BYTE      SPCTL
      000000D8H.7 SFRSYM    DATA     BIT       CF
      000000F9H   SFRSYM    DATA     BYTE      CH
      000000A8H.5 SFRSYM    DATA     BIT       EADC
      000000A8H   SFRSYM    DATA     BYTE      IE
      000000E9H   SFRSYM    DATA     BYTE      CL
      000000C5H   SFRSYM    DATA     BYTE      IAP_CMD
      000000FAH   SFRSYM    DATA     BYTE      CCAP0H
      000000FBH   SFRSYM    DATA     BYTE      CCAP1H
LX51 LINKER/LOCATER V4.66.41.0                                                        05/29/2021  13:29:52  PAGE 13


      000000BDH   SFRSYM    DATA     BYTE      ADC_RES
      000000B6H   SFRSYM    DATA     BYTE      IPH2
      000000EAH   SFRSYM    DATA     BYTE      CCAP0L
      000000D8H.6 SFRSYM    DATA     BIT       CR
      000000EBH   SFRSYM    DATA     BYTE      CCAP1L
      000000DAH   SFRSYM    DATA     BYTE      CCAPM0
      000000DBH   SFRSYM    DATA     BYTE      CCAPM1
      000000A8H.4 SFRSYM    DATA     BIT       ES
      000000B8H.5 SFRSYM    DATA     BIT       PADC
      000000B8H   SFRSYM    DATA     BYTE      IP
      00000098H   SFRSYM    DATA     BIT       RI
      000000D0H.7 SFRSYM    DATA     BIT       CY
      00000098H.1 SFRSYM    DATA     BIT       TI
      00000097H   SFRSYM    DATA     BYTE      CLK_DIV
      000000C3H   SFRSYM    DATA     BYTE      IAP_ADDRH
      000000B8H.4 SFRSYM    DATA     BIT       PS
      00000081H   SFRSYM    DATA     BYTE      SP
      000000C4H   SFRSYM    DATA     BYTE      IAP_ADDRL
      000000D9H   SFRSYM    DATA     BYTE      CMOD
      000000D8H   SFRSYM    DATA     BYTE      CCON
      000000B8H.7 SFRSYM    DATA     BIT       PPCA
      000000D0H.2 SFRSYM    DATA     BIT       OV
      000000A8H.6 SFRSYM    DATA     BIT       ELVD
      000000BBH   SFRSYM    DATA     BYTE      P4SW
      00000080H   SFRSYM    DATA     BIT       P00
      000000BCH   SFRSYM    DATA     BYTE      ADC_CONTR
      00000099H   SFRSYM    DATA     BYTE      SBUF
      00000090H   SFRSYM    DATA     BIT       P10
      00000080H.1 SFRSYM    DATA     BIT       P01
      00000087H   SFRSYM    DATA     BYTE      PCON
      000000A0H   SFRSYM    DATA     BIT       P20
      00000090H.1 SFRSYM    DATA     BIT       P11
      00000080H.2 SFRSYM    DATA     BIT       P02
      000000B0H   SFRSYM    DATA     BIT       P30
      000000A0H.1 SFRSYM    DATA     BIT       P21
      00000090H.2 SFRSYM    DATA     BIT       P12
      00000080H.3 SFRSYM    DATA     BIT       P03
      00000098H   SFRSYM    DATA     BYTE      SCON
      000000C0H   SFRSYM    DATA     BIT       P40
      000000B0H.1 SFRSYM    DATA     BIT       P31
      000000A0H.2 SFRSYM    DATA     BIT       P22
      00000090H.3 SFRSYM    DATA     BIT       P13
      00000080H.4 SFRSYM    DATA     BIT       P04
      0000008FH   SFRSYM    DATA     BYTE      WAKE_CLKO
      00000089H   SFRSYM    DATA     BYTE      TMOD
      00000088H   SFRSYM    DATA     BYTE      TCON
      000000C8H   SFRSYM    DATA     BIT       P50
      000000C0H.1 SFRSYM    DATA     BIT       P41
      000000B0H.2 SFRSYM    DATA     BIT       P32
      000000A0H.3 SFRSYM    DATA     BIT       P23
      00000090H.4 SFRSYM    DATA     BIT       P14
      00000080H.5 SFRSYM    DATA     BIT       P05
      00000090H.1 SFRSYM    DATA     BIT       led
      000000C8H.1 SFRSYM    DATA     BIT       P51
      000000C0H.2 SFRSYM    DATA     BIT       P42
      000000B0H.3 SFRSYM    DATA     BIT       P33
      000000A0H.4 SFRSYM    DATA     BIT       P24
      00000090H.5 SFRSYM    DATA     BIT       P15
      00000080H.6 SFRSYM    DATA     BIT       P06
      000000C8H.2 SFRSYM    DATA     BIT       P52
      000000C0H.3 SFRSYM    DATA     BIT       P43
      000000B0H.4 SFRSYM    DATA     BIT       P34
      000000A0H.5 SFRSYM    DATA     BIT       P25
      00000090H.6 SFRSYM    DATA     BIT       P16
      00000080H.7 SFRSYM    DATA     BIT       P07
LX51 LINKER/LOCATER V4.66.41.0                                                        05/29/2021  13:29:52  PAGE 14


      000000B8H.6 SFRSYM    DATA     BIT       PLVD
      000000C8H.3 SFRSYM    DATA     BIT       P53
      000000C0H.4 SFRSYM    DATA     BIT       P44
      000000B0H.5 SFRSYM    DATA     BIT       P35
      000000A0H.6 SFRSYM    DATA     BIT       P26
      00000090H.7 SFRSYM    DATA     BIT       P17
      000000C0H.5 SFRSYM    DATA     BIT       P45
      000000B0H.6 SFRSYM    DATA     BIT       P36
      000000A0H.7 SFRSYM    DATA     BIT       P27
      000000C0H.6 SFRSYM    DATA     BIT       P46
      000000B0H.7 SFRSYM    DATA     BIT       P37
      000000C0H.7 SFRSYM    DATA     BIT       P47
      00000088H.1 SFRSYM    DATA     BIT       IE0
      000000A1H   SFRSYM    DATA     BYTE      BUS_SPEED
      00000088H.3 SFRSYM    DATA     BIT       IE1
      000000AFH   SFRSYM    DATA     BYTE      IE2
      0000008EH   SFRSYM    DATA     BYTE      AUXR
      000000F0H   SFRSYM    DATA     BYTE      B
      000000C7H   SFRSYM    DATA     BYTE      IAP_CONTR
      000000E0H   SFRSYM    DATA     BYTE      ACC
      000000A8H.1 SFRSYM    DATA     BIT       ET0
      00000088H.5 SFRSYM    DATA     BIT       TF0
      000000A8H.3 SFRSYM    DATA     BIT       ET1
      00000088H.7 SFRSYM    DATA     BIT       TF1
      000000B5H   SFRSYM    DATA     BYTE      IP2
      00000098H.2 SFRSYM    DATA     BIT       RB8
      0000008CH   SFRSYM    DATA     BYTE      TH0
      0000008DH   SFRSYM    DATA     BYTE      TH1
      00000088H   SFRSYM    DATA     BIT       IT0
      000000A8H   SFRSYM    DATA     BIT       EX0
      00000098H.3 SFRSYM    DATA     BIT       TB8
      00000088H.2 SFRSYM    DATA     BIT       IT1
      000000A8H.2 SFRSYM    DATA     BIT       EX1
      000000D0H   SFRSYM    DATA     BIT       P
      00000098H.7 SFRSYM    DATA     BIT       SM0
      0000008AH   SFRSYM    DATA     BYTE      TL0
      00000098H.6 SFRSYM    DATA     BIT       SM1
      0000008BH   SFRSYM    DATA     BYTE      TL1
      00000098H.5 SFRSYM    DATA     BIT       SM2
      000000B8H.1 SFRSYM    DATA     BIT       PT0
      000000B8H.3 SFRSYM    DATA     BIT       PT1
      000000D0H.3 SFRSYM    DATA     BIT       RS0
      000000C2H   SFRSYM    DATA     BYTE      IAP_DATA
      00000088H.4 SFRSYM    DATA     BIT       TR0
      000000D0H.4 SFRSYM    DATA     BIT       RS1
      00000088H.6 SFRSYM    DATA     BIT       TR1
      000000C1H   SFRSYM    DATA     BYTE      WDT_CONTR
      000000B8H   SFRSYM    DATA     BIT       PX0
      000000B8H.2 SFRSYM    DATA     BIT       PX1
      000000F2H   SFRSYM    DATA     BYTE      PCA_PWM0
      000000F3H   SFRSYM    DATA     BYTE      PCA_PWM1
      0000009DH   SFRSYM    DATA     BYTE      P1ASF
      00000083H   SFRSYM    DATA     BYTE      DPH
      000000BEH   SFRSYM    DATA     BYTE      ADC_RESL
      00000082H   SFRSYM    DATA     BYTE      DPL
      000000CDH   SFRSYM    DATA     BYTE      SPSTAT
      000000B7H   SFRSYM    DATA     BYTE      IPH
      0000009BH   SFRSYM    DATA     BYTE      S2BUF
      00000098H.4 SFRSYM    DATA     BIT       REN
      0000009AH   SFRSYM    DATA     BYTE      S2CON
      0000009CH   SFRSYM    DATA     BYTE      BRT
      00000090H.5 SFRSYM    DATA     BIT       led5
      000000B9H   SFRSYM    DATA     BYTE      SADEN
      000000A9H   SFRSYM    DATA     BYTE      SADDR
      000000C6H   SFRSYM    DATA     BYTE      IAP_TRIG
LX51 LINKER/LOCATER V4.66.41.0                                                        05/29/2021  13:29:52  PAGE 15


      000000A2H   SFRSYM    DATA     BYTE      AUXR1
      000000D0H.5 SFRSYM    DATA     BIT       F0
      000000D0H   SFRSYM    DATA     BYTE      PSW
      000000D8H   SFRSYM    DATA     BIT       CCF0
      000000CFH   SFRSYM    DATA     BYTE      SPDAT
      000000D8H.1 SFRSYM    DATA     BIT       CCF1
      00000094H   SFRSYM    DATA     BYTE      P0M0

      010011B4H   BLOCK     CODE     VOID      LVL=0
      ---         BLOCKEND  ---      ---       LVL=0

      010011BBH   BLOCK     CODE     ---       LVL=0
      00000006H   SYMBOL    DATA     WORD      t
      00000002H   SYMBOL    DATA     WORD      i
      00000082H   SYMBOL    DATA     WORD      j
      00000004H   SYMBOL    DATA     WORD      k
      010011BBH   BLOCK     CODE     NEAR LAB  LVL=1
      00000002H   SYMBOL    DATA     WORD      i
      00000082H   SYMBOL    DATA     WORD      j
      00000004H   SYMBOL    DATA     WORD      k
      ---         BLOCKEND  ---      ---       LVL=1
      010011BBH   LINE      CODE     ---       #22
      010011BBH   LINE      CODE     ---       #23
      010011BBH   LINE      CODE     ---       #25
      010011C5H   LINE      CODE     ---       #26
      010011C8H   LINE      CODE     ---       #27
      010011E6H   LINE      CODE     ---       #28
      ---         BLOCKEND  ---      ---       LVL=0

      01001036H   BLOCK     CODE     ---       LVL=0
      01001045H   BLOCK     CODE     NEAR LAB  LVL=1
      00000007H   SYMBOL    DATA     BYTE      temp
      ---         BLOCKEND  ---      ---       LVL=1
      01001036H   LINE      CODE     ---       #67
      01001045H   LINE      CODE     ---       #70
      01001047H   LINE      CODE     ---       #71
      01001049H   LINE      CODE     ---       #72
      0100104CH   LINE      CODE     ---       #74
      01001053H   LINE      CODE     ---       #75
      01001055H   LINE      CODE     ---       #76
      01001058H   LINE      CODE     ---       #77
      01001058H   LINE      CODE     ---       #78
      0100105BH   LINE      CODE     ---       #79
      0100105DH   LINE      CODE     ---       #80
      0100106DH   LINE      CODE     ---       #81
      01001070H   LINE      CODE     ---       #82
      0100107AH   LINE      CODE     ---       #83
      0100107EH   LINE      CODE     ---       #85
      01001081H   LINE      CODE     ---       #86
      01001083H   LINE      CODE     ---       #87
      01001085H   LINE      CODE     ---       #88
      01001088H   LINE      CODE     ---       #89
      0100108CH   LINE      CODE     ---       #90
      0100108FH   LINE      CODE     ---       #91
      01001092H   LINE      CODE     ---       #92
      01001092H   LINE      CODE     ---       #93
      ---         BLOCKEND  ---      ---       LVL=0

      0100001AH   BLOCK     CODE     ---       LVL=0
      0100001AH   LINE      CODE     ---       #97
      0100001AH   LINE      CODE     ---       #98
      0100001AH   LINE      CODE     ---       #99
      0100001AH   LINE      CODE     ---       #100
      0100001AH   LINE      CODE     ---       #101
      0100001DH   LINE      CODE     ---       #102
LX51 LINKER/LOCATER V4.66.41.0                                                        05/29/2021  13:29:52  PAGE 16


      0100001FH   LINE      CODE     ---       #103
      01000022H   LINE      CODE     ---       #104
      01000022H   LINE      CODE     ---       #105
      01000022H   LINE      CODE     ---       #106
      01000022H   LINE      CODE     ---       #107
      ---         BLOCKEND  ---      ---       LVL=0

      0100109FH   BLOCK     CODE     ---       LVL=0
      0100109FH   LINE      CODE     ---       #144
      010010BCH   LINE      CODE     ---       #146
      010010C4H   LINE      CODE     ---       #147
      010010C4H   LINE      CODE     ---       #148
      010010C9H   LINE      CODE     ---       #149
      010010CEH   LINE      CODE     ---       #150
      010010D0H   LINE      CODE     ---       #153
      010010D0H   LINE      CODE     ---       #154
      ---         BLOCKEND  ---      ---       LVL=0

      010011E7H   BLOCK     CODE     ---       LVL=0
      010011E7H   LINE      CODE     ---       #179
      010011E7H   LINE      CODE     ---       #180
      010011E7H   LINE      CODE     ---       #181
      010011EAH   LINE      CODE     ---       #182
      010011EDH   LINE      CODE     ---       #184
      010011F0H   LINE      CODE     ---       #185
      010011F3H   LINE      CODE     ---       #186
      010011FCH   LINE      CODE     ---       #187
      010011FFH   LINE      CODE     ---       #188
      01001202H   LINE      CODE     ---       #194
      01001205H   LINE      CODE     ---       #196
      01001205H   LINE      CODE     ---       #197
      01001205H   LINE      CODE     ---       #198
      0100120EH   LINE      CODE     ---       #199
      0100120EH   LINE      CODE     ---       #200
      01001210H   LINE      CODE     ---       #201
      01001217H   LINE      CODE     ---       #202
      01001217H   LINE      CODE     ---       #272
      ---         BLOCKEND  ---      ---       LVL=0

      ---         MODULE    ---      ---       UART
      020002E8H   PUBLIC    XDATA    ---       uart2SendData
      00000026H   PUBLIC    DATA     BYTE      i2
      020002E0H   PUBLIC    XDATA    ---       strRes
      010012BFH   PUBLIC    CODE     ---       uartInit
      0100000EH   PUBLIC    CODE     ---       uart2SendEnd
      01001219H   PUBLIC    CODE     ---       uart2Send
      01000003H   PUBLIC    CODE     ---       uart2Clear
      010010EBH   PUBLIC    CODE     ---       _uart2AddChar
      010012A8H   PUBLIC    CODE     ---       _S2TI
      01001291H   PUBLIC    CODE     ---       _S2RI
      0100127AH   PUBLIC    CODE     ---       _ES2
      01000026H   PUBLIC    CODE     ---       uart2Init
      00000092H   SFRSYM    DATA     BYTE      P1M0
      00000093H   SFRSYM    DATA     BYTE      P0M1
      00000096H   SFRSYM    DATA     BYTE      P2M0
      00000091H   SFRSYM    DATA     BYTE      P1M1
      00000080H   SFRSYM    DATA     BYTE      P0
      000000B2H   SFRSYM    DATA     BYTE      P3M0
      00000095H   SFRSYM    DATA     BYTE      P2M1
      00000090H   SFRSYM    DATA     BYTE      P1
      000000B4H   SFRSYM    DATA     BYTE      P4M0
      000000B1H   SFRSYM    DATA     BYTE      P3M1
      000000A0H   SFRSYM    DATA     BYTE      P2
      000000CAH   SFRSYM    DATA     BYTE      P5M0
      000000B3H   SFRSYM    DATA     BYTE      P4M1
LX51 LINKER/LOCATER V4.66.41.0                                                        05/29/2021  13:29:52  PAGE 17


      000000B0H   SFRSYM    DATA     BYTE      P3
      000000C9H   SFRSYM    DATA     BYTE      P5M1
      000000C0H   SFRSYM    DATA     BYTE      P4
      000000D0H.6 SFRSYM    DATA     BIT       AC
      000000C8H   SFRSYM    DATA     BYTE      P5
      000000A8H.7 SFRSYM    DATA     BIT       EA
      000000CEH   SFRSYM    DATA     BYTE      SPCTL
      000000D8H.7 SFRSYM    DATA     BIT       CF
      000000F9H   SFRSYM    DATA     BYTE      CH
      000000A8H.5 SFRSYM    DATA     BIT       EADC
      000000A8H   SFRSYM    DATA     BYTE      IE
      000000E9H   SFRSYM    DATA     BYTE      CL
      000000C5H   SFRSYM    DATA     BYTE      IAP_CMD
      000000FAH   SFRSYM    DATA     BYTE      CCAP0H
      000000FBH   SFRSYM    DATA     BYTE      CCAP1H
      000000BDH   SFRSYM    DATA     BYTE      ADC_RES
      000000B6H   SFRSYM    DATA     BYTE      IPH2
      000000EAH   SFRSYM    DATA     BYTE      CCAP0L
      000000D8H.6 SFRSYM    DATA     BIT       CR
      000000EBH   SFRSYM    DATA     BYTE      CCAP1L
      000000DAH   SFRSYM    DATA     BYTE      CCAPM0
      000000DBH   SFRSYM    DATA     BYTE      CCAPM1
      000000A8H.4 SFRSYM    DATA     BIT       ES
      000000B8H.5 SFRSYM    DATA     BIT       PADC
      000000B8H   SFRSYM    DATA     BYTE      IP
      00000098H   SFRSYM    DATA     BIT       RI
      000000D0H.7 SFRSYM    DATA     BIT       CY
      00000098H.1 SFRSYM    DATA     BIT       TI
      00000097H   SFRSYM    DATA     BYTE      CLK_DIV
      000000C3H   SFRSYM    DATA     BYTE      IAP_ADDRH
      000000B8H.4 SFRSYM    DATA     BIT       PS
      00000081H   SFRSYM    DATA     BYTE      SP
      000000C4H   SFRSYM    DATA     BYTE      IAP_ADDRL
      000000D9H   SFRSYM    DATA     BYTE      CMOD
      000000D8H   SFRSYM    DATA     BYTE      CCON
      000000B8H.7 SFRSYM    DATA     BIT       PPCA
      000000D0H.2 SFRSYM    DATA     BIT       OV
      000000A8H.6 SFRSYM    DATA     BIT       ELVD
      000000BBH   SFRSYM    DATA     BYTE      P4SW
      00000080H   SFRSYM    DATA     BIT       P00
      000000BCH   SFRSYM    DATA     BYTE      ADC_CONTR
      00000099H   SFRSYM    DATA     BYTE      SBUF
      00000090H   SFRSYM    DATA     BIT       P10
      00000080H.1 SFRSYM    DATA     BIT       P01
      00000087H   SFRSYM    DATA     BYTE      PCON
      000000A0H   SFRSYM    DATA     BIT       P20
      00000090H.1 SFRSYM    DATA     BIT       P11
      00000080H.2 SFRSYM    DATA     BIT       P02
      000000B0H   SFRSYM    DATA     BIT       P30
      000000A0H.1 SFRSYM    DATA     BIT       P21
      00000090H.2 SFRSYM    DATA     BIT       P12
      00000080H.3 SFRSYM    DATA     BIT       P03
      00000098H   SFRSYM    DATA     BYTE      SCON
      000000C0H   SFRSYM    DATA     BIT       P40
      000000B0H.1 SFRSYM    DATA     BIT       P31
      000000A0H.2 SFRSYM    DATA     BIT       P22
      00000090H.3 SFRSYM    DATA     BIT       P13
      00000080H.4 SFRSYM    DATA     BIT       P04
      0000008FH   SFRSYM    DATA     BYTE      WAKE_CLKO
      00000089H   SFRSYM    DATA     BYTE      TMOD
      00000088H   SFRSYM    DATA     BYTE      TCON
      000000C8H   SFRSYM    DATA     BIT       P50
      000000C0H.1 SFRSYM    DATA     BIT       P41
      000000B0H.2 SFRSYM    DATA     BIT       P32
      000000A0H.3 SFRSYM    DATA     BIT       P23
LX51 LINKER/LOCATER V4.66.41.0                                                        05/29/2021  13:29:52  PAGE 18


      00000090H.4 SFRSYM    DATA     BIT       P14
      00000080H.5 SFRSYM    DATA     BIT       P05
      000000C8H.1 SFRSYM    DATA     BIT       P51
      000000C0H.2 SFRSYM    DATA     BIT       P42
      000000B0H.3 SFRSYM    DATA     BIT       P33
      000000A0H.4 SFRSYM    DATA     BIT       P24
      00000090H.5 SFRSYM    DATA     BIT       P15
      00000080H.6 SFRSYM    DATA     BIT       P06
      000000C8H.2 SFRSYM    DATA     BIT       P52
      000000C0H.3 SFRSYM    DATA     BIT       P43
      000000B0H.4 SFRSYM    DATA     BIT       P34
      000000A0H.5 SFRSYM    DATA     BIT       P25
      00000090H.6 SFRSYM    DATA     BIT       P16
      00000080H.7 SFRSYM    DATA     BIT       P07
      000000B8H.6 SFRSYM    DATA     BIT       PLVD
      000000C8H.3 SFRSYM    DATA     BIT       P53
      000000C0H.4 SFRSYM    DATA     BIT       P44
      000000B0H.5 SFRSYM    DATA     BIT       P35
      000000A0H.6 SFRSYM    DATA     BIT       P26
      00000090H.7 SFRSYM    DATA     BIT       P17
      000000C0H.5 SFRSYM    DATA     BIT       P45
      000000B0H.6 SFRSYM    DATA     BIT       P36
      000000A0H.7 SFRSYM    DATA     BIT       P27
      000000C0H.6 SFRSYM    DATA     BIT       P46
      000000B0H.7 SFRSYM    DATA     BIT       P37
      000000C0H.7 SFRSYM    DATA     BIT       P47
      00000088H.1 SFRSYM    DATA     BIT       IE0
      000000A1H   SFRSYM    DATA     BYTE      BUS_SPEED
      00000088H.3 SFRSYM    DATA     BIT       IE1
      000000AFH   SFRSYM    DATA     BYTE      IE2
      0000008EH   SFRSYM    DATA     BYTE      AUXR
      000000F0H   SFRSYM    DATA     BYTE      B
      000000C7H   SFRSYM    DATA     BYTE      IAP_CONTR
      000000E0H   SFRSYM    DATA     BYTE      ACC
      000000A8H.1 SFRSYM    DATA     BIT       ET0
      00000088H.5 SFRSYM    DATA     BIT       TF0
      000000A8H.3 SFRSYM    DATA     BIT       ET1
      00000088H.7 SFRSYM    DATA     BIT       TF1
      000000B5H   SFRSYM    DATA     BYTE      IP2
      00000098H.2 SFRSYM    DATA     BIT       RB8
      0000008CH   SFRSYM    DATA     BYTE      TH0
      0000008DH   SFRSYM    DATA     BYTE      TH1
      00000088H   SFRSYM    DATA     BIT       IT0
      000000A8H   SFRSYM    DATA     BIT       EX0
      00000098H.3 SFRSYM    DATA     BIT       TB8
      00000088H.2 SFRSYM    DATA     BIT       IT1
      000000A8H.2 SFRSYM    DATA     BIT       EX1
      000000D0H   SFRSYM    DATA     BIT       P
      00000098H.7 SFRSYM    DATA     BIT       SM0
      0000008AH   SFRSYM    DATA     BYTE      TL0
      00000098H.6 SFRSYM    DATA     BIT       SM1
      0000008BH   SFRSYM    DATA     BYTE      TL1
      00000098H.5 SFRSYM    DATA     BIT       SM2
      000000B8H.1 SFRSYM    DATA     BIT       PT0
      000000B8H.3 SFRSYM    DATA     BIT       PT1
      000000D0H.3 SFRSYM    DATA     BIT       RS0
      000000C2H   SFRSYM    DATA     BYTE      IAP_DATA
      00000088H.4 SFRSYM    DATA     BIT       TR0
      000000D0H.4 SFRSYM    DATA     BIT       RS1
      00000088H.6 SFRSYM    DATA     BIT       TR1
      000000C1H   SFRSYM    DATA     BYTE      WDT_CONTR
      000000B8H   SFRSYM    DATA     BIT       PX0
      000000B8H.2 SFRSYM    DATA     BIT       PX1
      000000F2H   SFRSYM    DATA     BYTE      PCA_PWM0
      000000F3H   SFRSYM    DATA     BYTE      PCA_PWM1
LX51 LINKER/LOCATER V4.66.41.0                                                        05/29/2021  13:29:52  PAGE 19


      0000009DH   SFRSYM    DATA     BYTE      P1ASF
      00000083H   SFRSYM    DATA     BYTE      DPH
      000000BEH   SFRSYM    DATA     BYTE      ADC_RESL
      00000082H   SFRSYM    DATA     BYTE      DPL
      000000CDH   SFRSYM    DATA     BYTE      SPSTAT
      000000B7H   SFRSYM    DATA     BYTE      IPH
      0000009BH   SFRSYM    DATA     BYTE      S2BUF
      00000098H.4 SFRSYM    DATA     BIT       REN
      0000009AH   SFRSYM    DATA     BYTE      S2CON
      0000009CH   SFRSYM    DATA     BYTE      BRT
      000000B9H   SFRSYM    DATA     BYTE      SADEN
      000000A9H   SFRSYM    DATA     BYTE      SADDR
      000000C6H   SFRSYM    DATA     BYTE      IAP_TRIG
      000000A2H   SFRSYM    DATA     BYTE      AUXR1
      000000D0H.5 SFRSYM    DATA     BIT       F0
      000000D0H   SFRSYM    DATA     BYTE      PSW
      000000D8H   SFRSYM    DATA     BIT       CCF0
      000000CFH   SFRSYM    DATA     BYTE      SPDAT
      000000D8H.1 SFRSYM    DATA     BIT       CCF1
      00000094H   SFRSYM    DATA     BYTE      P0M0

      01000026H   BLOCK     CODE     ---       LVL=0
      01000026H   LINE      CODE     ---       #8
      01000026H   LINE      CODE     ---       #9
      01000026H   LINE      CODE     ---       #10
      01000029H   LINE      CODE     ---       #11
      0100002CH   LINE      CODE     ---       #12
      0100002EH   LINE      CODE     ---       #13
      01000030H   LINE      CODE     ---       #14
      01000033H   LINE      CODE     ---       #15
      01000036H   LINE      CODE     ---       #16
      01000038H   LINE      CODE     ---       #17
      0100003AH   LINE      CODE     ---       #18
      0100003DH   LINE      CODE     ---       #19
      ---         BLOCKEND  ---      ---       LVL=0

      0100127AH   BLOCK     CODE     ---       LVL=0
      00000007H   SYMBOL    DATA     CHAR      b
      0100127AH   LINE      CODE     ---       #20
      ---         BLOCKEND  ---      ---       LVL=0

      01001291H   BLOCK     CODE     ---       LVL=0
      00000007H   SYMBOL    DATA     CHAR      b
      01001291H   LINE      CODE     ---       #21
      ---         BLOCKEND  ---      ---       LVL=0

      010012A8H   BLOCK     CODE     ---       LVL=0
      00000007H   SYMBOL    DATA     CHAR      b
      010012A8H   LINE      CODE     ---       #22
      ---         BLOCKEND  ---      ---       LVL=0

      010010EBH   BLOCK     CODE     ---       LVL=0
      00000008H   SYMBOL    DATA     ---       s
      010010F1H   BLOCK     CODE     NEAR LAB  LVL=1
      00000007H   SYMBOL    DATA     BYTE      i
      00000006H   SYMBOL    DATA     BYTE      len
      ---         BLOCKEND  ---      ---       LVL=1
      010010EBH   LINE      CODE     ---       #23
      010010F1H   LINE      CODE     ---       #24
      010010F1H   LINE      CODE     ---       #25
      010010F3H   LINE      CODE     ---       #26
      010010F4H   LINE      CODE     ---       #27
      01001107H   LINE      CODE     ---       #28
      01001111H   LINE      CODE     ---       #29
      01001111H   LINE      CODE     ---       #30
LX51 LINKER/LOCATER V4.66.41.0                                                        05/29/2021  13:29:52  PAGE 20


      01001130H   LINE      CODE     ---       #31
      01001133H   LINE      CODE     ---       #32
      ---         BLOCKEND  ---      ---       LVL=0
      00000005H   SYMBOL    DATA     BYTE      len
      00000007H   SYMBOL    DATA     BYTE      i

      01000003H   BLOCK     CODE     ---       LVL=0
      01000003H   LINE      CODE     ---       #41
      ---         BLOCKEND  ---      ---       LVL=0

      01001219H   BLOCK     CODE     ---       LVL=0
      01001219H   BLOCK     CODE     NEAR LAB  LVL=1
      00000006H   SYMBOL    DATA     BYTE      i
      ---         BLOCKEND  ---      ---       LVL=1
      01001219H   LINE      CODE     ---       #43
      01001219H   LINE      CODE     ---       #44
      01001219H   LINE      CODE     ---       #45
      0100121BH   LINE      CODE     ---       #46
      0100121FH   LINE      CODE     ---       #47
      01001225H   LINE      CODE     ---       #48
      01001225H   LINE      CODE     ---       #49
      01001232H   LINE      CODE     ---       #50
      0100123AH   LINE      CODE     ---       #51
      0100123FH   LINE      CODE     ---       #52
      01001242H   LINE      CODE     ---       #53
      01001247H   LINE      CODE     ---       #54
      ---         BLOCKEND  ---      ---       LVL=0

      0100000EH   BLOCK     CODE     ---       LVL=0
      0100000EH   LINE      CODE     ---       #56
      0100000EH   LINE      CODE     ---       #57
      0100000EH   LINE      CODE     ---       #58
      01000017H   LINE      CODE     ---       #59
      ---         BLOCKEND  ---      ---       LVL=0
      00000001H   SYMBOL    DATA     ---       s

      010012BFH   BLOCK     CODE     ---       LVL=0
      010012BFH   LINE      CODE     ---       #67
      010012BFH   LINE      CODE     ---       #68
      010012BFH   LINE      CODE     ---       #69
      010012C2H   LINE      CODE     ---       #70
      010012C5H   LINE      CODE     ---       #71
      010012C8H   LINE      CODE     ---       #72
      010012CAH   LINE      CODE     ---       #73
      010012CCH   LINE      CODE     ---       #74
      010012CEH   LINE      CODE     ---       #75
      010012D0H   LINE      CODE     ---       #76
      010012D2H   LINE      CODE     ---       #77
      010012D4H   LINE      CODE     ---       #78
      ---         BLOCKEND  ---      ---       LVL=0
      00000006H   SYMBOL    DATA     BYTE      i
      00000007H   SYMBOL    DATA     BYTE      len
      00000007H   SYMBOL    DATA     CHAR      i

      ---         MODULE    ---      ---       IIC
      00000092H   SFRSYM    DATA     BYTE      P1M0
      00000093H   SFRSYM    DATA     BYTE      P0M1
      00000096H   SFRSYM    DATA     BYTE      P2M0
      00000091H   SFRSYM    DATA     BYTE      P1M1
      00000080H   SFRSYM    DATA     BYTE      P0
      000000B2H   SFRSYM    DATA     BYTE      P3M0
      00000095H   SFRSYM    DATA     BYTE      P2M1
      00000090H   SFRSYM    DATA     BYTE      P1
      000000B4H   SFRSYM    DATA     BYTE      P4M0
      000000B1H   SFRSYM    DATA     BYTE      P3M1
LX51 LINKER/LOCATER V4.66.41.0                                                        05/29/2021  13:29:52  PAGE 21


      000000A0H   SFRSYM    DATA     BYTE      P2
      000000CAH   SFRSYM    DATA     BYTE      P5M0
      000000B3H   SFRSYM    DATA     BYTE      P4M1
      000000B0H   SFRSYM    DATA     BYTE      P3
      000000C9H   SFRSYM    DATA     BYTE      P5M1
      000000C0H   SFRSYM    DATA     BYTE      P4
      000000D0H.6 SFRSYM    DATA     BIT       AC
      000000C8H   SFRSYM    DATA     BYTE      P5
      000000A8H.7 SFRSYM    DATA     BIT       EA
      000000CEH   SFRSYM    DATA     BYTE      SPCTL
      000000D8H.7 SFRSYM    DATA     BIT       CF
      000000F9H   SFRSYM    DATA     BYTE      CH
      000000A8H.5 SFRSYM    DATA     BIT       EADC
      000000A8H   SFRSYM    DATA     BYTE      IE
      000000E9H   SFRSYM    DATA     BYTE      CL
      000000C5H   SFRSYM    DATA     BYTE      IAP_CMD
      000000FAH   SFRSYM    DATA     BYTE      CCAP0H
      000000FBH   SFRSYM    DATA     BYTE      CCAP1H
      000000BDH   SFRSYM    DATA     BYTE      ADC_RES
      000000B6H   SFRSYM    DATA     BYTE      IPH2
      000000EAH   SFRSYM    DATA     BYTE      CCAP0L
      000000D8H.6 SFRSYM    DATA     BIT       CR
      000000EBH   SFRSYM    DATA     BYTE      CCAP1L
      000000DAH   SFRSYM    DATA     BYTE      CCAPM0
      000000DBH   SFRSYM    DATA     BYTE      CCAPM1
      000000A8H.4 SFRSYM    DATA     BIT       ES
      000000B8H.5 SFRSYM    DATA     BIT       PADC
      000000B8H   SFRSYM    DATA     BYTE      IP
      00000098H   SFRSYM    DATA     BIT       RI
      000000D0H.7 SFRSYM    DATA     BIT       CY
      00000098H.1 SFRSYM    DATA     BIT       TI
      00000097H   SFRSYM    DATA     BYTE      CLK_DIV
      000000C3H   SFRSYM    DATA     BYTE      IAP_ADDRH
      000000B8H.4 SFRSYM    DATA     BIT       PS
      00000081H   SFRSYM    DATA     BYTE      SP
      000000C4H   SFRSYM    DATA     BYTE      IAP_ADDRL
      000000D9H   SFRSYM    DATA     BYTE      CMOD
      000000D8H   SFRSYM    DATA     BYTE      CCON
      000000B8H.7 SFRSYM    DATA     BIT       PPCA
      000000D0H.2 SFRSYM    DATA     BIT       OV
      000000A8H.6 SFRSYM    DATA     BIT       ELVD
      000000BBH   SFRSYM    DATA     BYTE      P4SW
      00000080H   SFRSYM    DATA     BIT       P00
      000000BCH   SFRSYM    DATA     BYTE      ADC_CONTR
      00000099H   SFRSYM    DATA     BYTE      SBUF
      00000090H   SFRSYM    DATA     BIT       P10
      00000080H.1 SFRSYM    DATA     BIT       P01
      00000087H   SFRSYM    DATA     BYTE      PCON
      000000A0H   SFRSYM    DATA     BIT       P20
      00000090H.1 SFRSYM    DATA     BIT       P11
      00000080H.2 SFRSYM    DATA     BIT       P02
      000000B0H   SFRSYM    DATA     BIT       P30
      000000A0H.1 SFRSYM    DATA     BIT       P21
      00000090H.2 SFRSYM    DATA     BIT       P12
      00000080H.3 SFRSYM    DATA     BIT       P03
      00000098H   SFRSYM    DATA     BYTE      SCON
      000000C0H   SFRSYM    DATA     BIT       P40
      000000B0H.1 SFRSYM    DATA     BIT       P31
      000000A0H.2 SFRSYM    DATA     BIT       P22
      00000090H.3 SFRSYM    DATA     BIT       P13
      00000080H.4 SFRSYM    DATA     BIT       P04
      0000008FH   SFRSYM    DATA     BYTE      WAKE_CLKO
      00000089H   SFRSYM    DATA     BYTE      TMOD
      00000088H   SFRSYM    DATA     BYTE      TCON
      000000C8H   SFRSYM    DATA     BIT       P50
LX51 LINKER/LOCATER V4.66.41.0                                                        05/29/2021  13:29:52  PAGE 22


      000000C0H.1 SFRSYM    DATA     BIT       P41
      000000B0H.2 SFRSYM    DATA     BIT       P32
      000000A0H.3 SFRSYM    DATA     BIT       P23
      00000090H.4 SFRSYM    DATA     BIT       P14
      00000080H.5 SFRSYM    DATA     BIT       P05
      000000C8H.1 SFRSYM    DATA     BIT       P51
      000000C0H.2 SFRSYM    DATA     BIT       P42
      000000B0H.3 SFRSYM    DATA     BIT       P33
      000000A0H.4 SFRSYM    DATA     BIT       P24
      00000090H.5 SFRSYM    DATA     BIT       P15
      00000080H.6 SFRSYM    DATA     BIT       P06
      000000C8H.2 SFRSYM    DATA     BIT       P52
      000000C0H.3 SFRSYM    DATA     BIT       P43
      000000B0H.4 SFRSYM    DATA     BIT       P34
      000000A0H.5 SFRSYM    DATA     BIT       P25
      00000090H.6 SFRSYM    DATA     BIT       P16
      00000080H.7 SFRSYM    DATA     BIT       P07
      000000B8H.6 SFRSYM    DATA     BIT       PLVD
      000000C8H.3 SFRSYM    DATA     BIT       P53
      000000C0H.4 SFRSYM    DATA     BIT       P44
      000000B0H.5 SFRSYM    DATA     BIT       P35
      000000A0H.6 SFRSYM    DATA     BIT       P26
      00000090H.7 SFRSYM    DATA     BIT       P17
      000000A0H   SFRSYM    DATA     BIT       sda
      000000C0H.5 SFRSYM    DATA     BIT       P45
      000000B0H.6 SFRSYM    DATA     BIT       P36
      000000A0H.7 SFRSYM    DATA     BIT       P27
      000000C0H.6 SFRSYM    DATA     BIT       P46
      000000B0H.7 SFRSYM    DATA     BIT       P37
      000000C0H.7 SFRSYM    DATA     BIT       P47
      00000088H.1 SFRSYM    DATA     BIT       IE0
      000000A1H   SFRSYM    DATA     BYTE      BUS_SPEED
      00000088H.3 SFRSYM    DATA     BIT       IE1
      000000AFH   SFRSYM    DATA     BYTE      IE2
      0000008EH   SFRSYM    DATA     BYTE      AUXR
      000000F0H   SFRSYM    DATA     BYTE      B
      000000A0H.1 SFRSYM    DATA     BIT       scl
      000000C7H   SFRSYM    DATA     BYTE      IAP_CONTR
      000000E0H   SFRSYM    DATA     BYTE      ACC
      000000A8H.1 SFRSYM    DATA     BIT       ET0
      00000088H.5 SFRSYM    DATA     BIT       TF0
      000000A8H.3 SFRSYM    DATA     BIT       ET1
      00000088H.7 SFRSYM    DATA     BIT       TF1
      000000B5H   SFRSYM    DATA     BYTE      IP2
      00000098H.2 SFRSYM    DATA     BIT       RB8
      0000008CH   SFRSYM    DATA     BYTE      TH0
      0000008DH   SFRSYM    DATA     BYTE      TH1
      00000088H   SFRSYM    DATA     BIT       IT0
      000000A8H   SFRSYM    DATA     BIT       EX0
      00000098H.3 SFRSYM    DATA     BIT       TB8
      00000088H.2 SFRSYM    DATA     BIT       IT1
      000000A8H.2 SFRSYM    DATA     BIT       EX1
      000000D0H   SFRSYM    DATA     BIT       P
      00000098H.7 SFRSYM    DATA     BIT       SM0
      0000008AH   SFRSYM    DATA     BYTE      TL0
      00000098H.6 SFRSYM    DATA     BIT       SM1
      0000008BH   SFRSYM    DATA     BYTE      TL1
      00000098H.5 SFRSYM    DATA     BIT       SM2
      000000B8H.1 SFRSYM    DATA     BIT       PT0
      000000B8H.3 SFRSYM    DATA     BIT       PT1
      000000D0H.3 SFRSYM    DATA     BIT       RS0
      000000C2H   SFRSYM    DATA     BYTE      IAP_DATA
      00000088H.4 SFRSYM    DATA     BIT       TR0
      000000D0H.4 SFRSYM    DATA     BIT       RS1
      00000088H.6 SFRSYM    DATA     BIT       TR1
LX51 LINKER/LOCATER V4.66.41.0                                                        05/29/2021  13:29:52  PAGE 23


      000000C1H   SFRSYM    DATA     BYTE      WDT_CONTR
      000000B8H   SFRSYM    DATA     BIT       PX0
      000000B8H.2 SFRSYM    DATA     BIT       PX1
      000000F2H   SFRSYM    DATA     BYTE      PCA_PWM0
      000000F3H   SFRSYM    DATA     BYTE      PCA_PWM1
      0000009DH   SFRSYM    DATA     BYTE      P1ASF
      00000083H   SFRSYM    DATA     BYTE      DPH
      000000BEH   SFRSYM    DATA     BYTE      ADC_RESL
      00000082H   SFRSYM    DATA     BYTE      DPL
      000000CDH   SFRSYM    DATA     BYTE      SPSTAT
      000000B7H   SFRSYM    DATA     BYTE      IPH
      0000009BH   SFRSYM    DATA     BYTE      S2BUF
      00000098H.4 SFRSYM    DATA     BIT       REN
      0000009AH   SFRSYM    DATA     BYTE      S2CON
      0000009CH   SFRSYM    DATA     BYTE      BRT
      000000B9H   SFRSYM    DATA     BYTE      SADEN
      000000A9H   SFRSYM    DATA     BYTE      SADDR
      000000C6H   SFRSYM    DATA     BYTE      IAP_TRIG
      000000A2H   SFRSYM    DATA     BYTE      AUXR1
      000000D0H.5 SFRSYM    DATA     BIT       F0
      000000D0H   SFRSYM    DATA     BYTE      PSW
      000000D8H   SFRSYM    DATA     BIT       CCF0
      000000CFH   SFRSYM    DATA     BYTE      SPDAT
      000000D8H.1 SFRSYM    DATA     BIT       CCF1
      00000094H   SFRSYM    DATA     BYTE      P0M0
      00000007H   SYMBOL    DATA     BYTE      i
      00000007H   SYMBOL    DATA     BYTE      i
      00000007H   SYMBOL    DATA     BYTE      date
      00000005H   SYMBOL    DATA     BYTE      i
      00000006H   SYMBOL    DATA     BYTE      temp
      00000005H   SYMBOL    DATA     BYTE      i
      00000006H   SYMBOL    DATA     BYTE      k

      ---         MODULE    ---      ---       ENV
      020003DEH   PUBLIC    XDATA    WORD      ac6
      020003DCH   PUBLIC    XDATA    WORD      ac5
      020003DAH   PUBLIC    XDATA    WORD      ac4
      020003D8H   PUBLIC    XDATA    INT       ac3
      020003D6H   PUBLIC    XDATA    INT       ac2
      020003D4H   PUBLIC    XDATA    INT       ac1
      020003D2H   PUBLIC    XDATA    INT       md
      020003D0H   PUBLIC    XDATA    INT       mc
      020003CEH   PUBLIC    XDATA    INT       mb
      020003CDH   PUBLIC    XDATA    BYTE      wet_data
      020003CCH   PUBLIC    XDATA    BYTE      ge
      020003C3H   PUBLIC    XDATA    ---       res
      020003C2H   PUBLIC    XDATA    BYTE      wan
      020003C1H   PUBLIC    XDATA    BYTE      shi
      0000001BH   PUBLIC    DATA     FLOAT     temp
      020003BDH   PUBLIC    XDATA    LONG      temperature
      020003BCH   PUBLIC    XDATA    BYTE      bai
      020003BBH   PUBLIC    XDATA    BYTE      qian
      020003B9H   PUBLIC    XDATA    INT       b2
      020003B7H   PUBLIC    XDATA    INT       b1
      020003B6H   PUBLIC    XDATA    BYTE      shiwan
      020003B2H   PUBLIC    XDATA    LONG      pressure
      00000092H   SFRSYM    DATA     BYTE      P1M0
      00000093H   SFRSYM    DATA     BYTE      P0M1
      00000096H   SFRSYM    DATA     BYTE      P2M0
      00000091H   SFRSYM    DATA     BYTE      P1M1
      00000080H   SFRSYM    DATA     BYTE      P0
      000000B2H   SFRSYM    DATA     BYTE      P3M0
      00000095H   SFRSYM    DATA     BYTE      P2M1
      00000090H   SFRSYM    DATA     BYTE      P1
      000000B4H   SFRSYM    DATA     BYTE      P4M0
LX51 LINKER/LOCATER V4.66.41.0                                                        05/29/2021  13:29:52  PAGE 24


      000000B1H   SFRSYM    DATA     BYTE      P3M1
      000000A0H   SFRSYM    DATA     BYTE      P2
      000000CAH   SFRSYM    DATA     BYTE      P5M0
      000000B3H   SFRSYM    DATA     BYTE      P4M1
      000000B0H   SFRSYM    DATA     BYTE      P3
      000000C9H   SFRSYM    DATA     BYTE      P5M1
      000000C0H   SFRSYM    DATA     BYTE      P4
      000000D0H.6 SFRSYM    DATA     BIT       AC
      000000C8H   SFRSYM    DATA     BYTE      P5
      000000A8H.7 SFRSYM    DATA     BIT       EA
      000000CEH   SFRSYM    DATA     BYTE      SPCTL
      000000D8H.7 SFRSYM    DATA     BIT       CF
      000000F9H   SFRSYM    DATA     BYTE      CH
      000000A8H.5 SFRSYM    DATA     BIT       EADC
      000000A8H   SFRSYM    DATA     BYTE      IE
      000000E9H   SFRSYM    DATA     BYTE      CL
      000000C5H   SFRSYM    DATA     BYTE      IAP_CMD
      000000FAH   SFRSYM    DATA     BYTE      CCAP0H
      000000FBH   SFRSYM    DATA     BYTE      CCAP1H
      000000BDH   SFRSYM    DATA     BYTE      ADC_RES
      000000B6H   SFRSYM    DATA     BYTE      IPH2
      000000EAH   SFRSYM    DATA     BYTE      CCAP0L
      000000D8H.6 SFRSYM    DATA     BIT       CR
      000000EBH   SFRSYM    DATA     BYTE      CCAP1L
      000000DAH   SFRSYM    DATA     BYTE      CCAPM0
      000000DBH   SFRSYM    DATA     BYTE      CCAPM1
      000000A8H.4 SFRSYM    DATA     BIT       ES
      000000B8H.5 SFRSYM    DATA     BIT       PADC
      000000B8H   SFRSYM    DATA     BYTE      IP
      00000098H   SFRSYM    DATA     BIT       RI
      000000D0H.7 SFRSYM    DATA     BIT       CY
      00000098H.1 SFRSYM    DATA     BIT       TI
      00000097H   SFRSYM    DATA     BYTE      CLK_DIV
      000000C3H   SFRSYM    DATA     BYTE      IAP_ADDRH
      000000B8H.4 SFRSYM    DATA     BIT       PS
      00000081H   SFRSYM    DATA     BYTE      SP
      000000C4H   SFRSYM    DATA     BYTE      IAP_ADDRL
      000000D9H   SFRSYM    DATA     BYTE      CMOD
      000000D8H   SFRSYM    DATA     BYTE      CCON
      000000B8H.7 SFRSYM    DATA     BIT       PPCA
      000000D0H.2 SFRSYM    DATA     BIT       OV
      000000A8H.6 SFRSYM    DATA     BIT       ELVD
      000000BBH   SFRSYM    DATA     BYTE      P4SW
      00000080H   SFRSYM    DATA     BIT       P00
      000000BCH   SFRSYM    DATA     BYTE      ADC_CONTR
      00000099H   SFRSYM    DATA     BYTE      SBUF
      00000090H   SFRSYM    DATA     BIT       P10
      00000080H.1 SFRSYM    DATA     BIT       P01
      00000087H   SFRSYM    DATA     BYTE      PCON
      000000A0H   SFRSYM    DATA     BIT       P20
      00000090H.1 SFRSYM    DATA     BIT       P11
      00000080H.2 SFRSYM    DATA     BIT       P02
      000000B0H   SFRSYM    DATA     BIT       P30
      000000A0H.1 SFRSYM    DATA     BIT       P21
      00000090H.2 SFRSYM    DATA     BIT       P12
      00000080H.3 SFRSYM    DATA     BIT       P03
      00000098H   SFRSYM    DATA     BYTE      SCON
      000000C0H   SFRSYM    DATA     BIT       P40
      000000B0H.1 SFRSYM    DATA     BIT       P31
      000000A0H.2 SFRSYM    DATA     BIT       P22
      00000090H.3 SFRSYM    DATA     BIT       P13
      00000080H.4 SFRSYM    DATA     BIT       P04
      0000008FH   SFRSYM    DATA     BYTE      WAKE_CLKO
      00000089H   SFRSYM    DATA     BYTE      TMOD
      00000088H   SFRSYM    DATA     BYTE      TCON
LX51 LINKER/LOCATER V4.66.41.0                                                        05/29/2021  13:29:52  PAGE 25


      000000C8H   SFRSYM    DATA     BIT       P50
      000000C0H.1 SFRSYM    DATA     BIT       P41
      000000B0H.2 SFRSYM    DATA     BIT       P32
      000000A0H.3 SFRSYM    DATA     BIT       P23
      00000090H.4 SFRSYM    DATA     BIT       P14
      00000080H.5 SFRSYM    DATA     BIT       P05
      000000C8H.1 SFRSYM    DATA     BIT       P51
      000000C0H.2 SFRSYM    DATA     BIT       P42
      000000B0H.3 SFRSYM    DATA     BIT       P33
      000000A0H.4 SFRSYM    DATA     BIT       P24
      00000090H.5 SFRSYM    DATA     BIT       P15
      00000080H.6 SFRSYM    DATA     BIT       P06
      000000C8H.2 SFRSYM    DATA     BIT       P52
      000000C0H.3 SFRSYM    DATA     BIT       P43
      000000B0H.4 SFRSYM    DATA     BIT       P34
      000000A0H.5 SFRSYM    DATA     BIT       P25
      00000090H.6 SFRSYM    DATA     BIT       P16
      00000080H.7 SFRSYM    DATA     BIT       P07
      000000B8H.6 SFRSYM    DATA     BIT       PLVD
      000000C8H.3 SFRSYM    DATA     BIT       P53
      000000C0H.4 SFRSYM    DATA     BIT       P44
      000000B0H.5 SFRSYM    DATA     BIT       P35
      000000A0H.6 SFRSYM    DATA     BIT       P26
      00000090H.7 SFRSYM    DATA     BIT       P17
      000000C0H.5 SFRSYM    DATA     BIT       P45
      000000B0H.6 SFRSYM    DATA     BIT       P36
      000000A0H.7 SFRSYM    DATA     BIT       P27
      000000C0H.6 SFRSYM    DATA     BIT       P46
      000000B0H.7 SFRSYM    DATA     BIT       P37
      000000C0H.7 SFRSYM    DATA     BIT       P47
      00000088H.1 SFRSYM    DATA     BIT       IE0
      000000A1H   SFRSYM    DATA     BYTE      BUS_SPEED
      00000088H.3 SFRSYM    DATA     BIT       IE1
      000000AFH   SFRSYM    DATA     BYTE      IE2
      0000008EH   SFRSYM    DATA     BYTE      AUXR
      000000F0H   SFRSYM    DATA     BYTE      B
      000000C7H   SFRSYM    DATA     BYTE      IAP_CONTR
      000000E0H   SFRSYM    DATA     BYTE      ACC
      000000A8H.1 SFRSYM    DATA     BIT       ET0
      00000088H.5 SFRSYM    DATA     BIT       TF0
      000000A8H.3 SFRSYM    DATA     BIT       ET1
      00000088H.7 SFRSYM    DATA     BIT       TF1
      000000B5H   SFRSYM    DATA     BYTE      IP2
      00000098H.2 SFRSYM    DATA     BIT       RB8
      0000008CH   SFRSYM    DATA     BYTE      TH0
      0000008DH   SFRSYM    DATA     BYTE      TH1
      00000088H   SFRSYM    DATA     BIT       IT0
      000000A8H   SFRSYM    DATA     BIT       EX0
      00000098H.3 SFRSYM    DATA     BIT       TB8
      00000088H.2 SFRSYM    DATA     BIT       IT1
      000000A8H.2 SFRSYM    DATA     BIT       EX1
      000000D0H   SFRSYM    DATA     BIT       P
      00000098H.7 SFRSYM    DATA     BIT       SM0
      0000008AH   SFRSYM    DATA     BYTE      TL0
      000000A0H.2 SFRSYM    DATA     BIT       wet
      00000098H.6 SFRSYM    DATA     BIT       SM1
      0000008BH   SFRSYM    DATA     BYTE      TL1
      00000098H.5 SFRSYM    DATA     BIT       SM2
      000000B8H.1 SFRSYM    DATA     BIT       PT0
      000000B8H.3 SFRSYM    DATA     BIT       PT1
      000000D0H.3 SFRSYM    DATA     BIT       RS0
      000000C2H   SFRSYM    DATA     BYTE      IAP_DATA
      00000088H.4 SFRSYM    DATA     BIT       TR0
      000000D0H.4 SFRSYM    DATA     BIT       RS1
      00000088H.6 SFRSYM    DATA     BIT       TR1
LX51 LINKER/LOCATER V4.66.41.0                                                        05/29/2021  13:29:52  PAGE 26


      000000C1H   SFRSYM    DATA     BYTE      WDT_CONTR
      000000B8H   SFRSYM    DATA     BIT       PX0
      000000B8H.2 SFRSYM    DATA     BIT       PX1
      000000F2H   SFRSYM    DATA     BYTE      PCA_PWM0
      000000F3H   SFRSYM    DATA     BYTE      PCA_PWM1
      0000009DH   SFRSYM    DATA     BYTE      P1ASF
      00000083H   SFRSYM    DATA     BYTE      DPH
      000000BEH   SFRSYM    DATA     BYTE      ADC_RESL
      00000082H   SFRSYM    DATA     BYTE      DPL
      000000CDH   SFRSYM    DATA     BYTE      SPSTAT
      000000B7H   SFRSYM    DATA     BYTE      IPH
      0000009BH   SFRSYM    DATA     BYTE      S2BUF
      00000098H.4 SFRSYM    DATA     BIT       REN
      0000009AH   SFRSYM    DATA     BYTE      S2CON
      0000009CH   SFRSYM    DATA     BYTE      BRT
      000000B9H   SFRSYM    DATA     BYTE      SADEN
      000000A9H   SFRSYM    DATA     BYTE      SADDR
      000000C6H   SFRSYM    DATA     BYTE      IAP_TRIG
      000000A2H   SFRSYM    DATA     BYTE      AUXR1
      000000D0H.5 SFRSYM    DATA     BIT       F0
      000000D0H   SFRSYM    DATA     BYTE      PSW
      000000D8H   SFRSYM    DATA     BIT       CCF0
      000000CFH   SFRSYM    DATA     BYTE      SPDAT
      000000D8H.1 SFRSYM    DATA     BIT       CCF1
      00000094H   SFRSYM    DATA     BYTE      P0M0
      00000006H   SYMBOL    DATA     WORD      t
      00000002H   SYMBOL    DATA     WORD      i
      00000082H   SYMBOL    DATA     WORD      j
      00000004H   SYMBOL    DATA     WORD      k
      00000006H   SYMBOL    DATA     INT       dis_data
      00000006H   SYMBOL    DATA     INT       _data
      00000006H   SYMBOL    DATA     INT       _data
      00000004H   SYMBOL    DATA     LONG      pressure
      00000007H   SYMBOL    DATA     BYTE      i
      00000007H   SYMBOL    DATA     BYTE      i
      00000006H   SYMBOL    DATA     BYTE      j
      00000005H   SYMBOL    DATA     BYTE      k
      00000005H   SYMBOL    DATA     BYTE      i
      00000006H   SYMBOL    DATA     BYTE      j
      00000007H   SYMBOL    DATA     BYTE      t
      00000004H   SYMBOL    DATA     BYTE      dat8

      ---         MODULE    ---      ---       TIMER
      020001E0H   PUBLIC    XDATA    ---       mempool
      020001DCH   PUBLIC    XDATA    LONG      nowTime
      020001DAH   PUBLIC    XDATA    WORD      count_down_time
      020001D9H   PUBLIC    XDATA    BYTE      weekDay
      020001CDH   PUBLIC    XDATA    ---       month_day
      020001C9H   PUBLIC    XDATA    LONG      cnt
      020001C8H   PUBLIC    XDATA    BYTE      hour
      020001C7H   PUBLIC    XDATA    BYTE      day
      02000005H   PUBLIC    XDATA    ---       timetable
      02000003H   PUBLIC    XDATA    WORD      year
      02000002H   PUBLIC    XDATA    BYTE      month
      00000018H   PUBLIC    DATA     ---       clock_last
      00000020H.6 PUBLIC    BIT      BIT       sensor_flag
      00000020H.5 PUBLIC    BIT      BIT       time_update_flag
      02000001H   PUBLIC    XDATA    BYTE      minute
      00000015H   PUBLIC    DATA     ---       clock_head
      02000000H   PUBLIC    XDATA    BYTE      second
      01000D8AH   PUBLIC    CODE     ---       class_minute
      01000D85H   PUBLIC    CODE     ---       class_hour
      01000D54H   PUBLIC    CODE     ---       weekDays
      0100098BH   PUBLIC    CODE     ---       _parseClass
      01000F32H   PUBLIC    CODE     ---       _deleteClock
LX51 LINKER/LOCATER V4.66.41.0                                                        05/29/2021  13:29:52  PAGE 27


      00000008H   PUBLIC    DATA     BYTE      ?_addClock?BYTE
      01000EA7H   PUBLIC    CODE     ---       _addClock
      0100055CH   PUBLIC    CODE     ---       _changeToNowTime
      01001252H   PUBLIC    CODE     ---       _isRun
      01000864H   PUBLIC    CODE     ---       T0_time
      01000BA0H   PUBLIC    CODE     ---       time0_init
      00000092H   SFRSYM    DATA     BYTE      P1M0
      00000093H   SFRSYM    DATA     BYTE      P0M1
      00000096H   SFRSYM    DATA     BYTE      P2M0
      00000091H   SFRSYM    DATA     BYTE      P1M1
      00000080H   SFRSYM    DATA     BYTE      P0
      000000B2H   SFRSYM    DATA     BYTE      P3M0
      00000095H   SFRSYM    DATA     BYTE      P2M1
      00000090H   SFRSYM    DATA     BYTE      P1
      000000B4H   SFRSYM    DATA     BYTE      P4M0
      000000B1H   SFRSYM    DATA     BYTE      P3M1
      000000A0H   SFRSYM    DATA     BYTE      P2
      000000CAH   SFRSYM    DATA     BYTE      P5M0
      000000B3H   SFRSYM    DATA     BYTE      P4M1
      000000B0H   SFRSYM    DATA     BYTE      P3
      000000C9H   SFRSYM    DATA     BYTE      P5M1
      000000C0H   SFRSYM    DATA     BYTE      P4
      000000D0H.6 SFRSYM    DATA     BIT       AC
      000000C8H   SFRSYM    DATA     BYTE      P5
      000000A8H.7 SFRSYM    DATA     BIT       EA
      000000CEH   SFRSYM    DATA     BYTE      SPCTL
      000000D8H.7 SFRSYM    DATA     BIT       CF
      000000F9H   SFRSYM    DATA     BYTE      CH
      000000A8H.5 SFRSYM    DATA     BIT       EADC
      000000A8H   SFRSYM    DATA     BYTE      IE
      000000E9H   SFRSYM    DATA     BYTE      CL
      000000C5H   SFRSYM    DATA     BYTE      IAP_CMD
      000000FAH   SFRSYM    DATA     BYTE      CCAP0H
      000000FBH   SFRSYM    DATA     BYTE      CCAP1H
      000000BDH   SFRSYM    DATA     BYTE      ADC_RES
      000000B6H   SFRSYM    DATA     BYTE      IPH2
      000000EAH   SFRSYM    DATA     BYTE      CCAP0L
      000000D8H.6 SFRSYM    DATA     BIT       CR
      000000EBH   SFRSYM    DATA     BYTE      CCAP1L
      000000DAH   SFRSYM    DATA     BYTE      CCAPM0
      000000DBH   SFRSYM    DATA     BYTE      CCAPM1
      000000A8H.4 SFRSYM    DATA     BIT       ES
      000000B8H.5 SFRSYM    DATA     BIT       PADC
      000000B8H   SFRSYM    DATA     BYTE      IP
      00000098H   SFRSYM    DATA     BIT       RI
      000000D0H.7 SFRSYM    DATA     BIT       CY
      00000098H.1 SFRSYM    DATA     BIT       TI
      00000097H   SFRSYM    DATA     BYTE      CLK_DIV
      000000C3H   SFRSYM    DATA     BYTE      IAP_ADDRH
      000000B8H.4 SFRSYM    DATA     BIT       PS
      00000081H   SFRSYM    DATA     BYTE      SP
      000000C4H   SFRSYM    DATA     BYTE      IAP_ADDRL
      000000D9H   SFRSYM    DATA     BYTE      CMOD
      000000D8H   SFRSYM    DATA     BYTE      CCON
      000000B8H.7 SFRSYM    DATA     BIT       PPCA
      000000D0H.2 SFRSYM    DATA     BIT       OV
      000000A8H.6 SFRSYM    DATA     BIT       ELVD
      000000BBH   SFRSYM    DATA     BYTE      P4SW
      00000080H   SFRSYM    DATA     BIT       P00
      000000BCH   SFRSYM    DATA     BYTE      ADC_CONTR
      00000099H   SFRSYM    DATA     BYTE      SBUF
      00000090H   SFRSYM    DATA     BIT       P10
      00000080H.1 SFRSYM    DATA     BIT       P01
      00000087H   SFRSYM    DATA     BYTE      PCON
      000000A0H   SFRSYM    DATA     BIT       P20
LX51 LINKER/LOCATER V4.66.41.0                                                        05/29/2021  13:29:52  PAGE 28


      00000090H.1 SFRSYM    DATA     BIT       P11
      00000080H.2 SFRSYM    DATA     BIT       P02
      000000B0H   SFRSYM    DATA     BIT       P30
      000000A0H.1 SFRSYM    DATA     BIT       P21
      00000090H.2 SFRSYM    DATA     BIT       P12
      00000080H.3 SFRSYM    DATA     BIT       P03
      00000098H   SFRSYM    DATA     BYTE      SCON
      000000C0H   SFRSYM    DATA     BIT       P40
      000000B0H.1 SFRSYM    DATA     BIT       P31
      000000A0H.2 SFRSYM    DATA     BIT       P22
      00000090H.3 SFRSYM    DATA     BIT       P13
      00000080H.4 SFRSYM    DATA     BIT       P04
      0000008FH   SFRSYM    DATA     BYTE      WAKE_CLKO
      00000089H   SFRSYM    DATA     BYTE      TMOD
      00000088H   SFRSYM    DATA     BYTE      TCON
      000000C8H   SFRSYM    DATA     BIT       P50
      000000C0H.1 SFRSYM    DATA     BIT       P41
      000000B0H.2 SFRSYM    DATA     BIT       P32
      000000A0H.3 SFRSYM    DATA     BIT       P23
      00000090H.4 SFRSYM    DATA     BIT       P14
      00000080H.5 SFRSYM    DATA     BIT       P05
      000000C8H.1 SFRSYM    DATA     BIT       P51
      000000C0H.2 SFRSYM    DATA     BIT       P42
      000000B0H.3 SFRSYM    DATA     BIT       P33
      000000A0H.4 SFRSYM    DATA     BIT       P24
      00000090H.5 SFRSYM    DATA     BIT       P15
      00000080H.6 SFRSYM    DATA     BIT       P06
      000000C8H.2 SFRSYM    DATA     BIT       P52
      000000C0H.3 SFRSYM    DATA     BIT       P43
      000000B0H.4 SFRSYM    DATA     BIT       P34
      000000A0H.5 SFRSYM    DATA     BIT       P25
      00000090H.6 SFRSYM    DATA     BIT       P16
      00000080H.7 SFRSYM    DATA     BIT       P07
      000000B8H.6 SFRSYM    DATA     BIT       PLVD
      000000C8H.3 SFRSYM    DATA     BIT       P53
      000000C0H.4 SFRSYM    DATA     BIT       P44
      000000B0H.5 SFRSYM    DATA     BIT       P35
      000000A0H.6 SFRSYM    DATA     BIT       P26
      00000090H.7 SFRSYM    DATA     BIT       P17
      000000C0H.5 SFRSYM    DATA     BIT       P45
      000000B0H.6 SFRSYM    DATA     BIT       P36
      000000A0H.7 SFRSYM    DATA     BIT       P27
      000000C0H.6 SFRSYM    DATA     BIT       P46
      000000B0H.7 SFRSYM    DATA     BIT       P37
      000000C0H.7 SFRSYM    DATA     BIT       P47
      00000088H.1 SFRSYM    DATA     BIT       IE0
      000000A1H   SFRSYM    DATA     BYTE      BUS_SPEED
      00000088H.3 SFRSYM    DATA     BIT       IE1
      000000AFH   SFRSYM    DATA     BYTE      IE2
      0000008EH   SFRSYM    DATA     BYTE      AUXR
      000000F0H   SFRSYM    DATA     BYTE      B
      000000C7H   SFRSYM    DATA     BYTE      IAP_CONTR
      000000E0H   SFRSYM    DATA     BYTE      ACC
      000000A8H.1 SFRSYM    DATA     BIT       ET0
      00000088H.5 SFRSYM    DATA     BIT       TF0
      000000A8H.3 SFRSYM    DATA     BIT       ET1
      00000088H.7 SFRSYM    DATA     BIT       TF1
      000000B5H   SFRSYM    DATA     BYTE      IP2
      00000098H.2 SFRSYM    DATA     BIT       RB8
      0000008CH   SFRSYM    DATA     BYTE      TH0
      0000008DH   SFRSYM    DATA     BYTE      TH1
      00000088H   SFRSYM    DATA     BIT       IT0
      000000A8H   SFRSYM    DATA     BIT       EX0
      00000098H.3 SFRSYM    DATA     BIT       TB8
      00000088H.2 SFRSYM    DATA     BIT       IT1
LX51 LINKER/LOCATER V4.66.41.0                                                        05/29/2021  13:29:52  PAGE 29


      000000A8H.2 SFRSYM    DATA     BIT       EX1
      000000D0H   SFRSYM    DATA     BIT       P
      00000098H.7 SFRSYM    DATA     BIT       SM0
      0000008AH   SFRSYM    DATA     BYTE      TL0
      00000098H.6 SFRSYM    DATA     BIT       SM1
      0000008BH   SFRSYM    DATA     BYTE      TL1
      00000098H.5 SFRSYM    DATA     BIT       SM2
      000000B8H.1 SFRSYM    DATA     BIT       PT0
      000000B8H.3 SFRSYM    DATA     BIT       PT1
      000000D0H.3 SFRSYM    DATA     BIT       RS0
      000000C2H   SFRSYM    DATA     BYTE      IAP_DATA
      00000088H.4 SFRSYM    DATA     BIT       TR0
      000000D0H.4 SFRSYM    DATA     BIT       RS1
      00000088H.6 SFRSYM    DATA     BIT       TR1
      000000C1H   SFRSYM    DATA     BYTE      WDT_CONTR
      000000B8H   SFRSYM    DATA     BIT       PX0
      000000B8H.2 SFRSYM    DATA     BIT       PX1
      000000F2H   SFRSYM    DATA     BYTE      PCA_PWM0
      000000F3H   SFRSYM    DATA     BYTE      PCA_PWM1
      0000009DH   SFRSYM    DATA     BYTE      P1ASF
      00000083H   SFRSYM    DATA     BYTE      DPH
      000000BEH   SFRSYM    DATA     BYTE      ADC_RESL
      00000082H   SFRSYM    DATA     BYTE      DPL
      000000CDH   SFRSYM    DATA     BYTE      SPSTAT
      000000B7H   SFRSYM    DATA     BYTE      IPH
      0000009BH   SFRSYM    DATA     BYTE      S2BUF
      00000098H.4 SFRSYM    DATA     BIT       REN
      0000009AH   SFRSYM    DATA     BYTE      S2CON
      00000090H   SFRSYM    DATA     BIT       led1
      0000009CH   SFRSYM    DATA     BYTE      BRT
      000000B9H   SFRSYM    DATA     BYTE      SADEN
      000000A9H   SFRSYM    DATA     BYTE      SADDR
      000000C6H   SFRSYM    DATA     BYTE      IAP_TRIG
      000000A2H   SFRSYM    DATA     BYTE      AUXR1
      000000D0H.5 SFRSYM    DATA     BIT       F0
      000000D0H   SFRSYM    DATA     BYTE      PSW
      000000D8H   SFRSYM    DATA     BIT       CCF0
      000000CFH   SFRSYM    DATA     BYTE      SPDAT
      000000D8H.1 SFRSYM    DATA     BIT       CCF1
      00000094H   SFRSYM    DATA     BYTE      P0M0

      01000BA0H   BLOCK     CODE     ---       LVL=0
      01000BA0H   BLOCK     CODE     NEAR LAB  LVL=1
      00000007H   SYMBOL    DATA     BYTE      i
      00000006H   SYMBOL    DATA     BYTE      j
      ---         BLOCKEND  ---      ---       LVL=1
      01000BA0H   LINE      CODE     ---       #34
      01000BA0H   LINE      CODE     ---       #35
      01000BA0H   LINE      CODE     ---       #37
      01000BA3H   LINE      CODE     ---       #38
      01000BA6H   LINE      CODE     ---       #39
      01000BA9H   LINE      CODE     ---       #40
      01000BABH   LINE      CODE     ---       #41
      01000BADH   LINE      CODE     ---       #42
      01000BAFH   LINE      CODE     ---       #43
      01000BB1H   LINE      CODE     ---       #44
      01000BBCH   LINE      CODE     ---       #45
      01000BCFH   LINE      CODE     ---       #46
      01000BD8H   LINE      CODE     ---       #47
      01000BDEH   LINE      CODE     ---       #48
      01000BF2H   LINE      CODE     ---       #49
      01000BFDH   LINE      CODE     ---       #50
      01000C08H   LINE      CODE     ---       #51
      01000C13H   LINE      CODE     ---       #52
      01000C1AH   LINE      CODE     ---       #53
LX51 LINKER/LOCATER V4.66.41.0                                                        05/29/2021  13:29:52  PAGE 30


      01000C1CH   LINE      CODE     ---       #54
      01000C1CH   LINE      CODE     ---       #55
      01000C1EH   LINE      CODE     ---       #56
      01000C3AH   LINE      CODE     ---       #57
      01000C3EH   LINE      CODE     ---       #58
      01000C47H   LINE      CODE     ---       #59
      ---         BLOCKEND  ---      ---       LVL=0

      01000864H   BLOCK     CODE     ---       LVL=0
      01000864H   LINE      CODE     ---       #64
      01000881H   LINE      CODE     ---       #66
      01000884H   LINE      CODE     ---       #67
      01000887H   LINE      CODE     ---       #68
      010008ACH   LINE      CODE     ---       #69
      010008CFH   LINE      CODE     ---       #70
      010008CFH   LINE      CODE     ---       #71
      010008D1H   LINE      CODE     ---       #72
      010008F6H   LINE      CODE     ---       #73
      010008F8H   LINE      CODE     ---       #74
      01000907H   LINE      CODE     ---       #75
      01000913H   LINE      CODE     ---       #76
      0100091FH   LINE      CODE     ---       #77
      0100091FH   LINE      CODE     ---       #78
      01000922H   LINE      CODE     ---       #79
      01000922H   LINE      CODE     ---       #80
      01000922H   LINE      CODE     ---       #81
      01000948H   LINE      CODE     ---       #82
      01000948H   LINE      CODE     ---       #83
      0100094AH   LINE      CODE     ---       #84
      0100094AH   LINE      CODE     ---       #85
      01000966H   LINE      CODE     ---       #86
      01000970H   LINE      CODE     ---       #87
      ---         BLOCKEND  ---      ---       LVL=0

      0100124AH   BLOCK     CODE     VOID      LVL=0
      ---         BLOCKEND  ---      ---       LVL=0

      01001252H   BLOCK     CODE     ---       LVL=0
      00000002H   SYMBOL    DATA     WORD      y
      01001252H   LINE      CODE     ---       #91
      01001256H   LINE      CODE     ---       #92
      01001256H   LINE      CODE     ---       #93
      01001274H   LINE      CODE     ---       #94
      01001277H   LINE      CODE     ---       #96
      01001279H   LINE      CODE     ---       #97
      ---         BLOCKEND  ---      ---       LVL=0

      0100055CH   BLOCK     CODE     ---       LVL=0
      00000008H   SYMBOL    DATA     LONG      n
      01000564H   BLOCK     CODE     NEAR LAB  LVL=1
      0000000CH   SYMBOL    DATA     BYTE      i
      0000000DH   SYMBOL    DATA     LONG      t
      00000011H   SYMBOL    DATA     LONG      u
      ---         BLOCKEND  ---      ---       LVL=1
      0100055CH   LINE      CODE     ---       #101
      01000564H   LINE      CODE     ---       #102
      01000564H   LINE      CODE     ---       #105
      01000580H   LINE      CODE     ---       #106
      010005A3H   LINE      CODE     ---       #107
      010005C5H   LINE      CODE     ---       #108
      010005CFH   LINE      CODE     ---       #109
      01000603H   LINE      CODE     ---       #110
      01000603H   LINE      CODE     ---       #111
      01000611H   LINE      CODE     ---       #112
      01000633H   LINE      CODE     ---       #113
LX51 LINKER/LOCATER V4.66.41.0                                                        05/29/2021  13:29:52  PAGE 31


      01000635H   LINE      CODE     ---       #114
      0100063EH   LINE      CODE     ---       #115
      01000643H   LINE      CODE     ---       #117
      01000646H   LINE      CODE     ---       #118
      0100064CH   LINE      CODE     ---       #119
      0100064FH   LINE      CODE     ---       #120
      0100064FH   LINE      CODE     ---       #121
      0100067BH   LINE      CODE     ---       #122
      0100067BH   LINE      CODE     ---       #123
      0100069EH   LINE      CODE     ---       #124
      010006A4H   LINE      CODE     ---       #125
      010006A4H   LINE      CODE     ---       #127
      010006A4H   LINE      CODE     ---       #128
      010006ABH   LINE      CODE     ---       #129
      010006B1H   LINE      CODE     ---       #130
      010006C8H   LINE      CODE     ---       #131
      010006EAH   LINE      CODE     ---       #132
      010006F8H   LINE      CODE     ---       #133
      01000719H   LINE      CODE     ---       #134
      01000727H   LINE      CODE     ---       #135
      ---         BLOCKEND  ---      ---       LVL=0

      01000EA7H   BLOCK     CODE     ---       LVL=0
      00000008H   SYMBOL    DATA     BYTE      hour
      00000009H   SYMBOL    DATA     BYTE      minute
      0000000AH   SYMBOL    DATA     BYTE      second
      0000000BH   SYMBOL    DATA     BYTE      sta
      01000EADH   BLOCK     CODE     NEAR LAB  LVL=1
      0000000CH   SYMBOL    DATA     ---       t
      ---         BLOCKEND  ---      ---       LVL=1
      01000EA7H   LINE      CODE     ---       #194
      01000EADH   LINE      CODE     ---       #195
      01000EADH   LINE      CODE     ---       #197
      01000EBFH   LINE      CODE     ---       #198
      01000ED0H   LINE      CODE     ---       #199
      01000EDEH   LINE      CODE     ---       #200
      01000EE6H   LINE      CODE     ---       #201
      01000EEEH   LINE      CODE     ---       #202
      01000EF6H   LINE      CODE     ---       #203
      01000F0BH   LINE      CODE     ---       #204
      01000F2BH   LINE      CODE     ---       #205
      01000F31H   LINE      CODE     ---       #206
      ---         BLOCKEND  ---      ---       LVL=0

      01000F32H   BLOCK     CODE     ---       LVL=0
      00000008H   SYMBOL    DATA     WORD      id
      01000F36H   BLOCK     CODE     NEAR LAB  LVL=1
      0000000AH   SYMBOL    DATA     ---       t
      0000000DH   SYMBOL    DATA     ---       tt
      ---         BLOCKEND  ---      ---       LVL=1
      01000F32H   LINE      CODE     ---       #207
      01000F36H   LINE      CODE     ---       #208
      01000F36H   LINE      CODE     ---       #211
      01000F3FH   LINE      CODE     ---       #212
      01000F4DH   LINE      CODE     ---       #213
      01000F4DH   LINE      CODE     ---       #214
      01000F66H   LINE      CODE     ---       #215
      01000F66H   LINE      CODE     ---       #216
      01000F6CH   LINE      CODE     ---       #217
      01000F81H   LINE      CODE     ---       #218
      01000F8AH   LINE      CODE     ---       #219
      01000FA2H   LINE      CODE     ---       #220
      01000FA9H   LINE      CODE     ---       #221
      01000FA9H   LINE      CODE     ---       #222
      01000FA9H   LINE      CODE     ---       #223
LX51 LINKER/LOCATER V4.66.41.0                                                        05/29/2021  13:29:52  PAGE 32


      01000FB8H   LINE      CODE     ---       #224
      01000FBAH   LINE      CODE     ---       #225
      ---         BLOCKEND  ---      ---       LVL=0

      0100098BH   BLOCK     CODE     ---       LVL=0
      00000008H   SYMBOL    DATA     ---       s
      01000991H   BLOCK     CODE     NEAR LAB  LVL=1
      0000000BH   SYMBOL    DATA     CHAR      t
      0000000CH   SYMBOL    DATA     CHAR      u
      0000000DH   SYMBOL    DATA     BYTE      w
      0000000EH   SYMBOL    DATA     BYTE      i
      0000000FH   SYMBOL    DATA     BYTE      j
      ---         BLOCKEND  ---      ---       LVL=1
      0100098BH   LINE      CODE     ---       #287
      01000991H   LINE      CODE     ---       #288
      01000991H   LINE      CODE     ---       #289
      01000997H   LINE      CODE     ---       #291
      0100099AH   LINE      CODE     ---       #292
      010009AEH   LINE      CODE     ---       #293
      010009AEH   LINE      CODE     ---       #294
      010009B5H   LINE      CODE     ---       #295
      010009B5H   LINE      CODE     ---       #296
      010009BAH   LINE      CODE     ---       #297
      010009C3H   LINE      CODE     ---       #298
      010009CBH   LINE      CODE     ---       #299
      010009CBH   LINE      CODE     ---       #300
      010009CDH   LINE      CODE     ---       #301
      010009D3H   LINE      CODE     ---       #302
      010009D6H   LINE      CODE     ---       #303
      010009EDH   LINE      CODE     ---       #304
      01000A3DH   LINE      CODE     ---       #305
      01000A7EH   LINE      CODE     ---       #306
      01000A81H   LINE      CODE     ---       #307
      01000A84H   LINE      CODE     ---       #308
      01000A84H   LINE      CODE     ---       #309
      01000A84H   LINE      CODE     ---       #310
      01000A98H   LINE      CODE     ---       #311
      01000A9BH   LINE      CODE     ---       #312
      ---         BLOCKEND  ---      ---       LVL=0

      ---         MODULE    ---      ---       MUSIC
      00000027H   PUBLIC    DATA     BYTE      N
      0100003EH   PUBLIC    CODE     ---       clock_stop
      00000092H   SFRSYM    DATA     BYTE      P1M0
      00000093H   SFRSYM    DATA     BYTE      P0M1
      00000096H   SFRSYM    DATA     BYTE      P2M0
      00000091H   SFRSYM    DATA     BYTE      P1M1
      00000080H   SFRSYM    DATA     BYTE      P0
      000000B2H   SFRSYM    DATA     BYTE      P3M0
      00000095H   SFRSYM    DATA     BYTE      P2M1
      00000090H   SFRSYM    DATA     BYTE      P1
      000000B4H   SFRSYM    DATA     BYTE      P4M0
      000000B1H   SFRSYM    DATA     BYTE      P3M1
      000000A0H   SFRSYM    DATA     BYTE      P2
      000000CAH   SFRSYM    DATA     BYTE      P5M0
      000000B3H   SFRSYM    DATA     BYTE      P4M1
      000000B0H   SFRSYM    DATA     BYTE      P3
      000000C9H   SFRSYM    DATA     BYTE      P5M1
      000000C0H   SFRSYM    DATA     BYTE      P4
      000000D0H.6 SFRSYM    DATA     BIT       AC
      000000C8H   SFRSYM    DATA     BYTE      P5
      000000A8H.7 SFRSYM    DATA     BIT       EA
      000000CEH   SFRSYM    DATA     BYTE      SPCTL
      000000D8H.7 SFRSYM    DATA     BIT       CF
      00000080H   SFRSYM    DATA     BIT       io1
LX51 LINKER/LOCATER V4.66.41.0                                                        05/29/2021  13:29:52  PAGE 33


      00000080H.2 SFRSYM    DATA     BIT       io2
      000000F9H   SFRSYM    DATA     BYTE      CH
      00000080H.2 SFRSYM    DATA     BIT       io3
      000000A8H.5 SFRSYM    DATA     BIT       EADC
      000000A8H   SFRSYM    DATA     BYTE      IE
      000000E9H   SFRSYM    DATA     BYTE      CL
      000000C5H   SFRSYM    DATA     BYTE      IAP_CMD
      000000FAH   SFRSYM    DATA     BYTE      CCAP0H
      000000FBH   SFRSYM    DATA     BYTE      CCAP1H
      000000BDH   SFRSYM    DATA     BYTE      ADC_RES
      000000B6H   SFRSYM    DATA     BYTE      IPH2
      000000EAH   SFRSYM    DATA     BYTE      CCAP0L
      000000D8H.6 SFRSYM    DATA     BIT       CR
      000000EBH   SFRSYM    DATA     BYTE      CCAP1L
      000000DAH   SFRSYM    DATA     BYTE      CCAPM0
      000000DBH   SFRSYM    DATA     BYTE      CCAPM1
      000000A8H.4 SFRSYM    DATA     BIT       ES
      000000B8H.5 SFRSYM    DATA     BIT       PADC
      000000B8H   SFRSYM    DATA     BYTE      IP
      00000098H   SFRSYM    DATA     BIT       RI
      000000D0H.7 SFRSYM    DATA     BIT       CY
      00000098H.1 SFRSYM    DATA     BIT       TI
      00000097H   SFRSYM    DATA     BYTE      CLK_DIV
      000000C3H   SFRSYM    DATA     BYTE      IAP_ADDRH
      000000B8H.4 SFRSYM    DATA     BIT       PS
      00000081H   SFRSYM    DATA     BYTE      SP
      000000C4H   SFRSYM    DATA     BYTE      IAP_ADDRL
      000000D9H   SFRSYM    DATA     BYTE      CMOD
      000000D8H   SFRSYM    DATA     BYTE      CCON
      000000B8H.7 SFRSYM    DATA     BIT       PPCA
      000000D0H.2 SFRSYM    DATA     BIT       OV
      000000A8H.6 SFRSYM    DATA     BIT       ELVD
      000000BBH   SFRSYM    DATA     BYTE      P4SW
      00000080H   SFRSYM    DATA     BIT       P00
      000000BCH   SFRSYM    DATA     BYTE      ADC_CONTR
      00000099H   SFRSYM    DATA     BYTE      SBUF
      00000090H   SFRSYM    DATA     BIT       P10
      00000080H.1 SFRSYM    DATA     BIT       P01
      00000087H   SFRSYM    DATA     BYTE      PCON
      000000A0H   SFRSYM    DATA     BIT       P20
      00000090H.1 SFRSYM    DATA     BIT       P11
      00000080H.2 SFRSYM    DATA     BIT       P02
      000000B0H   SFRSYM    DATA     BIT       P30
      000000A0H.1 SFRSYM    DATA     BIT       P21
      00000090H.2 SFRSYM    DATA     BIT       P12
      00000080H.3 SFRSYM    DATA     BIT       P03
      00000098H   SFRSYM    DATA     BYTE      SCON
      000000C0H   SFRSYM    DATA     BIT       P40
      000000B0H.1 SFRSYM    DATA     BIT       P31
      000000A0H.2 SFRSYM    DATA     BIT       P22
      00000090H.3 SFRSYM    DATA     BIT       P13
      00000080H.4 SFRSYM    DATA     BIT       P04
      0000008FH   SFRSYM    DATA     BYTE      WAKE_CLKO
      00000089H   SFRSYM    DATA     BYTE      TMOD
      00000088H   SFRSYM    DATA     BYTE      TCON
      000000C8H   SFRSYM    DATA     BIT       P50
      000000C0H.1 SFRSYM    DATA     BIT       P41
      000000B0H.2 SFRSYM    DATA     BIT       P32
      000000A0H.3 SFRSYM    DATA     BIT       P23
      00000090H.4 SFRSYM    DATA     BIT       P14
      00000080H.5 SFRSYM    DATA     BIT       P05
      000000C8H.1 SFRSYM    DATA     BIT       P51
      000000C0H.2 SFRSYM    DATA     BIT       P42
      000000B0H.3 SFRSYM    DATA     BIT       P33
      000000A0H.4 SFRSYM    DATA     BIT       P24
LX51 LINKER/LOCATER V4.66.41.0                                                        05/29/2021  13:29:52  PAGE 34


      00000090H.5 SFRSYM    DATA     BIT       P15
      00000080H.6 SFRSYM    DATA     BIT       P06
      000000C8H.2 SFRSYM    DATA     BIT       P52
      000000C0H.3 SFRSYM    DATA     BIT       P43
      000000B0H.4 SFRSYM    DATA     BIT       P34
      000000A0H.5 SFRSYM    DATA     BIT       P25
      00000090H.6 SFRSYM    DATA     BIT       P16
      00000080H.7 SFRSYM    DATA     BIT       P07
      000000B8H.6 SFRSYM    DATA     BIT       PLVD
      000000C8H.3 SFRSYM    DATA     BIT       P53
      000000C0H.4 SFRSYM    DATA     BIT       P44
      000000B0H.5 SFRSYM    DATA     BIT       P35
      000000A0H.6 SFRSYM    DATA     BIT       P26
      00000090H.7 SFRSYM    DATA     BIT       P17
      000000C0H.5 SFRSYM    DATA     BIT       P45
      000000B0H.6 SFRSYM    DATA     BIT       P36
      000000A0H.7 SFRSYM    DATA     BIT       P27
      000000C0H.6 SFRSYM    DATA     BIT       P46
      000000B0H.7 SFRSYM    DATA     BIT       P37
      000000C0H.7 SFRSYM    DATA     BIT       P47
      00000088H.1 SFRSYM    DATA     BIT       IE0
      000000A1H   SFRSYM    DATA     BYTE      BUS_SPEED
      00000088H.3 SFRSYM    DATA     BIT       IE1
      000000AFH   SFRSYM    DATA     BYTE      IE2
      0000008EH   SFRSYM    DATA     BYTE      AUXR
      000000F0H   SFRSYM    DATA     BYTE      B
      000000C7H   SFRSYM    DATA     BYTE      IAP_CONTR
      000000E0H   SFRSYM    DATA     BYTE      ACC
      000000A8H.1 SFRSYM    DATA     BIT       ET0
      00000088H.5 SFRSYM    DATA     BIT       TF0
      000000A8H.3 SFRSYM    DATA     BIT       ET1
      00000088H.7 SFRSYM    DATA     BIT       TF1
      000000B5H   SFRSYM    DATA     BYTE      IP2
      00000098H.2 SFRSYM    DATA     BIT       RB8
      0000008CH   SFRSYM    DATA     BYTE      TH0
      0000008DH   SFRSYM    DATA     BYTE      TH1
      00000088H   SFRSYM    DATA     BIT       IT0
      000000A8H   SFRSYM    DATA     BIT       EX0
      00000098H.3 SFRSYM    DATA     BIT       TB8
      00000088H.2 SFRSYM    DATA     BIT       IT1
      000000A8H.2 SFRSYM    DATA     BIT       EX1
      000000D0H   SFRSYM    DATA     BIT       P
      00000098H.7 SFRSYM    DATA     BIT       SM0
      0000008AH   SFRSYM    DATA     BYTE      TL0
      00000098H.6 SFRSYM    DATA     BIT       SM1
      0000008BH   SFRSYM    DATA     BYTE      TL1
      00000098H.5 SFRSYM    DATA     BIT       SM2
      000000B8H.1 SFRSYM    DATA     BIT       PT0
      000000B8H.3 SFRSYM    DATA     BIT       PT1
      000000D0H.3 SFRSYM    DATA     BIT       RS0
      000000C2H   SFRSYM    DATA     BYTE      IAP_DATA
      00000088H.4 SFRSYM    DATA     BIT       TR0
      000000D0H.4 SFRSYM    DATA     BIT       RS1
      00000088H.6 SFRSYM    DATA     BIT       TR1
      000000C1H   SFRSYM    DATA     BYTE      WDT_CONTR
      000000B8H   SFRSYM    DATA     BIT       PX0
      000000B8H.2 SFRSYM    DATA     BIT       PX1
      000000F2H   SFRSYM    DATA     BYTE      PCA_PWM0
      000000F3H   SFRSYM    DATA     BYTE      PCA_PWM1
      0000009DH   SFRSYM    DATA     BYTE      P1ASF
      00000083H   SFRSYM    DATA     BYTE      DPH
      000000BEH   SFRSYM    DATA     BYTE      ADC_RESL
      00000082H   SFRSYM    DATA     BYTE      DPL
      000000CDH   SFRSYM    DATA     BYTE      SPSTAT
      000000B7H   SFRSYM    DATA     BYTE      IPH
LX51 LINKER/LOCATER V4.66.41.0                                                        05/29/2021  13:29:52  PAGE 35


      0000009BH   SFRSYM    DATA     BYTE      S2BUF
      00000098H.4 SFRSYM    DATA     BIT       REN
      0000009AH   SFRSYM    DATA     BYTE      S2CON
      0000009CH   SFRSYM    DATA     BYTE      BRT
      000000B9H   SFRSYM    DATA     BYTE      SADEN
      000000A9H   SFRSYM    DATA     BYTE      SADDR
      000000C6H   SFRSYM    DATA     BYTE      IAP_TRIG
      000000A2H   SFRSYM    DATA     BYTE      AUXR1
      000000D0H.5 SFRSYM    DATA     BIT       F0
      000000D0H   SFRSYM    DATA     BYTE      PSW
      000000D8H   SFRSYM    DATA     BIT       CCF0
      000000CFH   SFRSYM    DATA     BYTE      SPDAT
      000000D8H.1 SFRSYM    DATA     BIT       CCF1
      00000094H   SFRSYM    DATA     BYTE      P0M0
      00000006H   SYMBOL    DATA     WORD      t
      00000002H   SYMBOL    DATA     WORD      i
      00000082H   SYMBOL    DATA     WORD      j
      00000004H   SYMBOL    DATA     WORD      k

      0100003EH   BLOCK     CODE     ---       LVL=0
      0100003EH   LINE      CODE     ---       #24
      0100003EH   LINE      CODE     ---       #25
      0100003EH   LINE      CODE     ---       #26
      01000040H   LINE      CODE     ---       #27
      ---         BLOCKEND  ---      ---       LVL=0
      00000001H   SYMBOL    DATA     CHAR      n

      ---         MODULE    ---      ---       KEY
      00000022H   PUBLIC    DATA     ---       keys
      00000021H.1 PUBLIC    BIT      BIT       ?scanMatricKey?BIT
      01000FBBH   PUBLIC    CODE     ---       scanMatricKey
      010012D5H   PUBLIC    CODE     ---       Delay10ms
      00000092H   SFRSYM    DATA     BYTE      P1M0
      00000093H   SFRSYM    DATA     BYTE      P0M1
      00000096H   SFRSYM    DATA     BYTE      P2M0
      00000091H   SFRSYM    DATA     BYTE      P1M1
      00000080H   SFRSYM    DATA     BYTE      P0
      000000B2H   SFRSYM    DATA     BYTE      P3M0
      00000095H   SFRSYM    DATA     BYTE      P2M1
      00000090H   SFRSYM    DATA     BYTE      P1
      000000B4H   SFRSYM    DATA     BYTE      P4M0
      000000B1H   SFRSYM    DATA     BYTE      P3M1
      000000A0H   SFRSYM    DATA     BYTE      P2
      000000CAH   SFRSYM    DATA     BYTE      P5M0
      000000B3H   SFRSYM    DATA     BYTE      P4M1
      000000B0H   SFRSYM    DATA     BYTE      P3
      000000C9H   SFRSYM    DATA     BYTE      P5M1
      000000C0H   SFRSYM    DATA     BYTE      P4
      000000D0H.6 SFRSYM    DATA     BIT       AC
      000000C8H   SFRSYM    DATA     BYTE      P5
      000000A8H.7 SFRSYM    DATA     BIT       EA
      000000CEH   SFRSYM    DATA     BYTE      SPCTL
      000000D8H.7 SFRSYM    DATA     BIT       CF
      000000F9H   SFRSYM    DATA     BYTE      CH
      000000A8H.5 SFRSYM    DATA     BIT       EADC
      000000A8H   SFRSYM    DATA     BYTE      IE
      000000E9H   SFRSYM    DATA     BYTE      CL
      000000C5H   SFRSYM    DATA     BYTE      IAP_CMD
      000000FAH   SFRSYM    DATA     BYTE      CCAP0H
      000000FBH   SFRSYM    DATA     BYTE      CCAP1H
      000000BDH   SFRSYM    DATA     BYTE      ADC_RES
      000000B6H   SFRSYM    DATA     BYTE      IPH2
      000000EAH   SFRSYM    DATA     BYTE      CCAP0L
      000000D8H.6 SFRSYM    DATA     BIT       CR
      000000EBH   SFRSYM    DATA     BYTE      CCAP1L
LX51 LINKER/LOCATER V4.66.41.0                                                        05/29/2021  13:29:52  PAGE 36


      000000DAH   SFRSYM    DATA     BYTE      CCAPM0
      000000DBH   SFRSYM    DATA     BYTE      CCAPM1
      000000A8H.4 SFRSYM    DATA     BIT       ES
      000000B8H.5 SFRSYM    DATA     BIT       PADC
      000000B8H   SFRSYM    DATA     BYTE      IP
      00000098H   SFRSYM    DATA     BIT       RI
      000000D0H.7 SFRSYM    DATA     BIT       CY
      00000098H.1 SFRSYM    DATA     BIT       TI
      00000097H   SFRSYM    DATA     BYTE      CLK_DIV
      000000C3H   SFRSYM    DATA     BYTE      IAP_ADDRH
      000000B8H.4 SFRSYM    DATA     BIT       PS
      00000081H   SFRSYM    DATA     BYTE      SP
      000000C4H   SFRSYM    DATA     BYTE      IAP_ADDRL
      000000D9H   SFRSYM    DATA     BYTE      CMOD
      000000D8H   SFRSYM    DATA     BYTE      CCON
      000000B8H.7 SFRSYM    DATA     BIT       PPCA
      000000D0H.2 SFRSYM    DATA     BIT       OV
      000000A8H.6 SFRSYM    DATA     BIT       ELVD
      000000BBH   SFRSYM    DATA     BYTE      P4SW
      00000080H   SFRSYM    DATA     BIT       P00
      000000BCH   SFRSYM    DATA     BYTE      ADC_CONTR
      00000099H   SFRSYM    DATA     BYTE      SBUF
      00000090H   SFRSYM    DATA     BIT       P10
      00000080H.1 SFRSYM    DATA     BIT       P01
      00000087H   SFRSYM    DATA     BYTE      PCON
      000000A0H   SFRSYM    DATA     BIT       P20
      00000090H.1 SFRSYM    DATA     BIT       P11
      00000080H.2 SFRSYM    DATA     BIT       P02
      000000B0H   SFRSYM    DATA     BIT       P30
      000000A0H.1 SFRSYM    DATA     BIT       P21
      00000090H.2 SFRSYM    DATA     BIT       P12
      00000080H.3 SFRSYM    DATA     BIT       P03
      00000098H   SFRSYM    DATA     BYTE      SCON
      000000C0H   SFRSYM    DATA     BIT       P40
      000000B0H.1 SFRSYM    DATA     BIT       P31
      000000A0H.2 SFRSYM    DATA     BIT       P22
      00000090H.3 SFRSYM    DATA     BIT       P13
      00000080H.4 SFRSYM    DATA     BIT       P04
      0000008FH   SFRSYM    DATA     BYTE      WAKE_CLKO
      00000089H   SFRSYM    DATA     BYTE      TMOD
      00000088H   SFRSYM    DATA     BYTE      TCON
      000000C8H   SFRSYM    DATA     BIT       P50
      000000C0H.1 SFRSYM    DATA     BIT       P41
      000000B0H.2 SFRSYM    DATA     BIT       P32
      000000A0H.3 SFRSYM    DATA     BIT       P23
      00000090H.4 SFRSYM    DATA     BIT       P14
      00000080H.5 SFRSYM    DATA     BIT       P05
      000000C8H.1 SFRSYM    DATA     BIT       P51
      000000C0H.2 SFRSYM    DATA     BIT       P42
      000000B0H.3 SFRSYM    DATA     BIT       P33
      000000A0H.4 SFRSYM    DATA     BIT       P24
      00000090H.5 SFRSYM    DATA     BIT       P15
      00000080H.6 SFRSYM    DATA     BIT       P06
      000000C8H.2 SFRSYM    DATA     BIT       P52
      000000C0H.3 SFRSYM    DATA     BIT       P43
      000000B0H.4 SFRSYM    DATA     BIT       P34
      000000A0H.5 SFRSYM    DATA     BIT       P25
      00000090H.6 SFRSYM    DATA     BIT       P16
      00000080H.7 SFRSYM    DATA     BIT       P07
      000000B8H.6 SFRSYM    DATA     BIT       PLVD
      000000C8H.3 SFRSYM    DATA     BIT       P53
      000000C0H.4 SFRSYM    DATA     BIT       P44
      000000B0H.5 SFRSYM    DATA     BIT       P35
      000000A0H.6 SFRSYM    DATA     BIT       P26
      00000090H.7 SFRSYM    DATA     BIT       P17
LX51 LINKER/LOCATER V4.66.41.0                                                        05/29/2021  13:29:52  PAGE 37


      000000C0H.5 SFRSYM    DATA     BIT       P45
      000000B0H.6 SFRSYM    DATA     BIT       P36
      000000A0H.7 SFRSYM    DATA     BIT       P27
      000000C0H.6 SFRSYM    DATA     BIT       P46
      000000B0H.7 SFRSYM    DATA     BIT       P37
      000000C0H.7 SFRSYM    DATA     BIT       P47
      00000088H.1 SFRSYM    DATA     BIT       IE0
      000000A1H   SFRSYM    DATA     BYTE      BUS_SPEED
      00000088H.3 SFRSYM    DATA     BIT       IE1
      000000AFH   SFRSYM    DATA     BYTE      IE2
      0000008EH   SFRSYM    DATA     BYTE      AUXR
      000000F0H   SFRSYM    DATA     BYTE      B
      000000C7H   SFRSYM    DATA     BYTE      IAP_CONTR
      000000E0H   SFRSYM    DATA     BYTE      ACC
      000000A8H.1 SFRSYM    DATA     BIT       ET0
      00000088H.5 SFRSYM    DATA     BIT       TF0
      000000A8H.3 SFRSYM    DATA     BIT       ET1
      00000088H.7 SFRSYM    DATA     BIT       TF1
      000000B5H   SFRSYM    DATA     BYTE      IP2
      00000098H.2 SFRSYM    DATA     BIT       RB8
      0000008CH   SFRSYM    DATA     BYTE      TH0
      0000008DH   SFRSYM    DATA     BYTE      TH1
      00000088H   SFRSYM    DATA     BIT       IT0
      000000A8H   SFRSYM    DATA     BIT       EX0
      00000098H.3 SFRSYM    DATA     BIT       TB8
      00000088H.2 SFRSYM    DATA     BIT       IT1
      000000A8H.2 SFRSYM    DATA     BIT       EX1
      000000D0H   SFRSYM    DATA     BIT       P
      00000098H.7 SFRSYM    DATA     BIT       SM0
      0000008AH   SFRSYM    DATA     BYTE      TL0
      00000098H.6 SFRSYM    DATA     BIT       SM1
      0000008BH   SFRSYM    DATA     BYTE      TL1
      00000098H.5 SFRSYM    DATA     BIT       SM2
      000000B8H.1 SFRSYM    DATA     BIT       PT0
      000000B8H.3 SFRSYM    DATA     BIT       PT1
      000000D0H.3 SFRSYM    DATA     BIT       RS0
      000000C2H   SFRSYM    DATA     BYTE      IAP_DATA
      00000088H.4 SFRSYM    DATA     BIT       TR0
      000000D0H.4 SFRSYM    DATA     BIT       RS1
      00000088H.6 SFRSYM    DATA     BIT       TR1
      000000C1H   SFRSYM    DATA     BYTE      WDT_CONTR
      000000B8H   SFRSYM    DATA     BIT       PX0
      000000B8H.2 SFRSYM    DATA     BIT       PX1
      000000F2H   SFRSYM    DATA     BYTE      PCA_PWM0
      000000F3H   SFRSYM    DATA     BYTE      PCA_PWM1
      0000009DH   SFRSYM    DATA     BYTE      P1ASF
      00000083H   SFRSYM    DATA     BYTE      DPH
      000000BEH   SFRSYM    DATA     BYTE      ADC_RESL
      00000082H   SFRSYM    DATA     BYTE      DPL
      000000CDH   SFRSYM    DATA     BYTE      SPSTAT
      000000B7H   SFRSYM    DATA     BYTE      IPH
      0000009BH   SFRSYM    DATA     BYTE      S2BUF
      00000098H.4 SFRSYM    DATA     BIT       REN
      0000009AH   SFRSYM    DATA     BYTE      S2CON
      0000009CH   SFRSYM    DATA     BYTE      BRT
      000000B9H   SFRSYM    DATA     BYTE      SADEN
      000000A9H   SFRSYM    DATA     BYTE      SADDR
      000000C6H   SFRSYM    DATA     BYTE      IAP_TRIG
      000000A2H   SFRSYM    DATA     BYTE      AUXR1
      000000D0H.5 SFRSYM    DATA     BIT       F0
      000000D0H   SFRSYM    DATA     BYTE      PSW
      000000D8H   SFRSYM    DATA     BIT       CCF0
      000000CFH   SFRSYM    DATA     BYTE      SPDAT
      000000D8H.1 SFRSYM    DATA     BIT       CCF1
      00000094H   SFRSYM    DATA     BYTE      P0M0
LX51 LINKER/LOCATER V4.66.41.0                                                        05/29/2021  13:29:52  PAGE 38



      010012D5H   BLOCK     CODE     ---       LVL=0
      010012D5H   BLOCK     CODE     NEAR LAB  LVL=1
      00000007H   SYMBOL    DATA     BYTE      i
      00000006H   SYMBOL    DATA     BYTE      j
      ---         BLOCKEND  ---      ---       LVL=1
      010012D5H   LINE      CODE     ---       #9
      010012D5H   LINE      CODE     ---       #10
      010012D5H   LINE      CODE     ---       #13
      010012D6H   LINE      CODE     ---       #14
      010012D7H   LINE      CODE     ---       #15
      010012D9H   LINE      CODE     ---       #16
      010012DBH   LINE      CODE     ---       #18
      010012DBH   LINE      CODE     ---       #19
      010012DDH   LINE      CODE     ---       #20
      010012DFH   LINE      CODE     ---       #21
      ---         BLOCKEND  ---      ---       LVL=0
      00000007H   SYMBOL    DATA     BYTE      p
      00000005H   SYMBOL    DATA     BYTE      i
      00000006H   SYMBOL    DATA     BYTE      mask
      00000006H   SYMBOL    DATA     BYTE      mask
      00000020H.7 SYMBOL    BIT      BIT       be_state
      00000004H   SYMBOL    DATA     BYTE      i

      01000FBBH   BLOCK     CODE     ---       LVL=0
      00000021H.1 SYMBOL    BIT      BIT       longAble
      01000FBBH   BLOCK     CODE     NEAR LAB  LVL=1
      00000021H.0 SYMBOL    BIT      BIT       be_state
      00000006H   SYMBOL    DATA     BYTE      temp
      00000005H   SYMBOL    DATA     BYTE      out
      00000001H   SYMBOL    DATA     BYTE      mask
      00000004H   SYMBOL    DATA     BYTE      i
      00000003H   SYMBOL    DATA     BYTE      j
      ---         BLOCKEND  ---      ---       LVL=1
      01000FBBH   LINE      CODE     ---       #68
      01000FBBH   LINE      CODE     ---       #70
      01000FBFH   LINE      CODE     ---       #71
      01000FC2H   LINE      CODE     ---       #72
      01000FC4H   LINE      CODE     ---       #73
      01000FC6H   LINE      CODE     ---       #74
      01000FD3H   LINE      CODE     ---       #75
      01000FD8H   LINE      CODE     ---       #76
      01000FDCH   LINE      CODE     ---       #77
      01000FDFH   LINE      CODE     ---       #78
      01000FECH   LINE      CODE     ---       #79
      01000FF0H   LINE      CODE     ---       #80
      01000FF4H   LINE      CODE     ---       #81
      01000FF6H   LINE      CODE     ---       #82
      01000FF8H   LINE      CODE     ---       #83
      01001017H   LINE      CODE     ---       #84
      0100101AH   LINE      CODE     ---       #85
      0100101DH   LINE      CODE     ---       #86
      0100101FH   LINE      CODE     ---       #87
      01001027H   LINE      CODE     ---       #88
      01001027H   LINE      CODE     ---       #89
      0100102BH   LINE      CODE     ---       #90
      0100102BH   LINE      CODE     ---       #91
      0100102BH   LINE      CODE     ---       #92
      01001031H   LINE      CODE     ---       #93
      01001033H   LINE      CODE     ---       #94
      01001035H   LINE      CODE     ---       #95
      ---         BLOCKEND  ---      ---       LVL=0

      ---         MODULE    ---      ---       ?C?FPDIV
      01000049H   PUBLIC    CODE     ---       ?C?FPDIV
LX51 LINKER/LOCATER V4.66.41.0                                                        05/29/2021  13:29:52  PAGE 39



      ---         MODULE    ---      ---       ?C?FCAST
      010000F0H   PUBLIC    CODE     ---       ?C?FCASTC
      010000EBH   PUBLIC    CODE     ---       ?C?FCASTI
      010000E6H   PUBLIC    CODE     ---       ?C?FCASTL

      ---         MODULE    ---      ---       ?C?CASTF
      01000124H   PUBLIC    CODE     ---       ?C?CASTF

      ---         MODULE    ---      ---       ?C?FPGETOPN
      0100015BH   PUBLIC    CODE     ---       ?C?FPGETOPN2
      01000190H   PUBLIC    CODE     ---       ?C?FPNANRESULT
      0100019AH   PUBLIC    CODE     ---       ?C?FPOVERFLOW
      01000172H   PUBLIC    CODE     ---       ?C?FPRESULT
      01000186H   PUBLIC    CODE     ---       ?C?FPRESULT2
      01000197H   PUBLIC    CODE     ---       ?C?FPUNDERFLOW

      ---         MODULE    ---      ---       ?C_STARTUP
      01000000H   PUBLIC    CODE     ---       ?C_STARTUP

      ---         MODULE    ---      ---       ?C?CLDOPTR
      010001A5H   PUBLIC    CODE     ---       ?C?CLDOPTR

      ---         MODULE    ---      ---       ?C?CSTOPTR
      010001D2H   PUBLIC    CODE     ---       ?C?CSTOPTR

      ---         MODULE    ---      ---       ?C?IMUL
      010001F4H   PUBLIC    CODE     ---       ?C?IMUL

      ---         MODULE    ---      ---       ?C?UIDIV
      01000206H   PUBLIC    CODE     ---       ?C?UIDIV

      ---         MODULE    ---      ---       ?C?ILDOPTR
      0100025BH   PUBLIC    CODE     ---       ?C?ILDOPTR

      ---         MODULE    ---      ---       ?C?ISTOPTR
      01000293H   PUBLIC    CODE     ---       ?C?ISTOPTR

      ---         MODULE    ---      ---       ?C?LMUL
      010002C0H   PUBLIC    CODE     ---       ?C?LMUL

      ---         MODULE    ---      ---       ?C?ULDIV
      0100034BH   PUBLIC    CODE     ---       ?C?ULDIV

      ---         MODULE    ---      ---       ?C?SLDIV
      01001134H   PUBLIC    CODE     ---       ?C?SLDIV

      ---         MODULE    ---      ---       ?C?LNEG
      010003DDH   PUBLIC    CODE     ---       ?C?LNEG

      ---         MODULE    ---      ---       ?C?SLCMP
      010003EBH   PUBLIC    CODE     ---       ?C?SLCMP

      ---         MODULE    ---      ---       ?C?ULCMP
      01000401H   PUBLIC    CODE     ---       ?C?ULCMP

      ---         MODULE    ---      ---       ?C?ULSHR
      01000412H   PUBLIC    CODE     ---       ?C?ULSHR

      ---         MODULE    ---      ---       ?C?SLSHR
      01000425H   PUBLIC    CODE     ---       ?C?SLSHR

      ---         MODULE    ---      ---       ?C?LSHL
      01000439H   PUBLIC    CODE     ---       ?C?LSHL

LX51 LINKER/LOCATER V4.66.41.0                                                        05/29/2021  13:29:52  PAGE 40


      ---         MODULE    ---      ---       ?C?LSTXDATA
      0100044CH   PUBLIC    CODE     ---       ?C?LSTXDATA

      ---         MODULE    ---      ---       ?C?LSTKXDATA
      01000458H   PUBLIC    CODE     ---       ?C?LSTKXDATA

      ---         MODULE    ---      ---       ?C?OFFXADD
      01000489H   PUBLIC    CODE     ---       ?C?OFFXADD

      ---         MODULE    ---      ---       ?C?PLDPTR
      01000495H   PUBLIC    CODE     ---       ?C?PLDPTR

      ---         MODULE    ---      ---       ?C?PSTPTR
      010004B5H   PUBLIC    CODE     ---       ?C?PSTPTR

      ---         MODULE    ---      ---       MALLOC
      01000C58H   PUBLIC    CODE     ---       _MALLOC

      ---         MODULE    ---      ---       INIT_MEM
      020003E0H   PUBLIC    XDATA    ---       __MEM_AVAIL__
      01001178H   PUBLIC    CODE     ---       _INIT_MEMPOOL

      ---         MODULE    ---      ---       FREE
      01000A9CH   PUBLIC    CODE     ---       _FREE

      ---         MODULE    ---      ---       ?C_INIT
      01000E62H   PUBLIC    CODE     ---       ?C_START

      ---         MODULE    ---      ---       ?C?IILDX
      01000504H   PUBLIC    CODE     ---       ?C?IILDX

      ---         MODULE    ---      ---       ?C?PLDIDATA
      0100051AH   PUBLIC    CODE     ---       ?C?PLDIDATA

      ---         MODULE    ---      ---       ?C?PSTIDATA
      01000523H   PUBLIC    CODE     ---       ?C?PSTIDATA

      ---         MODULE    ---      ---       ?C?PLDXDATA
      0100052CH   PUBLIC    CODE     ---       ?C?PLDXDATA

      ---         MODULE    ---      ---       ?C?PSTXDATA
      01000535H   PUBLIC    CODE     ---       ?C?PSTXDATA

      ---         MODULE    ---      ---       ?C?PLDPDATA
      0100053EH   PUBLIC    CODE     ---       ?C?PLDPDATA

      ---         MODULE    ---      ---       ?C?PSTPDATA
      01000547H   PUBLIC    CODE     ---       ?C?PSTPDATA

      ---         MODULE    ---      ---       ?C?PLDCODE
      01000550H   PUBLIC    CODE     ---       ?C?PLDCODE

Program Size: data=40.2 xdata=1000 const=0 code=4829
LX51 RUN COMPLETE.  0 WARNING(S),  0 ERROR(S)
