LX51 LINKER/LOCATER V4.66.41.0                                                          06/10/2021  16:03:55  PAGE 1


LX51 LINKER/LOCATER V4.66.41.0, INVOKED BY:
E:\C\KEIL\C51\BIN\LX51.EXE .\Objects\main.obj, .\Objects\uart.obj, .\Objects\iic.obj, .\Objects\env.obj, .\Objects\timer
>> .obj, .\Objects\music.obj, .\Objects\key.obj TO .\Objects\123 PRINT (.\Listings\123.map) REMOVEUNUSED


CPU MODE:     8051 MODE
MEMORY MODEL: SMALL WITH FLOATING POINT ARITHMETIC


INPUT MODULES INCLUDED:
  .\Objects\main.obj (MAIN)
         COMMENT TYPE 0: C51 V9.54
  .\Objects\uart.obj (UART)
         COMMENT TYPE 0: C51 V9.54
  .\Objects\iic.obj (IIC)
         COMMENT TYPE 0: C51 V9.54
  .\Objects\env.obj (ENV)
         COMMENT TYPE 0: C51 V9.54
  .\Objects\timer.obj (TIMER)
         COMMENT TYPE 0: C51 V9.54
  .\Objects\music.obj (MUSIC)
         COMMENT TYPE 0: C51 V9.54
  .\Objects\key.obj (KEY)
         COMMENT TYPE 0: C51 V9.54
  E:\C\KEIL\C51\LIB\C51FPS.LIB (?C?FPDIV)
         COMMENT TYPE 1: A51 / ASM51 Assembler
  E:\C\KEIL\C51\LIB\C51FPS.LIB (?C?FCAST)
         COMMENT TYPE 1: A51 / ASM51 Assembler
  E:\C\KEIL\C51\LIB\C51FPS.LIB (?C?CASTF)
         COMMENT TYPE 1: A51 / ASM51 Assembler
  E:\C\KEIL\C51\LIB\C51FPS.LIB (PRINTF)
         COMMENT TYPE 1: A51 / ASM51 Assembler
  E:\C\KEIL\C51\LIB\C51FPS.LIB (?C?FPGETOPN)
         COMMENT TYPE 1: A51 / ASM51 Assembler
  E:\C\KEIL\C51\LIB\C51FPS.LIB (?C?FPROUND)
         COMMENT TYPE 1: A51 / ASM51 Assembler
  E:\C\KEIL\C51\LIB\C51FPS.LIB (?C?FPCONVERT)
         COMMENT TYPE 1: A51 / ASM51 Assembler
  E:\C\KEIL\C51\LIB\C51FPS.LIB (?C?FPADD)
         COMMENT TYPE 1: A51 / ASM51 Assembler
  E:\C\KEIL\C51\LIB\C51FPS.LIB (?C?FPMUL)
         COMMENT TYPE 1: A51 / ASM51 Assembler
  E:\C\KEIL\C51\LIB\C51FPS.LIB (?C?FTNPWR)
         COMMENT TYPE 1: A51 / ASM51 Assembler
  E:\C\KEIL\C51\LIB\C51S.LIB (?C_STARTUP)
         COMMENT TYPE 1: A51 / ASM51 Assembler
  E:\C\KEIL\C51\LIB\C51S.LIB (?C?COPY)
         COMMENT TYPE 1: A51 / ASM51 Assembler
  E:\C\KEIL\C51\LIB\C51S.LIB (?C?CLDPTR)
         COMMENT TYPE 1: A51 / ASM51 Assembler
  E:\C\KEIL\C51\LIB\C51S.LIB (?C?CLDOPTR)
         COMMENT TYPE 1: A51 / ASM51 Assembler
  E:\C\KEIL\C51\LIB\C51S.LIB (?C?CSTPTR)
         COMMENT TYPE 1: A51 / ASM51 Assembler
  E:\C\KEIL\C51\LIB\C51S.LIB (?C?CSTOPTR)
         COMMENT TYPE 1: A51 / ASM51 Assembler
  E:\C\KEIL\C51\LIB\C51S.LIB (?C?IMUL)
         COMMENT TYPE 1: A51 / ASM51 Assembler
  E:\C\KEIL\C51\LIB\C51S.LIB (?C?UIDIV)
         COMMENT TYPE 1: A51 / ASM51 Assembler
  E:\C\KEIL\C51\LIB\C51S.LIB (?C?ILDOPTR)
         COMMENT TYPE 1: A51 / ASM51 Assembler
  E:\C\KEIL\C51\LIB\C51S.LIB (?C?ISTOPTR)
         COMMENT TYPE 1: A51 / ASM51 Assembler
  E:\C\KEIL\C51\LIB\C51S.LIB (?C?LMUL)
         COMMENT TYPE 1: A51 / ASM51 Assembler
LX51 LINKER/LOCATER V4.66.41.0                                                        06/10/2021  16:03:55  PAGE 2


  E:\C\KEIL\C51\LIB\C51S.LIB (?C?ULDIV)
         COMMENT TYPE 1: A51 / ASM51 Assembler
  E:\C\KEIL\C51\LIB\C51S.LIB (?C?SLDIV)
         COMMENT TYPE 1: A51 / ASM51 Assembler
  E:\C\KEIL\C51\LIB\C51S.LIB (?C?LNEG)
         COMMENT TYPE 1: A51 / ASM51 Assembler
  E:\C\KEIL\C51\LIB\C51S.LIB (?C?SLCMP)
         COMMENT TYPE 1: A51 / ASM51 Assembler
  E:\C\KEIL\C51\LIB\C51S.LIB (?C?ULCMP)
         COMMENT TYPE 1: A51 / ASM51 Assembler
  E:\C\KEIL\C51\LIB\C51S.LIB (?C?ULSHR)
         COMMENT TYPE 1: A51 / ASM51 Assembler
  E:\C\KEIL\C51\LIB\C51S.LIB (?C?SLSHR)
         COMMENT TYPE 1: A51 / ASM51 Assembler
  E:\C\KEIL\C51\LIB\C51S.LIB (?C?LSHL)
         COMMENT TYPE 1: A51 / ASM51 Assembler
  E:\C\KEIL\C51\LIB\C51S.LIB (?C?LSTXDATA)
         COMMENT TYPE 1: A51 / ASM51 Assembler
  E:\C\KEIL\C51\LIB\C51S.LIB (?C?LSTKXDATA)
         COMMENT TYPE 1: A51 / ASM51 Assembler
  E:\C\KEIL\C51\LIB\C51S.LIB (?C?OFFXADD)
         COMMENT TYPE 1: A51 / ASM51 Assembler
  E:\C\KEIL\C51\LIB\C51S.LIB (?C?PLDIIDATA)
         COMMENT TYPE 1: A51 / ASM51 Assembler
  E:\C\KEIL\C51\LIB\C51S.LIB (?C?PLDPTR)
         COMMENT TYPE 1: A51 / ASM51 Assembler
  E:\C\KEIL\C51\LIB\C51S.LIB (?C?PSTPTR)
         COMMENT TYPE 1: A51 / ASM51 Assembler
  E:\C\KEIL\C51\LIB\C51S.LIB (?C?CCASE)
         COMMENT TYPE 1: A51 / ASM51 Assembler
  E:\C\KEIL\C51\LIB\C51S.LIB (PUTCHAR)
         COMMENT TYPE 1: A51 / ASM51 Assembler
  E:\C\KEIL\C51\LIB\C51S.LIB (MALLOC)
         COMMENT TYPE 1: C51 Compiler
  E:\C\KEIL\C51\LIB\C51S.LIB (INIT_MEM)
         COMMENT TYPE 1: C51 Compiler
  E:\C\KEIL\C51\LIB\C51S.LIB (FREE)
         COMMENT TYPE 1: C51 Compiler
  E:\C\KEIL\C51\LIB\C51S.LIB (?C_INIT)
         COMMENT TYPE 1: A51 / ASM51 Assembler
  E:\C\KEIL\C51\LIB\C51S.LIB (?C?IILDX)
         COMMENT TYPE 1: A51 / ASM51 Assembler
  E:\C\KEIL\C51\LIB\C51S.LIB (?C?PLDIDATA)
         COMMENT TYPE 1: A51 / ASM51 Assembler
  E:\C\KEIL\C51\LIB\C51S.LIB (?C?PSTIDATA)
         COMMENT TYPE 1: A51 / ASM51 Assembler
  E:\C\KEIL\C51\LIB\C51S.LIB (?C?PLDXDATA)
         COMMENT TYPE 1: A51 / ASM51 Assembler
  E:\C\KEIL\C51\LIB\C51S.LIB (?C?PSTXDATA)
         COMMENT TYPE 1: A51 / ASM51 Assembler
  E:\C\KEIL\C51\LIB\C51S.LIB (?C?PLDPDATA)
         COMMENT TYPE 1: A51 / ASM51 Assembler
  E:\C\KEIL\C51\LIB\C51S.LIB (?C?PSTPDATA)
         COMMENT TYPE 1: A51 / ASM51 Assembler
  E:\C\KEIL\C51\LIB\C51S.LIB (?C?PLDCODE)
         COMMENT TYPE 1: A51 / ASM51 Assembler


ACTIVE MEMORY CLASSES OF MODULE:  .\Objects\123 (MAIN)

BASE        START       END         USED      MEMORY CLASS
==========================================================
C:000000H   C:000000H   C:00FFFFH   002EEDH   CODE
I:000000H   I:000000H   I:00007FH   000061H   DATA
I:000020H.0 I:000020H.0 I:00002FH.7 000002H.2 BIT
LX51 LINKER/LOCATER V4.66.41.0                                                        06/10/2021  16:03:55  PAGE 3


X:000000H   X:000000H   X:00FFFFH   0003CAH   XDATA
I:000000H   I:000000H   I:0000FFH   000001H   IDATA


MEMORY MAP OF MODULE:  .\Objects\123 (MAIN)


START     STOP      LENGTH    ALIGN  RELOC    MEMORY CLASS   SEGMENT NAME
=========================================================================

* * * * * * * * * * *   D A T A   M E M O R Y   * * * * * * * * * * * * *
000000H   000007H   000008H   ---    AT..     DATA           "REG BANK 0"
000008H   000014H   00000DH   BYTE   UNIT     DATA           ?DT?ENV
000015H   00001AH   000006H   BYTE   UNIT     DATA           ?DT?TIMER
00001BH   00001EH   000004H   BYTE   UNIT     DATA           ?DT?KEY
00001FH   00001FH   000001H   BYTE   UNIT     DATA           ?DT?MAIN
000020H.0 000021H.0 000001H.1 BIT    UNIT     BIT            _BIT_GROUP_
000021H.1 000021H.5 000000H.5 BIT    UNIT     BIT            ?BI?MAIN
000021H.6 000021H.7 000000H.2 BIT    UNIT     BIT            ?BI?TIMER
000022H.0 000022H.1 000000H.2 BIT    UNIT     BIT            ?BI?KEY
000022H.2 000022H   000000H.6 ---    ---      **GAP**
000023H   000061H   00003FH   BYTE   UNIT     DATA           _DATA_GROUP_
000062H   000062H   000001H   BYTE   UNIT     DATA           ?DT?UART
000063H   000063H   000001H   BYTE   UNIT     DATA           ?DT?MUSIC
000064H   000064H   000001H   BYTE   UNIT     IDATA          ?STACK

* * * * * * * * * * *   C O D E   M E M O R Y   * * * * * * * * * * * * *
000000H   000002H   000003H   ---    OFFS..   CODE           ?CO??C_STARTUP?0
000003H   000007H   000005H   BYTE   UNIT     CODE           ?PR?DELAY30US?ENV
000008H   00000AH   000003H   BYTE   UNIT     CODE           ?CO?UART
00000BH   00000DH   000003H   BYTE   OFFS..   CODE           ?TIMER?0000B
00000EH   00001FH   000012H   BYTE   UNIT     CODE           ?PR?_LIGHT_WRITE?ENV
000020H   000022H   000003H   BYTE   UNIT     CODE           ?PR?CLOCK_START?MUSIC
000023H   000025H   000003H   BYTE   OFFS..   CODE           ?MAIN?00023
000026H   00003DH   000018H   BYTE   UNIT     CODE           ?PR?UART2INIT?UART
00003EH   000042H   000005H   BYTE   UNIT     CODE           ?PR?MUSIC_INIT?MUSIC
000043H   000045H   000003H   BYTE   OFFS..   CODE           ?MAIN?00043
000046H   000A52H   000A0DH   BYTE   UNIT     CODE           ?C?LIB_CODE
000A53H   000EC1H   00046FH   BYTE   UNIT     CODE           ?PR?PRINTF?PRINTF
000EC2H   001195H   0002D4H   BYTE   UNIT     CODE           ?PR?GET_PRESSURE?ENV
001196H   001388H   0001F3H   BYTE   UNIT     CODE           ?CO?MAIN
001389H   001554H   0001CCH   BYTE   UNIT     CODE           ?PR?_CHANGETONOWTIME?TIMER
001555H   00168FH   00013BH   BYTE   UNIT     CODE           ?PR?_NUM_TO_STR?UART
001690H   0017B6H   000127H   BYTE   UNIT     CODE           ?PR?T0_TIME?TIMER
0017B7H   0018C7H   000111H   BYTE   UNIT     CODE           ?PR?_PARSECLASS?TIMER
0018C8H   0019D4H   00010DH   BYTE   UNIT     CODE           ?PR?_CONVERSION?ENV
0019D5H   001AD8H   000104H   BYTE   UNIT     CODE           ?PR?_FREE?FREE
001AD9H   001BD7H   0000FFH   BYTE   UNIT     CODE           ?PR?CHECKCLOCK?TIMER
001BD8H   001C9DH   0000C6H   BYTE   UNIT     CODE           ?PR?SHOWTIME?TIMER
001C9EH   001D5FH   0000C2H   BYTE   UNIT     CODE           ?PR?GET_TEMPERATURE?ENV
001D60H   001E1FH   0000C0H   BYTE   UNIT     CODE           ?PR?UARTEVENT?MAIN
001E20H   001ED7H   0000B8H   BYTE   UNIT     CODE           ?PR?TIME0_INIT?TIMER
001ED8H   001F89H   0000B2H   BYTE   UNIT     CODE           ?C_INITSEG
001F8AH   002025H   00009CH   BYTE   UNIT     CODE           ?PR?_MALLOC?MALLOC
002026H   0020C0H   00009BH   BYTE   UNIT     CODE           ?CO?TIMER
0020C1H   00215AH   00009AH   BYTE   UNIT     CODE           ?PR?GETALLENV?ENV
00215BH   0021EAH   000090H   BYTE   UNIT     CODE           ?PR?PRESS_INIT?ENV
0021EBH   002279H   00008FH   BYTE   UNIT     CODE           ?CO?ENV
00227AH   002305H   00008CH   BYTE   UNIT     CODE           ?C_C51STARTUP
002306H   002390H   00008BH   BYTE   UNIT     CODE           ?PR?_ADDCLOCK?TIMER
002391H   002419H   000089H   BYTE   UNIT     CODE           ?PR?_DELETECLOCK?TIMER
00241AH   002497H   00007EH   BYTE   UNIT     CODE           ?PR?GETDATA?ENV
002498H   002512H   00007BH   BYTE   UNIT     CODE           ?PR?_STRINCLUDE?UART
002513H   002587H   000075H   BYTE   UNIT     CODE           ?PR?MAIN?MAIN
002588H   0025F5H   00006EH   BYTE   UNIT     CODE           ?PR?_SENDTODOOR?MAIN
LX51 LINKER/LOCATER V4.66.41.0                                                        06/10/2021  16:03:55  PAGE 4


0025F6H   002663H   00006EH   BYTE   UNIT     CODE           ?PR?_SENDTOLIGHT?MAIN
002664H   0026D1H   00006EH   BYTE   UNIT     CODE           ?PR?_SENDTOSERVE?MAIN
0026D2H   00273AH   000069H   BYTE   UNIT     CODE           ?PR?SER?MAIN
00273BH   002797H   00005DH   BYTE   UNIT     CODE           ?PR?LIGHT_READ?ENV
002798H   0027E3H   00004CH   BYTE   UNIT     CODE           ?PR?UART2_ISR?MAIN
0027E4H   00282CH   000049H   BYTE   UNIT     CODE           ?PR?_UART2ADDCHAR?UART
00282DH   002875H   000049H   BYTE   UNIT     CODE           ?PR?SHOWLIGHT?ENV
002876H   0028BDH   000048H   BYTE   UNIT     CODE           ?PR?SHOWTEMPERATURE?ENV
0028BEH   002902H   000045H   BYTE   UNIT     CODE           ?PR?GETLIGHTSTR?ENV
002903H   002947H   000045H   BYTE   UNIT     CODE           ?PR?_PRESS_MULTIPLE_READ?ENV
002948H   00298BH   000044H   BYTE   UNIT     CODE           ?C?LDIV
00298CH   0029CDH   000042H   BYTE   UNIT     CODE           ?PR?GETTEMPSTR?ENV
0029CEH   002A0FH   000042H   BYTE   UNIT     CODE           ?PR?GETPRESSURESTR?ENV
002A10H   002A4FH   000040H   BYTE   UNIT     CODE           ?PR?GETWETSTR?ENV
002A50H   002A8BH   00003CH   BYTE   UNIT     CODE           ?PR?_UARTSEND?UART
002A8CH   002AC7H   00003CH   BYTE   UNIT     CODE           ?PR?_PLAY_ONE?MUSIC
002AC8H   002B03H   00003CH   BYTE   UNIT     CODE           ?PR?_INIT_MEMPOOL?INIT_MEM
002B04H   002B3BH   000038H   BYTE   UNIT     CODE           ?PR?SHOWPRESS?ENV
002B3CH   002B6EH   000033H   BYTE   UNIT     CODE           ?PR?TIME_UPDATE?TIMER
002B6FH   002B9FH   000031H   BYTE   UNIT     CODE           ?PR?UART2SEND?UART
002BA0H   002BCFH   000030H   BYTE   UNIT     CODE           ?PR?_UART2ADDCHARLEN?UART
002BD0H   002BFFH   000030H   BYTE   UNIT     CODE           ?PR?SHOWWET?ENV
002C00H   002C2FH   000030H   BYTE   UNIT     CODE           ?PR?_ISRUN?TIMER
002C30H   002C5EH   00002FH   BYTE   UNIT     CODE           ?PR?SHOWWORK?MAIN
002C5FH   002C8BH   00002DH   BYTE   UNIT     CODE           ?PR?CONNECTSERVICE?MAIN
002C8CH   002CB7H   00002CH   BYTE   UNIT     CODE           ?PR?_DELAY1MS?MAIN
002CB8H   002CE3H   00002CH   BYTE   UNIT     CODE           ?PR?_DELAY?ENV
002CE4H   002D0FH   00002CH   BYTE   UNIT     CODE           ?PR?_DELAYS?MUSIC
002D10H   002D36H   000027H   BYTE   UNIT     CODE           ?PR?PUTCHAR?PUTCHAR
002D37H   002D5AH   000024H   BYTE   UNIT     CODE           ?PR?BMP085READPRESSURE?ENV
002D5BH   002D7BH   000021H   BYTE   UNIT     CODE           ?PR?_WRITE_BYTE?IIC
002D7CH   002D9BH   000020H   BYTE   UNIT     CODE           ?PR?READ_BYTE?IIC
002D9CH   002DBAH   00001FH   BYTE   UNIT     CODE           ?PR?UPDATASENSOR?MAIN
002DBBH   002DD9H   00001FH   BYTE   UNIT     CODE           ?PR?BMP085READTEMP?ENV
002DDAH   002DF0H   000017H   BYTE   UNIT     CODE           ?PR?_ES2?UART
002DF1H   002E07H   000017H   BYTE   UNIT     CODE           ?PR?_S2RI?UART
002E08H   002E1EH   000017H   BYTE   UNIT     CODE           ?PR?_S2TI?UART
002E1FH   002E34H   000016H   BYTE   UNIT     CODE           ?PR?SHOWDOORSTATE?MAIN
002E35H   002E4AH   000016H   BYTE   UNIT     CODE           ?PR?SHOWLIGHTSTATE?MAIN
002E4BH   002E60H   000016H   BYTE   UNIT     CODE           ?PR?UARTINIT?UART
002E61H   002E71H   000011H   BYTE   UNIT     CODE           ?PR?LIGHT_START?ENV
002E72H   002E81H   000010H   BYTE   UNIT     CODE           ?PR?WAITUART?MAIN
002E82H   002E90H   00000FH   BYTE   UNIT     CODE           ?PR?DELAY?IIC
002E91H   002E9FH   00000FH   BYTE   UNIT     CODE           ?PR?START?IIC
002EA0H   002EADH   00000EH   BYTE   UNIT     CODE           ?PR?SEND_RESPONS?IIC
002EAEH   002EBAH   00000DH   BYTE   UNIT     CODE           ?PR?DELAY20MS?ENV
002EBBH   002EC6H   00000CH   BYTE   UNIT     CODE           ?PR?UART2SENDEND?UART
002EC7H   002ED2H   00000CH   BYTE   UNIT     CODE           ?PR?STOP?IIC
002ED3H   002EDCH   00000AH   BYTE   UNIT     CODE           ?PR?REC_RESPONS?IIC
002EDDH   002EE5H   000009H   BYTE   UNIT     CODE           ?PR?_UART2SENDCHAR?UART
002EE6H   002EE9H   000004H   BYTE   UNIT     CODE           ?PR?UART2CLEAR?UART
002EEAH   002EECH   000003H   BYTE   UNIT     CODE           ?PR?CLOCK_STOP?MUSIC

* * * * * * * * * * *  X D A T A   M E M O R Y  * * * * * * * * * * * * *
000000H   0002A7H   0002A8H   BYTE   UNIT     XDATA          ?XD?TIMER
0002A8H   000313H   00006CH   BYTE   UNIT     XDATA          ?XD?UART
000314H   000379H   000066H   BYTE   UNIT     XDATA          ?XD?MAIN
00037AH   0003C1H   000048H   BYTE   UNIT     XDATA          ?XD?ENV
0003C2H   0003C9H   000008H   BYTE   UNIT     XDATA          ?XD?INIT_MEM

* * * * * * * * *   R E M O V E D     S E G M E N T S   * * * * * * * *
   *DEL*:           000006H   BYTE   UNIT     CODE           ?PR?CHECKBUSY?MAIN
   *DEL*:           000099H   BYTE   UNIT     CODE           ?PR?_UARTSEND_NUMBER?UART
   *DEL*:           000011H   BYTE   UNIT     DATA           ?DT?_UARTSEND_NUMBER?UART
   *DEL*:           00000AH   BYTE   UNIT     CODE           ?PR?INIT?IIC
LX51 LINKER/LOCATER V4.66.41.0                                                        06/10/2021  16:03:55  PAGE 5


   *DEL*:           000137H   BYTE   UNIT     CODE           ?PR?_TIMETONUM?TIMER
   *DEL*:           00000CH   BYTE   UNIT     DATA           ?DT?_TIMETONUM?TIMER
   *DEL*:           00009CH   BYTE   UNIT     CODE           ?PR?SHOWCLOCK?TIMER
   *DEL*:           000003H   BYTE   UNIT     DATA           ?DT?SHOWCLOCK?TIMER
   *DEL*:           00000BH   BYTE   UNIT     CODE           ?PR?DELAY10MS?KEY
   *DEL*:           000046H   BYTE   UNIT     CODE           ?PR?_GETBIT?KEY
   *DEL*:           000028H   BYTE   UNIT     CODE           ?PR?SCANKEY?KEY
   *DEL*:           000000H.1 BIT    UNIT     BIT            ?BI?SCANKEY?KEY
   *DEL*:           00007BH   BYTE   UNIT     CODE           ?PR?SCANMATRICKEY?KEY
   *DEL*:           000000H.1 BIT    UNIT     BIT            ?BI?SCANMATRICKEY?KEY



OVERLAY MAP OF MODULE:   .\Objects\123 (MAIN)


FUNCTION/MODULE                BIT_GROUP   DATA_GROUP 
--> CALLED FUNCTION/MODULE    START  STOP  START  STOP
======================================================
SER/MAIN                      ----- -----  ----- -----

*** NEW ROOT ****************

UART2_ISR/MAIN                ----- -----  ----- -----
  +--> _S2RI/UART

_S2RI/UART                    ----- -----  ----- -----

*** NEW ROOT ****************

T0_TIME/TIMER                 ----- -----  ----- -----
  +--> CLOCK_STOP/MUSIC

CLOCK_STOP/MUSIC              ----- -----  ----- -----

*** NEW ROOT ****************

?C_C51STARTUP                 ----- -----  ----- -----
  +--> MAIN/MAIN
  +--> ?C_INITSEG

MAIN/MAIN                     ----- -----  ----- -----
  +--> _DELAY1MS/MAIN
  +--> TIME0_INIT/TIMER
  +--> UARTINIT/UART
  +--> CONNECTSERVICE/MAIN
  +--> UART2INIT/UART
  +--> UART2CLEAR/UART
  +--> ?CO?MAIN
  +--> _UART2ADDCHAR/UART
  +--> UART2SENDEND/UART
  +--> PRESS_INIT/ENV
  +--> MUSIC_INIT/MUSIC
  +--> UPDATASENSOR/MAIN
  +--> CLOCK_START/MUSIC
  +--> TIME_UPDATE/TIMER
  +--> SHOWTIME/TIMER
  +--> UARTEVENT/MAIN

_DELAY1MS/MAIN                ----- -----  ----- -----

TIME0_INIT/TIMER              ----- -----  ----- -----
  +--> _INIT_MEMPOOL/INIT_MEM
  +--> _MALLOC/MALLOC
  +--> _ADDCLOCK/TIMER
LX51 LINKER/LOCATER V4.66.41.0                                                        06/10/2021  16:03:55  PAGE 6


  +--> _DELETECLOCK/TIMER
  +--> ?CO?TIMER
  +--> _PARSECLASS/TIMER
  +--> _CHANGETONOWTIME/TIMER

_INIT_MEMPOOL/INIT_MEM        ----- -----  ----- -----

_MALLOC/MALLOC                ----- -----  002AH 002DH

_ADDCLOCK/TIMER               ----- -----  0023H 0029H
  +--> _MALLOC/MALLOC

_DELETECLOCK/TIMER            ----- -----  0023H 002AH
  +--> _FREE/FREE

_FREE/FREE                    ----- -----  002BH 002EH

?CO?TIMER                     ----- -----  ----- -----

_PARSECLASS/TIMER             ----- -----  0023H 002AH

_CHANGETONOWTIME/TIMER        ----- -----  0023H 002FH
  +--> _ISRUN/TIMER

_ISRUN/TIMER                  ----- -----  ----- -----

UARTINIT/UART                 ----- -----  ----- -----

CONNECTSERVICE/MAIN           ----- -----  ----- -----
  +--> ?CO?MAIN
  +--> _UARTSEND/UART
  +--> WAITUART/MAIN
  +--> _SENDTOSERVE/MAIN

?CO?MAIN                      ----- -----  ----- -----

_UARTSEND/UART                ----- -----  0046H 0048H

WAITUART/MAIN                 ----- -----  ----- -----
  +--> _DELAY1MS/MAIN

_SENDTOSERVE/MAIN             ----- -----  0023H 0045H
  +--> ?CO?MAIN
  +--> PRINTF/PRINTF
  +--> _UARTSEND/UART
  +--> WAITUART/MAIN

PRINTF/PRINTF                 20H.0 21H.0  0046H 0061H
  +--> PUTCHAR/PUTCHAR

PUTCHAR/PUTCHAR               ----- -----  ----- -----

UART2INIT/UART                ----- -----  ----- -----

UART2CLEAR/UART               ----- -----  ----- -----

_UART2ADDCHAR/UART            ----- -----  0024H 0026H

UART2SENDEND/UART             ----- -----  ----- -----
  +--> ?CO?UART
  +--> _UART2ADDCHAR/UART
  +--> UART2SEND/UART

?CO?UART                      ----- -----  ----- -----

LX51 LINKER/LOCATER V4.66.41.0                                                        06/10/2021  16:03:55  PAGE 7


UART2SEND/UART                ----- -----  ----- -----
  +--> _ES2/UART
  +--> _S2TI/UART
  +--> UART2CLEAR/UART

_ES2/UART                     ----- -----  ----- -----

_S2TI/UART                    ----- -----  ----- -----

PRESS_INIT/ENV                ----- -----  ----- -----
  +--> _PRESS_MULTIPLE_READ/ENV

_PRESS_MULTIPLE_READ/ENV      ----- -----  004BH 004DH
  +--> _DELAY/ENV
  +--> START/IIC
  +--> _WRITE_BYTE/IIC
  +--> READ_BYTE/IIC
  +--> SEND_RESPONS/IIC
  +--> STOP/IIC

_DELAY/ENV                    ----- -----  ----- -----

START/IIC                     ----- -----  ----- -----
  +--> DELAY/IIC

DELAY/IIC                     ----- -----  ----- -----

_WRITE_BYTE/IIC               ----- -----  ----- -----
  +--> DELAY/IIC
  +--> REC_RESPONS/IIC

REC_RESPONS/IIC               ----- -----  ----- -----
  +--> DELAY/IIC

READ_BYTE/IIC                 ----- -----  ----- -----
  +--> DELAY/IIC

SEND_RESPONS/IIC              20H.0 20H.0  ----- -----
  +--> DELAY/IIC

STOP/IIC                      ----- -----  ----- -----
  +--> DELAY/IIC

MUSIC_INIT/MUSIC              ----- -----  ----- -----

UPDATASENSOR/MAIN             ----- -----  ----- -----
  +--> SHOWTEMPERATURE/ENV
  +--> SHOWPRESS/ENV
  +--> SHOWLIGHT/ENV
  +--> SHOWWET/ENV
  +--> SHOWDOORSTATE/MAIN
  +--> SHOWLIGHTSTATE/MAIN
  +--> SHOWWORK/MAIN
  +--> GETALLENV/ENV
  +--> _SENDTOSERVE/MAIN

SHOWTEMPERATURE/ENV           ----- -----  ----- -----
  +--> GET_TEMPERATURE/ENV
  +--> GETTEMPSTR/ENV
  +--> UART2CLEAR/UART
  +--> ?CO?ENV
  +--> _UART2ADDCHAR/UART
  +--> _UART2ADDCHARLEN/UART
  +--> UART2SENDEND/UART

LX51 LINKER/LOCATER V4.66.41.0                                                        06/10/2021  16:03:55  PAGE 8


GET_TEMPERATURE/ENV           ----- -----  0023H 0032H
  +--> BMP085READTEMP/ENV

BMP085READTEMP/ENV            ----- -----  ----- -----
  +--> START/IIC
  +--> _WRITE_BYTE/IIC
  +--> STOP/IIC
  +--> _PRESS_MULTIPLE_READ/ENV

GETTEMPSTR/ENV                ----- -----  ----- -----
  +--> _CONVERSION/ENV

_CONVERSION/ENV               ----- -----  0024H 0027H

?CO?ENV                       ----- -----  ----- -----

_UART2ADDCHARLEN/UART         ----- -----  0023H 0025H

SHOWPRESS/ENV                 ----- -----  ----- -----
  +--> GET_PRESSURE/ENV
  +--> GETPRESSURESTR/ENV
  +--> UART2CLEAR/UART
  +--> ?CO?ENV
  +--> _UART2ADDCHAR/UART
  +--> UART2SENDEND/UART

GET_PRESSURE/ENV              ----- -----  0023H 004AH
  +--> BMP085READPRESSURE/ENV

BMP085READPRESSURE/ENV        ----- -----  ----- -----
  +--> START/IIC
  +--> _WRITE_BYTE/IIC
  +--> STOP/IIC
  +--> _PRESS_MULTIPLE_READ/ENV

GETPRESSURESTR/ENV            ----- -----  ----- -----
  +--> _CONVERSION/ENV

SHOWLIGHT/ENV                 ----- -----  0023H 0023H
  +--> LIGHT_START/ENV
  +--> LIGHT_READ/ENV
  +--> GETLIGHTSTR/ENV
  +--> UART2CLEAR/UART
  +--> ?CO?ENV
  +--> _UART2ADDCHAR/UART
  +--> UART2SENDEND/UART

LIGHT_START/ENV               ----- -----  ----- -----
  +--> _LIGHT_WRITE/ENV
  +--> _DELAY/ENV

_LIGHT_WRITE/ENV              ----- -----  0024H 0024H
  +--> START/IIC
  +--> _WRITE_BYTE/IIC
  +--> STOP/IIC

LIGHT_READ/ENV                ----- -----  0024H 002CH
  +--> START/IIC
  +--> _WRITE_BYTE/IIC
  +--> READ_BYTE/IIC
  +--> SEND_RESPONS/IIC
  +--> STOP/IIC
  +--> _DELAY/ENV

GETLIGHTSTR/ENV               ----- -----  ----- -----
LX51 LINKER/LOCATER V4.66.41.0                                                        06/10/2021  16:03:55  PAGE 9


  +--> _CONVERSION/ENV

SHOWWET/ENV                   ----- -----  ----- -----
  +--> GETDATA/ENV
  +--> GETWETSTR/ENV
  +--> UART2CLEAR/UART
  +--> ?CO?ENV
  +--> _UART2ADDCHAR/UART
  +--> UART2SENDEND/UART

GETDATA/ENV                   ----- -----  ----- -----
  +--> DELAY20MS/ENV
  +--> DELAY30US/ENV

DELAY20MS/ENV                 ----- -----  ----- -----

DELAY30US/ENV                 ----- -----  ----- -----

GETWETSTR/ENV                 ----- -----  ----- -----
  +--> _CONVERSION/ENV

SHOWDOORSTATE/MAIN            ----- -----  ----- -----
  +--> UART2CLEAR/UART
  +--> ?CO?MAIN
  +--> _UART2SENDCHAR/UART

_UART2SENDCHAR/UART           ----- -----  ----- -----
  +--> UART2CLEAR/UART
  +--> _UART2ADDCHAR/UART
  +--> UART2SENDEND/UART

SHOWLIGHTSTATE/MAIN           ----- -----  ----- -----
  +--> UART2CLEAR/UART
  +--> ?CO?MAIN
  +--> _UART2SENDCHAR/UART

SHOWWORK/MAIN                 ----- -----  ----- -----
  +--> UART2CLEAR/UART
  +--> ?CO?MAIN
  +--> _UART2ADDCHAR/UART
  +--> _NUM_TO_STR/UART
  +--> UART2SENDEND/UART

_NUM_TO_STR/UART              ----- -----  0023H 002CH

GETALLENV/ENV                 ----- -----  ----- -----
  +--> GETTEMPSTR/ENV
  +--> ?CO?ENV
  +--> PRINTF/PRINTF
  +--> GETPRESSURESTR/ENV
  +--> GETWETSTR/ENV
  +--> GETLIGHTSTR/ENV

CLOCK_START/MUSIC             ----- -----  ----- -----

TIME_UPDATE/TIMER             ----- -----  ----- -----
  +--> _CHANGETONOWTIME/TIMER
  +--> CHECKCLOCK/TIMER

CHECKCLOCK/TIMER              ----- -----  0023H 0026H
  +--> CLOCK_START/MUSIC
  +--> ?CO?TIMER
  +--> _PLAY_ONE/MUSIC

_PLAY_ONE/MUSIC               ----- -----  0027H 0027H
LX51 LINKER/LOCATER V4.66.41.0                                                        06/10/2021  16:03:55  PAGE 10


  +--> _DELAYS/MUSIC

_DELAYS/MUSIC                 ----- -----  ----- -----

SHOWTIME/TIMER                ----- -----  ----- -----
  +--> UART2CLEAR/UART
  +--> ?CO?TIMER
  +--> _UART2ADDCHAR/UART
  +--> _NUM_TO_STR/UART
  +--> UART2SENDEND/UART

UARTEVENT/MAIN                ----- -----  ----- -----
  +--> ?CO?MAIN
  +--> _STRINCLUDE/UART
  +--> _SENDTODOOR/MAIN
  +--> _SENDTOLIGHT/MAIN
  +--> _PARSECLASS/TIMER

_STRINCLUDE/UART              ----- -----  0023H 002CH

_SENDTODOOR/MAIN              ----- -----  0023H 0045H
  +--> ?CO?MAIN
  +--> PRINTF/PRINTF
  +--> _UARTSEND/UART
  +--> WAITUART/MAIN

_SENDTOLIGHT/MAIN             ----- -----  0023H 0045H
  +--> ?CO?MAIN
  +--> PRINTF/PRINTF
  +--> _UARTSEND/UART
  +--> WAITUART/MAIN

?C_INITSEG                    ----- -----  ----- -----



PUBLIC SYMBOLS OF MODULE:  .\Objects\123 (MAIN)


      VALUE       CLASS    TYPE      PUBLIC SYMBOL NAME
      =================================================
      00000023H   DATA     BYTE      ?_addClock?BYTE
      00000023H   DATA     BYTE      ?_num_to_Str?BYTE
      00000046H   DATA     ---       ?_PRINTF?BYTE
      00000046H   DATA     ---       ?_SPRINTF?BYTE
      00000023H   DATA     BYTE      ?_strInclude?BYTE
*DEL*:00000000H   DATA     BYTE      ?_timeToNum?BYTE
      01000124H   CODE     ---       ?C?CASTF
      010009D5H   CODE     ---       ?C?CCASE
      01000654H   CODE     ---       ?C?CLDOPTR
      0100063BH   CODE     ---       ?C?CLDPTR
      00000000H   NUMBER   ---       ?C?CODESEG
      01000615H   CODE     ---       ?C?COPY
      01000693H   CODE     ---       ?C?CSTOPTR
      01000681H   CODE     ---       ?C?CSTPTR
      010000F0H   CODE     ---       ?C?FCASTC
      010000EBH   CODE     ---       ?C?FCASTI
      010000E6H   CODE     ---       ?C?FCASTL
      010002DEH   CODE     ---       ?C?FPADD
      010001D4H   CODE     ---       ?C?FPCONVERT
      01000049H   CODE     ---       ?C?FPDIV
      0100015BH   CODE     ---       ?C?FPGETOPN2
      010003CFH   CODE     ---       ?C?FPMUL
      01000190H   CODE     ---       ?C?FPNANRESULT
      0100019AH   CODE     ---       ?C?FPOVERFLOW
LX51 LINKER/LOCATER V4.66.41.0                                                        06/10/2021  16:03:55  PAGE 11


      01000172H   CODE     ---       ?C?FPRESULT
      01000186H   CODE     ---       ?C?FPRESULT2
      010001A5H   CODE     ---       ?C?FPROUND
      010002DAH   CODE     ---       ?C?FPSUB
      01000197H   CODE     ---       ?C?FPUNDERFLOW
      01000505H   CODE     ---       ?C?FTNPWR
      010009FBH   CODE     ---       ?C?IILDX
      0100071CH   CODE     ---       ?C?ILDOPTR
      010006B5H   CODE     ---       ?C?IMUL
      01000754H   CODE     ---       ?C?ISTOPTR
      01000781H   CODE     ---       ?C?LMUL
      0100089EH   CODE     ---       ?C?LNEG
      010008FAH   CODE     ---       ?C?LSHL
      01000919H   CODE     ---       ?C?LSTKXDATA
      0100090DH   CODE     ---       ?C?LSTXDATA
      0100094AH   CODE     ---       ?C?OFFXADD
      01000A47H   CODE     ---       ?C?PLDCODE
      01000A11H   CODE     ---       ?C?PLDIDATA
      01000956H   CODE     ---       ?C?PLDIIDATA
      01000A35H   CODE     ---       ?C?PLDPDATA
      01000966H   CODE     ---       ?C?PLDPTR
      01000A23H   CODE     ---       ?C?PLDXDATA
      01000A1AH   CODE     ---       ?C?PSTIDATA
      01000A3EH   CODE     ---       ?C?PSTPDATA
      01000986H   CODE     ---       ?C?PSTPTR
      01000A2CH   CODE     ---       ?C?PSTXDATA
      010008ACH   CODE     ---       ?C?SLCMP
      01002948H   CODE     ---       ?C?SLDIV
      010008E6H   CODE     ---       ?C?SLSHR
      010006C7H   CODE     ---       ?C?UIDIV
      010008C2H   CODE     ---       ?C?ULCMP
      0100080CH   CODE     ---       ?C?ULDIV
      010008D3H   CODE     ---       ?C?ULSHR
      00000000H   NUMBER   ---       ?C?XDATASEG
      010022C1H   CODE     ---       ?C_START
      01000000H   CODE     ---       ?C_STARTUP
*DEL*:00000000H.0 BIT      BIT       ?scanKey?BIT
*DEL*:00000000H.0 BIT      BIT       ?scanMatricKey?BIT
      00000020H.0 BIT      BIT       ?send_respons?BIT
      020003C2H   XDATA    ---       __mem_avail__
      01002306H   CODE     ---       _addClock
      01001389H   CODE     ---       _changeToNowTime
      010018C8H   CODE     ---       _conversion
      01002CB8H   CODE     ---       _delay
      01002C8CH   CODE     ---       _delay1ms
      01002CE4H   CODE     ---       _delays
      01002391H   CODE     ---       _deleteClock
      01002DDAH   CODE     ---       _ES2
      010019D5H   CODE     ---       _free
*DEL*:00000008H   CODE     ---       _getBit
      01002AC8H   CODE     ---       _init_mempool
      01002C08H   CODE     ---       _isRun
      0100000EH   CODE     ---       _light_write
      01001F8AH   CODE     ---       _malloc
      01001555H   CODE     ---       _num_to_Str
      010017B7H   CODE     ---       _parseClass
      01002A8CH   CODE     ---       _play_one
      0100290CH   CODE     ---       _press_Multiple_read
      01000AB5H   CODE     ---       _PRINTF
      01002D10H   CODE     ---       _PUTCHAR
      01002DF1H   CODE     ---       _S2RI
      01002E08H   CODE     ---       _S2TI
      01002588H   CODE     ---       _sendToDoor
      010025F6H   CODE     ---       _sendToLight
      01002664H   CODE     ---       _sendToServe
LX51 LINKER/LOCATER V4.66.41.0                                                        06/10/2021  16:03:55  PAGE 12


      01000AAFH   CODE     ---       _SPRINTF
      01002498H   CODE     ---       _strInclude
*DEL*:00000000H   CODE     ---       _timeToNum
      010027E4H   CODE     ---       _uart2AddChar
      01002BA0H   CODE     ---       _uart2AddCharLen
      01002EDDH   CODE     ---       _uart2SendChar
      01002A50H   CODE     ---       _uartSend
*DEL*:00000000H   CODE     ---       _uartSend_number
      01002D5BH   CODE     ---       _write_byte
*SFR* 000000D0H.6 DATA     BIT       AC
      020003B6H   XDATA    INT       ac1
      020003B8H   XDATA    INT       ac2
      020003BAH   XDATA    INT       ac3
      020003BCH   XDATA    WORD      ac4
      020003BEH   XDATA    WORD      ac5
      020003C0H   XDATA    WORD      ac6
*SFR* 000000E0H   DATA     BYTE      ACC
*SFR* 000000BCH   DATA     BYTE      ADC_CONTR
*SFR* 000000BDH   DATA     BYTE      ADC_RES
*SFR* 000000BEH   DATA     BYTE      ADC_RESL
*SFR* 0000008EH   DATA     BYTE      AUXR
*SFR* 000000A2H   DATA     BYTE      AUXR1
*SFR* 000000F0H   DATA     BYTE      B
      0200037BH   XDATA    INT       b1
      0200037DH   XDATA    INT       b2
      02000380H   XDATA    BYTE      bai
      01002D37H   CODE     ---       bmp085ReadPressure
      01002DBBH   CODE     ---       bmp085ReadTemp
*SFR* 0000009CH   DATA     BYTE      BRT
*SFR* 000000A1H   DATA     BYTE      BUS_SPEED
      00000021H.3 BIT      BIT       Busy
*SFR* 000000FAH   DATA     BYTE      CCAP0H
*SFR* 000000EAH   DATA     BYTE      CCAP0L
*SFR* 000000FBH   DATA     BYTE      CCAP1H
*SFR* 000000EBH   DATA     BYTE      CCAP1L
*SFR* 000000DAH   DATA     BYTE      CCAPM0
*SFR* 000000DBH   DATA     BYTE      CCAPM1
*SFR* 000000D8H   DATA     BIT       CCF0
*SFR* 000000D8H.1 DATA     BIT       CCF1
*SFR* 000000D8H   DATA     BYTE      CCON
*SFR* 000000D8H.7 DATA     BIT       CF
*SFR* 000000F9H   DATA     BYTE      CH
*DEL*:00000000H   CODE     ---       checkBusy
      01001AD9H   CODE     ---       checkClock
*SFR* 000000E9H   DATA     BYTE      CL
      010020B7H   CODE     ---       class_hour
      010020BCH   CODE     ---       class_minute
*SFR* 00000097H   DATA     BYTE      CLK_DIV
      00000015H   DATA     ---       clock_head
      00000018H   DATA     ---       clock_last
      01000020H   CODE     ---       clock_start
      01002EEAH   CODE     ---       clock_stop
*SFR* 000000D9H   DATA     BYTE      CMOD
      020001C9H   XDATA    LONG      cnt
      01002C5FH   CODE     ---       connectService
      020001DAH   XDATA    WORD      count_down_time
*SFR* 000000D8H.6 DATA     BIT       CR
*SFR* 000000D0H.7 DATA     BIT       CY
      020001C7H   XDATA    BYTE      day
      01002E89H   CODE     ---       delay
*DEL*:00000000H   CODE     ---       Delay10ms
      01002EAEH   CODE     ---       Delay20ms
      01000003H   CODE     ---       Delay30us
      00000021H.5 BIT      BIT       dFlag
      00000021H.4 BIT      BIT       door
LX51 LINKER/LOCATER V4.66.41.0                                                        06/10/2021  16:03:55  PAGE 13


*SFR* 00000083H   DATA     BYTE      DPH
*SFR* 00000082H   DATA     BYTE      DPL
*SFR* 000000A8H.7 DATA     BIT       EA
*SFR* 000000A8H.5 DATA     BIT       EADC
*SFR* 000000A8H.6 DATA     BIT       ELVD
*SFR* 000000A8H.4 DATA     BIT       ES
*SFR* 000000A8H.1 DATA     BIT       ET0
*SFR* 000000A8H.3 DATA     BIT       ET1
*SFR* 000000A8H   DATA     BIT       EX0
*SFR* 000000A8H.2 DATA     BIT       EX1
*SFR* 000000D0H.5 DATA     BIT       F0
      00000021H.2 BIT      BIT       flag
      0200038CH   XDATA    BYTE      ge
      01000EC2H   CODE     ---       get_pressure
      01001C9EH   CODE     ---       get_temperature
      010020C1H   CODE     ---       getAllEnv
      0100241AH   CODE     ---       GetData
      010028BEH   CODE     ---       getLightStr
      010029CEH   CODE     ---       getPressureStr
      0100298CH   CODE     ---       getTempStr
      01002A10H   CODE     ---       getWetStr
      020001C8H   XDATA    BYTE      hour
      00000062H   DATA     BYTE      i2
*SFR* 000000C3H   DATA     BYTE      IAP_ADDRH
*SFR* 000000C4H   DATA     BYTE      IAP_ADDRL
*SFR* 000000C5H   DATA     BYTE      IAP_CMD
*SFR* 000000C7H   DATA     BYTE      IAP_CONTR
*SFR* 000000C2H   DATA     BYTE      IAP_DATA
*SFR* 000000C6H   DATA     BYTE      IAP_TRIG
*SFR* 000000A8H   DATA     BYTE      IE
*SFR* 00000088H.1 DATA     BIT       IE0
*SFR* 00000088H.3 DATA     BIT       IE1
*SFR* 000000AFH   DATA     BYTE      IE2
*DEL*:00000000H   CODE     ---       init
*SFR* 00000080H   DATA     BIT       io1
*SFR* 00000080H.2 DATA     BIT       io2
*SFR* 00000080H.2 DATA     BIT       io3
*SFR* 000000B8H   DATA     BYTE      IP
*SFR* 000000B5H   DATA     BYTE      IP2
*SFR* 000000B7H   DATA     BYTE      IPH
*SFR* 000000B6H   DATA     BYTE      IPH2
*SFR* 00000088H   DATA     BIT       IT0
*SFR* 00000088H.2 DATA     BIT       IT1
      0000001BH   DATA     ---       keys
*SFR* 00000090H.1 DATA     BIT       led
*SFR* 00000090H   DATA     BIT       led1
*SFR* 00000090H.5 DATA     BIT       led5
*SFR* 00000090H.7 DATA     BIT       led7
      00000021H.1 BIT      BIT       light
      0100273BH   CODE     ---       light_read
      01002E61H   CODE     ---       light_start
      01002513H   CODE     ---       main
      0200038DH   XDATA    INT       mb
      0200038FH   XDATA    INT       mc
      02000391H   XDATA    INT       md
      020001E0H   XDATA    ---       mempool
      02000001H   XDATA    BYTE      minute
      02000002H   XDATA    BYTE      month
      020001CDH   XDATA    ---       month_day
      0100003EH   CODE     ---       music_init
      00000063H   DATA     BYTE      N
      020001DCH   XDATA    LONG      nowTime
*SFR* 000000D0H.2 DATA     BIT       OV
*SFR* 000000D0H   DATA     BIT       P
*SFR* 00000080H   DATA     BYTE      P0
LX51 LINKER/LOCATER V4.66.41.0                                                        06/10/2021  16:03:55  PAGE 14


*SFR* 00000080H   DATA     BIT       P00
*SFR* 00000080H.1 DATA     BIT       P01
*SFR* 00000080H.2 DATA     BIT       P02
*SFR* 00000080H.3 DATA     BIT       P03
*SFR* 00000080H.4 DATA     BIT       P04
*SFR* 00000080H.5 DATA     BIT       P05
*SFR* 00000080H.6 DATA     BIT       P06
*SFR* 00000080H.7 DATA     BIT       P07
*SFR* 00000094H   DATA     BYTE      P0M0
*SFR* 00000093H   DATA     BYTE      P0M1
*SFR* 00000090H   DATA     BYTE      P1
*SFR* 00000090H   DATA     BIT       P10
*SFR* 00000090H.1 DATA     BIT       P11
*SFR* 00000090H.2 DATA     BIT       P12
*SFR* 00000090H.3 DATA     BIT       P13
*SFR* 00000090H.4 DATA     BIT       P14
*SFR* 00000090H.5 DATA     BIT       P15
*SFR* 00000090H.6 DATA     BIT       P16
*SFR* 00000090H.7 DATA     BIT       P17
*SFR* 0000009DH   DATA     BYTE      P1ASF
*SFR* 00000092H   DATA     BYTE      P1M0
*SFR* 00000091H   DATA     BYTE      P1M1
*SFR* 000000A0H   DATA     BYTE      P2
*SFR* 000000A0H   DATA     BIT       P20
*SFR* 000000A0H.1 DATA     BIT       P21
*SFR* 000000A0H.2 DATA     BIT       P22
*SFR* 000000A0H.3 DATA     BIT       P23
*SFR* 000000A0H.4 DATA     BIT       P24
*SFR* 000000A0H.5 DATA     BIT       P25
*SFR* 000000A0H.6 DATA     BIT       P26
*SFR* 000000A0H.7 DATA     BIT       P27
*SFR* 00000096H   DATA     BYTE      P2M0
*SFR* 00000095H   DATA     BYTE      P2M1
*SFR* 000000B0H   DATA     BYTE      P3
*SFR* 000000B0H   DATA     BIT       P30
*SFR* 000000B0H.1 DATA     BIT       P31
*SFR* 000000B0H.2 DATA     BIT       P32
*SFR* 000000B0H.3 DATA     BIT       P33
*SFR* 000000B0H.4 DATA     BIT       P34
*SFR* 000000B0H.5 DATA     BIT       P35
*SFR* 000000B0H.6 DATA     BIT       P36
*SFR* 000000B0H.7 DATA     BIT       P37
*SFR* 000000B2H   DATA     BYTE      P3M0
*SFR* 000000B1H   DATA     BYTE      P3M1
*SFR* 000000C0H   DATA     BYTE      P4
*SFR* 000000C0H   DATA     BIT       P40
*SFR* 000000C0H.1 DATA     BIT       P41
*SFR* 000000C0H.2 DATA     BIT       P42
*SFR* 000000C0H.3 DATA     BIT       P43
*SFR* 000000C0H.4 DATA     BIT       P44
*SFR* 000000C0H.5 DATA     BIT       P45
*SFR* 000000C0H.6 DATA     BIT       P46
*SFR* 000000C0H.7 DATA     BIT       P47
*SFR* 000000B4H   DATA     BYTE      P4M0
*SFR* 000000B3H   DATA     BYTE      P4M1
*SFR* 000000BBH   DATA     BYTE      P4SW
*SFR* 000000C8H   DATA     BYTE      P5
*SFR* 000000C8H   DATA     BIT       P50
*SFR* 000000C8H.1 DATA     BIT       P51
*SFR* 000000C8H.2 DATA     BIT       P52
*SFR* 000000C8H.3 DATA     BIT       P53
*SFR* 000000CAH   DATA     BYTE      P5M0
*SFR* 000000C9H   DATA     BYTE      P5M1
*SFR* 000000B8H.5 DATA     BIT       PADC
*SFR* 000000F2H   DATA     BYTE      PCA_PWM0
LX51 LINKER/LOCATER V4.66.41.0                                                        06/10/2021  16:03:55  PAGE 15


*SFR* 000000F3H   DATA     BYTE      PCA_PWM1
*SFR* 00000087H   DATA     BYTE      PCON
*SFR* 000000B8H.6 DATA     BIT       PLVD
      0000001FH   DATA     BYTE      pos
*SFR* 000000B8H.7 DATA     BIT       PPCA
      0100215BH   CODE     ---       press_init
      00000008H   DATA     LONG      pressure
*SFR* 000000B8H.4 DATA     BIT       PS
*SFR* 000000D0H   DATA     BYTE      PSW
*SFR* 000000B8H.1 DATA     BIT       PT0
*SFR* 000000B8H.3 DATA     BIT       PT1
*SFR* 000000B8H   DATA     BIT       PX0
*SFR* 000000B8H.2 DATA     BIT       PX1
      0200037FH   XDATA    BYTE      qian
*SFR* 00000098H.2 DATA     BIT       RB8
      01002D7CH   CODE     ---       read_byte
      01002ED3H   CODE     ---       rec_respons
      02000316H   XDATA    ---       receive
*SFR* 00000098H.4 DATA     BIT       REN
      02000383H   XDATA    ---       res
*SFR* 00000098H   DATA     BIT       RI
*SFR* 000000D0H.3 DATA     BIT       RS0
*SFR* 000000D0H.4 DATA     BIT       RS1
*SFR* 0000009BH   DATA     BYTE      S2BUF
*SFR* 0000009AH   DATA     BYTE      S2CON
*SFR* 000000A9H   DATA     BYTE      SADDR
*SFR* 000000B9H   DATA     BYTE      SADEN
*SFR* 00000099H   DATA     BYTE      SBUF
*DEL*:00000000H   CODE     ---       scanKey
*DEL*:00000000H   CODE     ---       scanMatricKey
*SFR* 000000A0H.1 DATA     BIT       scl
*SFR* 00000098H   DATA     BYTE      SCON
*SFR* 000000A0H   DATA     BIT       sda
      02000000H   XDATA    BYTE      second
      01002EA0H   CODE     ---       send_respons
      00000021H.7 BIT      BIT       sensor_flag
      010026D2H   CODE     ---       ser
      02000381H   XDATA    BYTE      shi
      0200037AH   XDATA    BYTE      shiwan
*DEL*:00000000H   CODE     ---       showClock
      01002E1FH   CODE     ---       showDoorState
      0100282DH   CODE     ---       showLight
      01002E35H   CODE     ---       showLightState
      01002B04H   CODE     ---       showPress
      01002876H   CODE     ---       showTemperature
      01001BD8H   CODE     ---       showTime
      01002BD0H   CODE     ---       showWet
      01002C30H   CODE     ---       showWork
*SFR* 00000098H.7 DATA     BIT       SM0
*SFR* 00000098H.6 DATA     BIT       SM1
*SFR* 00000098H.5 DATA     BIT       SM2
*SFR* 00000081H   DATA     BYTE      SP
*SFR* 000000CEH   DATA     BYTE      SPCTL
*SFR* 000000CFH   DATA     BYTE      SPDAT
*SFR* 000000CDH   DATA     BYTE      SPSTAT
      01002E91H   CODE     ---       start
      01002EC7H   CODE     ---       stop
      020002A8H   XDATA    ---       strRes
      01001690H   CODE     ---       T0_time
*SFR* 00000098H.3 DATA     BIT       TB8
*SFR* 00000088H   DATA     BYTE      TCON
      00000010H   DATA     FLOAT     temp
      02000393H   XDATA    ---       temp1
      0000000CH   DATA     LONG      temperature
*SFR* 00000088H.5 DATA     BIT       TF0
LX51 LINKER/LOCATER V4.66.41.0                                                        06/10/2021  16:03:55  PAGE 16


*SFR* 00000088H.7 DATA     BIT       TF1
*SFR* 0000008CH   DATA     BYTE      TH0
*SFR* 0000008DH   DATA     BYTE      TH1
*SFR* 00000098H.1 DATA     BIT       TI
      01001E20H   CODE     ---       time0_init
      01002B3CH   CODE     ---       time_update
      00000021H.6 BIT      BIT       time_update_flag
      02000005H   XDATA    ---       timetable
*SFR* 0000008AH   DATA     BYTE      TL0
*SFR* 0000008BH   DATA     BYTE      TL1
*SFR* 00000089H   DATA     BYTE      TMOD
*SFR* 00000088H.4 DATA     BIT       TR0
*SFR* 00000088H.6 DATA     BIT       TR1
      01002798H   CODE     ---       uart2_isr
      01002EE6H   CODE     ---       uart2Clear
      01000026H   CODE     ---       uart2Init
      01002B6FH   CODE     ---       uart2Send
      020002B0H   XDATA    ---       uart2SendData
      01002EBBH   CODE     ---       uart2SendEnd
      01001D60H   CODE     ---       uartEvent
      01002E4BH   CODE     ---       uartInit
      01002D9CH   CODE     ---       updataSensor
      01002E72H   CODE     ---       waitUart
*SFR* 0000008FH   DATA     BYTE      WAKE_CLKO
      02000382H   XDATA    BYTE      wan
*SFR* 000000C1H   DATA     BYTE      WDT_CONTR
      020001D9H   XDATA    BYTE      weekDay
      01002086H   CODE     ---       weekDays
*SFR* 000000A0H.2 DATA     BIT       wet
      00000014H   DATA     BYTE      wet_data
      02000314H   XDATA    INT       workTime
      02000003H   XDATA    WORD      year



SYMBOL TABLE OF MODULE:  .\Objects\123 (MAIN)

      VALUE       REP       CLASS    TYPE      SYMBOL NAME
      ====================================================
      ---         MODULE    ---      ---       MAIN
      02000316H   PUBLIC    XDATA    ---       receive
      00000021H.5 PUBLIC    BIT      BIT       dFlag
      02000314H   PUBLIC    XDATA    INT       workTime
      0000001FH   PUBLIC    DATA     BYTE      pos
      00000021H.4 PUBLIC    BIT      BIT       door
      00000021H.3 PUBLIC    BIT      BIT       Busy
      00000021H.2 PUBLIC    BIT      BIT       flag
      00000021H.1 PUBLIC    BIT      BIT       light
      01002513H   PUBLIC    CODE     ---       main
      01002D9CH   PUBLIC    CODE     ---       updataSensor
      01002798H   PUBLIC    CODE     ---       uart2_isr
      01002C5FH   PUBLIC    CODE     ---       connectService
      01002664H   PUBLIC    CODE     ---       _sendToServe
      01001D60H   PUBLIC    CODE     ---       uartEvent
      010025F6H   PUBLIC    CODE     ---       _sendToLight
      01002588H   PUBLIC    CODE     ---       _sendToDoor
      01002E72H   PUBLIC    CODE     ---       waitUart
      010026D2H   PUBLIC    CODE     ---       ser
      01002C30H   PUBLIC    CODE     ---       showWork
      01002E35H   PUBLIC    CODE     ---       showLightState
      01002E1FH   PUBLIC    CODE     ---       showDoorState
      01002C8CH   PUBLIC    CODE     ---       _delay1ms
      00000092H   SFRSYM    DATA     BYTE      P1M0
      00000093H   SFRSYM    DATA     BYTE      P0M1
      00000096H   SFRSYM    DATA     BYTE      P2M0
LX51 LINKER/LOCATER V4.66.41.0                                                        06/10/2021  16:03:55  PAGE 17


      00000091H   SFRSYM    DATA     BYTE      P1M1
      00000080H   SFRSYM    DATA     BYTE      P0
      000000B2H   SFRSYM    DATA     BYTE      P3M0
      00000095H   SFRSYM    DATA     BYTE      P2M1
      00000090H   SFRSYM    DATA     BYTE      P1
      000000B4H   SFRSYM    DATA     BYTE      P4M0
      000000B1H   SFRSYM    DATA     BYTE      P3M1
      000000A0H   SFRSYM    DATA     BYTE      P2
      000000CAH   SFRSYM    DATA     BYTE      P5M0
      000000B3H   SFRSYM    DATA     BYTE      P4M1
      000000B0H   SFRSYM    DATA     BYTE      P3
      000000C9H   SFRSYM    DATA     BYTE      P5M1
      000000C0H   SFRSYM    DATA     BYTE      P4
      000000D0H.6 SFRSYM    DATA     BIT       AC
      000000C8H   SFRSYM    DATA     BYTE      P5
      000000A8H.7 SFRSYM    DATA     BIT       EA
      000000CEH   SFRSYM    DATA     BYTE      SPCTL
      000000D8H.7 SFRSYM    DATA     BIT       CF
      000000F9H   SFRSYM    DATA     BYTE      CH
      000000A8H.5 SFRSYM    DATA     BIT       EADC
      000000A8H   SFRSYM    DATA     BYTE      IE
      000000E9H   SFRSYM    DATA     BYTE      CL
      000000C5H   SFRSYM    DATA     BYTE      IAP_CMD
      000000FAH   SFRSYM    DATA     BYTE      CCAP0H
      000000FBH   SFRSYM    DATA     BYTE      CCAP1H
      000000BDH   SFRSYM    DATA     BYTE      ADC_RES
      000000B6H   SFRSYM    DATA     BYTE      IPH2
      000000EAH   SFRSYM    DATA     BYTE      CCAP0L
      000000D8H.6 SFRSYM    DATA     BIT       CR
      000000EBH   SFRSYM    DATA     BYTE      CCAP1L
      000000DAH   SFRSYM    DATA     BYTE      CCAPM0
      000000DBH   SFRSYM    DATA     BYTE      CCAPM1
      000000A8H.4 SFRSYM    DATA     BIT       ES
      000000B8H.5 SFRSYM    DATA     BIT       PADC
      000000B8H   SFRSYM    DATA     BYTE      IP
      00000098H   SFRSYM    DATA     BIT       RI
      000000D0H.7 SFRSYM    DATA     BIT       CY
      00000098H.1 SFRSYM    DATA     BIT       TI
      00000097H   SFRSYM    DATA     BYTE      CLK_DIV
      000000C3H   SFRSYM    DATA     BYTE      IAP_ADDRH
      000000B8H.4 SFRSYM    DATA     BIT       PS
      00000081H   SFRSYM    DATA     BYTE      SP
      000000C4H   SFRSYM    DATA     BYTE      IAP_ADDRL
      000000D9H   SFRSYM    DATA     BYTE      CMOD
      000000D8H   SFRSYM    DATA     BYTE      CCON
      000000B8H.7 SFRSYM    DATA     BIT       PPCA
      000000D0H.2 SFRSYM    DATA     BIT       OV
      000000A8H.6 SFRSYM    DATA     BIT       ELVD
      000000BBH   SFRSYM    DATA     BYTE      P4SW
      00000080H   SFRSYM    DATA     BIT       P00
      000000BCH   SFRSYM    DATA     BYTE      ADC_CONTR
      00000099H   SFRSYM    DATA     BYTE      SBUF
      00000090H   SFRSYM    DATA     BIT       P10
      00000080H.1 SFRSYM    DATA     BIT       P01
      00000087H   SFRSYM    DATA     BYTE      PCON
      000000A0H   SFRSYM    DATA     BIT       P20
      00000090H.1 SFRSYM    DATA     BIT       P11
      00000080H.2 SFRSYM    DATA     BIT       P02
      000000B0H   SFRSYM    DATA     BIT       P30
      000000A0H.1 SFRSYM    DATA     BIT       P21
      00000090H.2 SFRSYM    DATA     BIT       P12
      00000080H.3 SFRSYM    DATA     BIT       P03
      00000098H   SFRSYM    DATA     BYTE      SCON
      000000C0H   SFRSYM    DATA     BIT       P40
      000000B0H.1 SFRSYM    DATA     BIT       P31
LX51 LINKER/LOCATER V4.66.41.0                                                        06/10/2021  16:03:55  PAGE 18


      000000A0H.2 SFRSYM    DATA     BIT       P22
      00000090H.3 SFRSYM    DATA     BIT       P13
      00000080H.4 SFRSYM    DATA     BIT       P04
      0000008FH   SFRSYM    DATA     BYTE      WAKE_CLKO
      00000089H   SFRSYM    DATA     BYTE      TMOD
      00000088H   SFRSYM    DATA     BYTE      TCON
      000000C8H   SFRSYM    DATA     BIT       P50
      000000C0H.1 SFRSYM    DATA     BIT       P41
      000000B0H.2 SFRSYM    DATA     BIT       P32
      000000A0H.3 SFRSYM    DATA     BIT       P23
      00000090H.4 SFRSYM    DATA     BIT       P14
      00000080H.5 SFRSYM    DATA     BIT       P05
      00000090H.1 SFRSYM    DATA     BIT       led
      000000C8H.1 SFRSYM    DATA     BIT       P51
      000000C0H.2 SFRSYM    DATA     BIT       P42
      000000B0H.3 SFRSYM    DATA     BIT       P33
      000000A0H.4 SFRSYM    DATA     BIT       P24
      00000090H.5 SFRSYM    DATA     BIT       P15
      00000080H.6 SFRSYM    DATA     BIT       P06
      000000C8H.2 SFRSYM    DATA     BIT       P52
      000000C0H.3 SFRSYM    DATA     BIT       P43
      000000B0H.4 SFRSYM    DATA     BIT       P34
      000000A0H.5 SFRSYM    DATA     BIT       P25
      00000090H.6 SFRSYM    DATA     BIT       P16
      00000080H.7 SFRSYM    DATA     BIT       P07
      000000B8H.6 SFRSYM    DATA     BIT       PLVD
      000000C8H.3 SFRSYM    DATA     BIT       P53
      000000C0H.4 SFRSYM    DATA     BIT       P44
      000000B0H.5 SFRSYM    DATA     BIT       P35
      000000A0H.6 SFRSYM    DATA     BIT       P26
      00000090H.7 SFRSYM    DATA     BIT       P17
      000000C0H.5 SFRSYM    DATA     BIT       P45
      000000B0H.6 SFRSYM    DATA     BIT       P36
      000000A0H.7 SFRSYM    DATA     BIT       P27
      000000C0H.6 SFRSYM    DATA     BIT       P46
      000000B0H.7 SFRSYM    DATA     BIT       P37
      000000C0H.7 SFRSYM    DATA     BIT       P47
      00000088H.1 SFRSYM    DATA     BIT       IE0
      000000A1H   SFRSYM    DATA     BYTE      BUS_SPEED
      00000088H.3 SFRSYM    DATA     BIT       IE1
      000000AFH   SFRSYM    DATA     BYTE      IE2
      0000008EH   SFRSYM    DATA     BYTE      AUXR
      000000F0H   SFRSYM    DATA     BYTE      B
      000000C7H   SFRSYM    DATA     BYTE      IAP_CONTR
      000000E0H   SFRSYM    DATA     BYTE      ACC
      000000A8H.1 SFRSYM    DATA     BIT       ET0
      00000088H.5 SFRSYM    DATA     BIT       TF0
      000000A8H.3 SFRSYM    DATA     BIT       ET1
      00000088H.7 SFRSYM    DATA     BIT       TF1
      000000B5H   SFRSYM    DATA     BYTE      IP2
      00000098H.2 SFRSYM    DATA     BIT       RB8
      0000008CH   SFRSYM    DATA     BYTE      TH0
      0000008DH   SFRSYM    DATA     BYTE      TH1
      00000088H   SFRSYM    DATA     BIT       IT0
      000000A8H   SFRSYM    DATA     BIT       EX0
      00000098H.3 SFRSYM    DATA     BIT       TB8
      00000088H.2 SFRSYM    DATA     BIT       IT1
      000000A8H.2 SFRSYM    DATA     BIT       EX1
      000000D0H   SFRSYM    DATA     BIT       P
      00000098H.7 SFRSYM    DATA     BIT       SM0
      0000008AH   SFRSYM    DATA     BYTE      TL0
      00000098H.6 SFRSYM    DATA     BIT       SM1
      0000008BH   SFRSYM    DATA     BYTE      TL1
      00000098H.5 SFRSYM    DATA     BIT       SM2
      000000B8H.1 SFRSYM    DATA     BIT       PT0
LX51 LINKER/LOCATER V4.66.41.0                                                        06/10/2021  16:03:55  PAGE 19


      000000B8H.3 SFRSYM    DATA     BIT       PT1
      000000D0H.3 SFRSYM    DATA     BIT       RS0
      000000C2H   SFRSYM    DATA     BYTE      IAP_DATA
      00000088H.4 SFRSYM    DATA     BIT       TR0
      000000D0H.4 SFRSYM    DATA     BIT       RS1
      00000088H.6 SFRSYM    DATA     BIT       TR1
      000000C1H   SFRSYM    DATA     BYTE      WDT_CONTR
      000000B8H   SFRSYM    DATA     BIT       PX0
      000000B8H.2 SFRSYM    DATA     BIT       PX1
      000000F2H   SFRSYM    DATA     BYTE      PCA_PWM0
      000000F3H   SFRSYM    DATA     BYTE      PCA_PWM1
      0000009DH   SFRSYM    DATA     BYTE      P1ASF
      00000083H   SFRSYM    DATA     BYTE      DPH
      000000BEH   SFRSYM    DATA     BYTE      ADC_RESL
      00000082H   SFRSYM    DATA     BYTE      DPL
      000000CDH   SFRSYM    DATA     BYTE      SPSTAT
      000000B7H   SFRSYM    DATA     BYTE      IPH
      0000009BH   SFRSYM    DATA     BYTE      S2BUF
      00000098H.4 SFRSYM    DATA     BIT       REN
      0000009AH   SFRSYM    DATA     BYTE      S2CON
      0000009CH   SFRSYM    DATA     BYTE      BRT
      00000090H.5 SFRSYM    DATA     BIT       led5
      000000B9H   SFRSYM    DATA     BYTE      SADEN
      00000090H.7 SFRSYM    DATA     BIT       led7
      000000A9H   SFRSYM    DATA     BYTE      SADDR
      000000C6H   SFRSYM    DATA     BYTE      IAP_TRIG
      000000A2H   SFRSYM    DATA     BYTE      AUXR1
      000000D0H.5 SFRSYM    DATA     BIT       F0
      000000D0H   SFRSYM    DATA     BYTE      PSW
      000000D8H   SFRSYM    DATA     BIT       CCF0
      000000CFH   SFRSYM    DATA     BYTE      SPDAT
      000000D8H.1 SFRSYM    DATA     BIT       CCF1
      00000094H   SFRSYM    DATA     BYTE      P0M0
      0100132FH   SYMBOL    CODE     ---       _?ix1000
      0100134DH   SYMBOL    CODE     ---       _?ix1001
      0100136BH   SYMBOL    CODE     ---       _?ix1002

      01002C8CH   BLOCK     CODE     ---       LVL=0
      00000006H   SYMBOL    DATA     WORD      t
      01002C8CH   BLOCK     CODE     NEAR LAB  LVL=1
      00000002H   SYMBOL    DATA     WORD      i
      00000082H   SYMBOL    DATA     WORD      j
      00000004H   SYMBOL    DATA     WORD      k
      ---         BLOCKEND  ---      ---       LVL=1
      01002C8CH   LINE      CODE     ---       #24
      01002C8CH   LINE      CODE     ---       #25
      01002C8CH   LINE      CODE     ---       #27
      01002C96H   LINE      CODE     ---       #28
      01002C99H   LINE      CODE     ---       #29
      01002CB7H   LINE      CODE     ---       #30
      ---         BLOCKEND  ---      ---       LVL=0

      01002E1FH   BLOCK     CODE     ---       LVL=0
      01002E1FH   LINE      CODE     ---       #34
      01002E1FH   LINE      CODE     ---       #35
      01002E1FH   LINE      CODE     ---       #36
      01002E22H   LINE      CODE     ---       #38
      01002E27H   LINE      CODE     ---       #39
      01002E2DH   LINE      CODE     ---       #41
      01002E34H   LINE      CODE     ---       #42
      ---         BLOCKEND  ---      ---       LVL=0

      01002E35H   BLOCK     CODE     ---       LVL=0
      01002E35H   LINE      CODE     ---       #46
      01002E35H   LINE      CODE     ---       #47
LX51 LINKER/LOCATER V4.66.41.0                                                        06/10/2021  16:03:55  PAGE 20


      01002E35H   LINE      CODE     ---       #48
      01002E38H   LINE      CODE     ---       #50
      01002E3DH   LINE      CODE     ---       #51
      01002E43H   LINE      CODE     ---       #53
      01002E4AH   LINE      CODE     ---       #54
      ---         BLOCKEND  ---      ---       LVL=0

      01002C30H   BLOCK     CODE     ---       LVL=0
      01002C30H   LINE      CODE     ---       #58
      01002C30H   LINE      CODE     ---       #59
      01002C30H   LINE      CODE     ---       #60
      01002C33H   LINE      CODE     ---       #61
      01002C3CH   LINE      CODE     ---       #62
      01002C53H   LINE      CODE     ---       #63
      01002C5CH   LINE      CODE     ---       #64
      ---         BLOCKEND  ---      ---       LVL=0

      010026D2H   BLOCK     CODE     ---       LVL=0
      010026E1H   BLOCK     CODE     NEAR LAB  LVL=1
      00000007H   SYMBOL    DATA     BYTE      temp
      ---         BLOCKEND  ---      ---       LVL=1
      010026D2H   LINE      CODE     ---       #69
      010026E1H   LINE      CODE     ---       #72
      010026E3H   LINE      CODE     ---       #73
      010026E5H   LINE      CODE     ---       #74
      010026E8H   LINE      CODE     ---       #76
      010026EFH   LINE      CODE     ---       #77
      010026F1H   LINE      CODE     ---       #78
      010026F4H   LINE      CODE     ---       #79
      010026F4H   LINE      CODE     ---       #80
      010026F7H   LINE      CODE     ---       #81
      010026F9H   LINE      CODE     ---       #82
      01002709H   LINE      CODE     ---       #83
      0100270CH   LINE      CODE     ---       #84
      01002716H   LINE      CODE     ---       #85
      0100271AH   LINE      CODE     ---       #87
      0100271DH   LINE      CODE     ---       #88
      0100271FH   LINE      CODE     ---       #89
      01002721H   LINE      CODE     ---       #90
      01002724H   LINE      CODE     ---       #91
      01002728H   LINE      CODE     ---       #92
      0100272BH   LINE      CODE     ---       #93
      0100272EH   LINE      CODE     ---       #94
      0100272EH   LINE      CODE     ---       #95
      ---         BLOCKEND  ---      ---       LVL=0

      01002E72H   BLOCK     CODE     ---       LVL=0
      01002E72H   LINE      CODE     ---       #99
      01002E72H   LINE      CODE     ---       #100
      01002E72H   LINE      CODE     ---       #101
      01002E72H   LINE      CODE     ---       #102
      01002E72H   LINE      CODE     ---       #103
      01002E75H   LINE      CODE     ---       #104
      01002E77H   LINE      CODE     ---       #105
      01002E7AH   LINE      CODE     ---       #106
      01002E81H   LINE      CODE     ---       #107
      01002E81H   LINE      CODE     ---       #108
      01002E81H   LINE      CODE     ---       #109
      01002E81H   LINE      CODE     ---       #110
      ---         BLOCKEND  ---      ---       LVL=0

      01002588H   BLOCK     CODE     ---       LVL=0
      00000023H   SYMBOL    DATA     ---       s
      0100258EH   BLOCK     CODE     NEAR LAB  LVL=1
      00000026H   SYMBOL    DATA     INT       len
LX51 LINKER/LOCATER V4.66.41.0                                                        06/10/2021  16:03:55  PAGE 21


      00000028H   SYMBOL    DATA     ---       temp
      ---         BLOCKEND  ---      ---       LVL=1
      01002588H   LINE      CODE     ---       #114
      0100258EH   LINE      CODE     ---       #115
      0100258EH   LINE      CODE     ---       #116
      01002593H   LINE      CODE     ---       #117
      010025A4H   LINE      CODE     ---       #118
      010025BEH   LINE      CODE     ---       #119
      010025C6H   LINE      CODE     ---       #120
      010025DEH   LINE      CODE     ---       #121
      010025E7H   LINE      CODE     ---       #122
      010025EAH   LINE      CODE     ---       #123
      010025F3H   LINE      CODE     ---       #124
      ---         BLOCKEND  ---      ---       LVL=0

      010025F6H   BLOCK     CODE     ---       LVL=0
      00000023H   SYMBOL    DATA     ---       s
      010025FCH   BLOCK     CODE     NEAR LAB  LVL=1
      00000026H   SYMBOL    DATA     INT       len
      00000028H   SYMBOL    DATA     ---       temp
      ---         BLOCKEND  ---      ---       LVL=1
      010025F6H   LINE      CODE     ---       #129
      010025FCH   LINE      CODE     ---       #130
      010025FCH   LINE      CODE     ---       #131
      01002601H   LINE      CODE     ---       #132
      01002612H   LINE      CODE     ---       #133
      0100262CH   LINE      CODE     ---       #134
      01002634H   LINE      CODE     ---       #135
      0100264CH   LINE      CODE     ---       #136
      01002655H   LINE      CODE     ---       #137
      01002658H   LINE      CODE     ---       #138
      01002661H   LINE      CODE     ---       #139
      ---         BLOCKEND  ---      ---       LVL=0

      01001D60H   BLOCK     CODE     ---       LVL=0
      01001D60H   LINE      CODE     ---       #145
      01001D60H   LINE      CODE     ---       #146
      01001D60H   LINE      CODE     ---       #147
      01001D7DH   LINE      CODE     ---       #148
      01001D7DH   LINE      CODE     ---       #149
      01001D7FH   LINE      CODE     ---       #150
      01001D88H   LINE      CODE     ---       #151
      01001D88H   LINE      CODE     ---       #152
      01001DA5H   LINE      CODE     ---       #153
      01001DA5H   LINE      CODE     ---       #154
      01001DA7H   LINE      CODE     ---       #155
      01001DADH   LINE      CODE     ---       #156
      01001DAFH   LINE      CODE     ---       #157
      01001DCCH   LINE      CODE     ---       #158
      01001DCCH   LINE      CODE     ---       #159
      01001DCEH   LINE      CODE     ---       #160
      01001DD7H   LINE      CODE     ---       #161
      01001DD7H   LINE      CODE     ---       #162
      01001DF4H   LINE      CODE     ---       #163
      01001DF4H   LINE      CODE     ---       #164
      01001DFDH   LINE      CODE     ---       #165
      01001DFFH   LINE      CODE     ---       #166
      01001E00H   LINE      CODE     ---       #167
      01001E1DH   LINE      CODE     ---       #168
      01001E1FH   LINE      CODE     ---       #169
      ---         BLOCKEND  ---      ---       LVL=0

      01002664H   BLOCK     CODE     ---       LVL=0
      00000023H   SYMBOL    DATA     ---       s
      0100266AH   BLOCK     CODE     NEAR LAB  LVL=1
LX51 LINKER/LOCATER V4.66.41.0                                                        06/10/2021  16:03:55  PAGE 22


      00000026H   SYMBOL    DATA     INT       len
      00000028H   SYMBOL    DATA     ---       temp
      ---         BLOCKEND  ---      ---       LVL=1
      01002664H   LINE      CODE     ---       #173
      0100266AH   LINE      CODE     ---       #174
      0100266AH   LINE      CODE     ---       #175
      0100266FH   LINE      CODE     ---       #176
      01002680H   LINE      CODE     ---       #177
      0100269AH   LINE      CODE     ---       #178
      010026A2H   LINE      CODE     ---       #179
      010026BAH   LINE      CODE     ---       #180
      010026C3H   LINE      CODE     ---       #181
      010026C6H   LINE      CODE     ---       #182
      010026CFH   LINE      CODE     ---       #183
      ---         BLOCKEND  ---      ---       LVL=0

      01002C5FH   BLOCK     CODE     ---       LVL=0
      01002C5FH   LINE      CODE     ---       #188
      01002C5FH   LINE      CODE     ---       #189
      01002C5FH   LINE      CODE     ---       #190
      01002C68H   LINE      CODE     ---       #191
      01002C6BH   LINE      CODE     ---       #192
      01002C74H   LINE      CODE     ---       #194
      01002C77H   LINE      CODE     ---       #195
      01002C80H   LINE      CODE     ---       #196
      01002C83H   LINE      CODE     ---       #197
      ---         BLOCKEND  ---      ---       LVL=0

      01002798H   BLOCK     CODE     ---       LVL=0
      01002798H   LINE      CODE     ---       #202
      010027B5H   LINE      CODE     ---       #204
      010027BDH   LINE      CODE     ---       #205
      010027BDH   LINE      CODE     ---       #206
      010027C2H   LINE      CODE     ---       #207
      010027C7H   LINE      CODE     ---       #208
      010027C9H   LINE      CODE     ---       #211
      010027C9H   LINE      CODE     ---       #212
      ---         BLOCKEND  ---      ---       LVL=0

      01002D9CH   BLOCK     CODE     ---       LVL=0
      01002D9CH   LINE      CODE     ---       #224
      01002D9CH   LINE      CODE     ---       #225
      01002D9CH   LINE      CODE     ---       #226
      01002D9FH   LINE      CODE     ---       #227
      01002DA2H   LINE      CODE     ---       #228
      01002DA5H   LINE      CODE     ---       #229
      01002DA8H   LINE      CODE     ---       #230
      01002DABH   LINE      CODE     ---       #231
      01002DAEH   LINE      CODE     ---       #232
      01002DB1H   LINE      CODE     ---       #233
      01002DB4H   LINE      CODE     ---       #234
      01002DBAH   LINE      CODE     ---       #235
      ---         BLOCKEND  ---      ---       LVL=0

      01002513H   BLOCK     CODE     ---       LVL=0
      01002513H   LINE      CODE     ---       #239
      01002513H   LINE      CODE     ---       #240
      01002513H   LINE      CODE     ---       #241
      0100251AH   LINE      CODE     ---       #242
      0100251DH   LINE      CODE     ---       #243
      01002520H   LINE      CODE     ---       #244
      01002523H   LINE      CODE     ---       #245
      01002526H   LINE      CODE     ---       #246
      01002529H   LINE      CODE     ---       #247
      01002532H   LINE      CODE     ---       #248
LX51 LINKER/LOCATER V4.66.41.0                                                        06/10/2021  16:03:55  PAGE 23


      01002535H   LINE      CODE     ---       #249
      0100253CH   LINE      CODE     ---       #250
      01002545H   LINE      CODE     ---       #251
      01002548H   LINE      CODE     ---       #252
      0100254BH   LINE      CODE     ---       #253
      0100254EH   LINE      CODE     ---       #254
      01002551H   LINE      CODE     ---       #255
      01002554H   LINE      CODE     ---       #256
      01002556H   LINE      CODE     ---       #257
      01002559H   LINE      CODE     ---       #258
      01002559H   LINE      CODE     ---       #259
      01002559H   LINE      CODE     ---       #274
      0100255CH   LINE      CODE     ---       #275
      0100255CH   LINE      CODE     ---       #276
      0100255FH   LINE      CODE     ---       #277
      01002562H   LINE      CODE     ---       #278
      01002564H   LINE      CODE     ---       #279
      01002564H   LINE      CODE     ---       #283
      01002567H   LINE      CODE     ---       #284
      01002567H   LINE      CODE     ---       #285
      0100256AH   LINE      CODE     ---       #286
      0100256CH   LINE      CODE     ---       #287
      0100256CH   LINE      CODE     ---       #323
      0100256FH   LINE      CODE     ---       #324
      0100256FH   LINE      CODE     ---       #325
      01002572H   LINE      CODE     ---       #326
      01002582H   LINE      CODE     ---       #332
      01002584H   LINE      CODE     ---       #333
      01002586H   LINE      CODE     ---       #334
      01002586H   LINE      CODE     ---       #335
      ---         BLOCKEND  ---      ---       LVL=0

      ---         MODULE    ---      ---       UART
      020002B0H   PUBLIC    XDATA    ---       uart2SendData
      00000062H   PUBLIC    DATA     BYTE      i2
      020002A8H   PUBLIC    XDATA    ---       strRes
      00000023H   PUBLIC    DATA     BYTE      ?_num_to_Str?BYTE
      01001555H   PUBLIC    CODE     ---       _num_to_Str
      00000023H   PUBLIC    DATA     BYTE      ?_strInclude?BYTE
      01002498H   PUBLIC    CODE     ---       _strInclude
      01002A50H   PUBLIC    CODE     ---       _uartSend
      01002E4BH   PUBLIC    CODE     ---       uartInit
      01002EDDH   PUBLIC    CODE     ---       _uart2SendChar
      01002EBBH   PUBLIC    CODE     ---       uart2SendEnd
      01002B6FH   PUBLIC    CODE     ---       uart2Send
      01002EE6H   PUBLIC    CODE     ---       uart2Clear
      01002BA0H   PUBLIC    CODE     ---       _uart2AddCharLen
      010027E4H   PUBLIC    CODE     ---       _uart2AddChar
      01002E08H   PUBLIC    CODE     ---       _S2TI
      01002DF1H   PUBLIC    CODE     ---       _S2RI
      01002DDAH   PUBLIC    CODE     ---       _ES2
      01000026H   PUBLIC    CODE     ---       uart2Init
      00000092H   SFRSYM    DATA     BYTE      P1M0
      00000093H   SFRSYM    DATA     BYTE      P0M1
      00000096H   SFRSYM    DATA     BYTE      P2M0
      00000091H   SFRSYM    DATA     BYTE      P1M1
      00000080H   SFRSYM    DATA     BYTE      P0
      000000B2H   SFRSYM    DATA     BYTE      P3M0
      00000095H   SFRSYM    DATA     BYTE      P2M1
      00000090H   SFRSYM    DATA     BYTE      P1
      000000B4H   SFRSYM    DATA     BYTE      P4M0
      000000B1H   SFRSYM    DATA     BYTE      P3M1
      000000A0H   SFRSYM    DATA     BYTE      P2
      000000CAH   SFRSYM    DATA     BYTE      P5M0
      000000B3H   SFRSYM    DATA     BYTE      P4M1
LX51 LINKER/LOCATER V4.66.41.0                                                        06/10/2021  16:03:55  PAGE 24


      000000B0H   SFRSYM    DATA     BYTE      P3
      000000C9H   SFRSYM    DATA     BYTE      P5M1
      000000C0H   SFRSYM    DATA     BYTE      P4
      000000D0H.6 SFRSYM    DATA     BIT       AC
      000000C8H   SFRSYM    DATA     BYTE      P5
      000000A8H.7 SFRSYM    DATA     BIT       EA
      000000CEH   SFRSYM    DATA     BYTE      SPCTL
      000000D8H.7 SFRSYM    DATA     BIT       CF
      000000F9H   SFRSYM    DATA     BYTE      CH
      000000A8H.5 SFRSYM    DATA     BIT       EADC
      000000A8H   SFRSYM    DATA     BYTE      IE
      000000E9H   SFRSYM    DATA     BYTE      CL
      000000C5H   SFRSYM    DATA     BYTE      IAP_CMD
      000000FAH   SFRSYM    DATA     BYTE      CCAP0H
      000000FBH   SFRSYM    DATA     BYTE      CCAP1H
      000000BDH   SFRSYM    DATA     BYTE      ADC_RES
      000000B6H   SFRSYM    DATA     BYTE      IPH2
      000000EAH   SFRSYM    DATA     BYTE      CCAP0L
      000000D8H.6 SFRSYM    DATA     BIT       CR
      000000EBH   SFRSYM    DATA     BYTE      CCAP1L
      000000DAH   SFRSYM    DATA     BYTE      CCAPM0
      000000DBH   SFRSYM    DATA     BYTE      CCAPM1
      000000A8H.4 SFRSYM    DATA     BIT       ES
      000000B8H.5 SFRSYM    DATA     BIT       PADC
      000000B8H   SFRSYM    DATA     BYTE      IP
      00000098H   SFRSYM    DATA     BIT       RI
      000000D0H.7 SFRSYM    DATA     BIT       CY
      00000098H.1 SFRSYM    DATA     BIT       TI
      00000097H   SFRSYM    DATA     BYTE      CLK_DIV
      000000C3H   SFRSYM    DATA     BYTE      IAP_ADDRH
      000000B8H.4 SFRSYM    DATA     BIT       PS
      00000081H   SFRSYM    DATA     BYTE      SP
      000000C4H   SFRSYM    DATA     BYTE      IAP_ADDRL
      000000D9H   SFRSYM    DATA     BYTE      CMOD
      000000D8H   SFRSYM    DATA     BYTE      CCON
      000000B8H.7 SFRSYM    DATA     BIT       PPCA
      000000D0H.2 SFRSYM    DATA     BIT       OV
      000000A8H.6 SFRSYM    DATA     BIT       ELVD
      000000BBH   SFRSYM    DATA     BYTE      P4SW
      00000080H   SFRSYM    DATA     BIT       P00
      000000BCH   SFRSYM    DATA     BYTE      ADC_CONTR
      00000099H   SFRSYM    DATA     BYTE      SBUF
      00000090H   SFRSYM    DATA     BIT       P10
      00000080H.1 SFRSYM    DATA     BIT       P01
      00000087H   SFRSYM    DATA     BYTE      PCON
      000000A0H   SFRSYM    DATA     BIT       P20
      00000090H.1 SFRSYM    DATA     BIT       P11
      00000080H.2 SFRSYM    DATA     BIT       P02
      000000B0H   SFRSYM    DATA     BIT       P30
      000000A0H.1 SFRSYM    DATA     BIT       P21
      00000090H.2 SFRSYM    DATA     BIT       P12
      00000080H.3 SFRSYM    DATA     BIT       P03
      00000098H   SFRSYM    DATA     BYTE      SCON
      000000C0H   SFRSYM    DATA     BIT       P40
      000000B0H.1 SFRSYM    DATA     BIT       P31
      000000A0H.2 SFRSYM    DATA     BIT       P22
      00000090H.3 SFRSYM    DATA     BIT       P13
      00000080H.4 SFRSYM    DATA     BIT       P04
      0000008FH   SFRSYM    DATA     BYTE      WAKE_CLKO
      00000089H   SFRSYM    DATA     BYTE      TMOD
      00000088H   SFRSYM    DATA     BYTE      TCON
      000000C8H   SFRSYM    DATA     BIT       P50
      000000C0H.1 SFRSYM    DATA     BIT       P41
      000000B0H.2 SFRSYM    DATA     BIT       P32
      000000A0H.3 SFRSYM    DATA     BIT       P23
LX51 LINKER/LOCATER V4.66.41.0                                                        06/10/2021  16:03:55  PAGE 25


      00000090H.4 SFRSYM    DATA     BIT       P14
      00000080H.5 SFRSYM    DATA     BIT       P05
      000000C8H.1 SFRSYM    DATA     BIT       P51
      000000C0H.2 SFRSYM    DATA     BIT       P42
      000000B0H.3 SFRSYM    DATA     BIT       P33
      000000A0H.4 SFRSYM    DATA     BIT       P24
      00000090H.5 SFRSYM    DATA     BIT       P15
      00000080H.6 SFRSYM    DATA     BIT       P06
      000000C8H.2 SFRSYM    DATA     BIT       P52
      000000C0H.3 SFRSYM    DATA     BIT       P43
      000000B0H.4 SFRSYM    DATA     BIT       P34
      000000A0H.5 SFRSYM    DATA     BIT       P25
      00000090H.6 SFRSYM    DATA     BIT       P16
      00000080H.7 SFRSYM    DATA     BIT       P07
      000000B8H.6 SFRSYM    DATA     BIT       PLVD
      000000C8H.3 SFRSYM    DATA     BIT       P53
      000000C0H.4 SFRSYM    DATA     BIT       P44
      000000B0H.5 SFRSYM    DATA     BIT       P35
      000000A0H.6 SFRSYM    DATA     BIT       P26
      00000090H.7 SFRSYM    DATA     BIT       P17
      000000C0H.5 SFRSYM    DATA     BIT       P45
      000000B0H.6 SFRSYM    DATA     BIT       P36
      000000A0H.7 SFRSYM    DATA     BIT       P27
      000000C0H.6 SFRSYM    DATA     BIT       P46
      000000B0H.7 SFRSYM    DATA     BIT       P37
      000000C0H.7 SFRSYM    DATA     BIT       P47
      00000088H.1 SFRSYM    DATA     BIT       IE0
      000000A1H   SFRSYM    DATA     BYTE      BUS_SPEED
      00000088H.3 SFRSYM    DATA     BIT       IE1
      000000AFH   SFRSYM    DATA     BYTE      IE2
      0000008EH   SFRSYM    DATA     BYTE      AUXR
      000000F0H   SFRSYM    DATA     BYTE      B
      000000C7H   SFRSYM    DATA     BYTE      IAP_CONTR
      000000E0H   SFRSYM    DATA     BYTE      ACC
      000000A8H.1 SFRSYM    DATA     BIT       ET0
      00000088H.5 SFRSYM    DATA     BIT       TF0
      000000A8H.3 SFRSYM    DATA     BIT       ET1
      00000088H.7 SFRSYM    DATA     BIT       TF1
      000000B5H   SFRSYM    DATA     BYTE      IP2
      00000098H.2 SFRSYM    DATA     BIT       RB8
      0000008CH   SFRSYM    DATA     BYTE      TH0
      0000008DH   SFRSYM    DATA     BYTE      TH1
      00000088H   SFRSYM    DATA     BIT       IT0
      000000A8H   SFRSYM    DATA     BIT       EX0
      00000098H.3 SFRSYM    DATA     BIT       TB8
      00000088H.2 SFRSYM    DATA     BIT       IT1
      000000A8H.2 SFRSYM    DATA     BIT       EX1
      000000D0H   SFRSYM    DATA     BIT       P
      00000098H.7 SFRSYM    DATA     BIT       SM0
      0000008AH   SFRSYM    DATA     BYTE      TL0
      00000098H.6 SFRSYM    DATA     BIT       SM1
      0000008BH   SFRSYM    DATA     BYTE      TL1
      00000098H.5 SFRSYM    DATA     BIT       SM2
      000000B8H.1 SFRSYM    DATA     BIT       PT0
      000000B8H.3 SFRSYM    DATA     BIT       PT1
      000000D0H.3 SFRSYM    DATA     BIT       RS0
      000000C2H   SFRSYM    DATA     BYTE      IAP_DATA
      00000088H.4 SFRSYM    DATA     BIT       TR0
      000000D0H.4 SFRSYM    DATA     BIT       RS1
      00000088H.6 SFRSYM    DATA     BIT       TR1
      000000C1H   SFRSYM    DATA     BYTE      WDT_CONTR
      000000B8H   SFRSYM    DATA     BIT       PX0
      000000B8H.2 SFRSYM    DATA     BIT       PX1
      000000F2H   SFRSYM    DATA     BYTE      PCA_PWM0
      000000F3H   SFRSYM    DATA     BYTE      PCA_PWM1
LX51 LINKER/LOCATER V4.66.41.0                                                        06/10/2021  16:03:55  PAGE 26


      0000009DH   SFRSYM    DATA     BYTE      P1ASF
      00000083H   SFRSYM    DATA     BYTE      DPH
      000000BEH   SFRSYM    DATA     BYTE      ADC_RESL
      00000082H   SFRSYM    DATA     BYTE      DPL
      000000CDH   SFRSYM    DATA     BYTE      SPSTAT
      000000B7H   SFRSYM    DATA     BYTE      IPH
      0000009BH   SFRSYM    DATA     BYTE      S2BUF
      00000098H.4 SFRSYM    DATA     BIT       REN
      0000009AH   SFRSYM    DATA     BYTE      S2CON
      0000009CH   SFRSYM    DATA     BYTE      BRT
      000000B9H   SFRSYM    DATA     BYTE      SADEN
      000000A9H   SFRSYM    DATA     BYTE      SADDR
      000000C6H   SFRSYM    DATA     BYTE      IAP_TRIG
      000000A2H   SFRSYM    DATA     BYTE      AUXR1
      000000D0H.5 SFRSYM    DATA     BIT       F0
      000000D0H   SFRSYM    DATA     BYTE      PSW
      000000D8H   SFRSYM    DATA     BIT       CCF0
      000000CFH   SFRSYM    DATA     BYTE      SPDAT
      000000D8H.1 SFRSYM    DATA     BIT       CCF1
      00000094H   SFRSYM    DATA     BYTE      P0M0

      01000026H   BLOCK     CODE     ---       LVL=0
      01000026H   LINE      CODE     ---       #8
      01000026H   LINE      CODE     ---       #9
      01000026H   LINE      CODE     ---       #10
      01000029H   LINE      CODE     ---       #11
      0100002CH   LINE      CODE     ---       #12
      0100002EH   LINE      CODE     ---       #13
      01000030H   LINE      CODE     ---       #14
      01000033H   LINE      CODE     ---       #15
      01000036H   LINE      CODE     ---       #16
      01000038H   LINE      CODE     ---       #17
      0100003AH   LINE      CODE     ---       #18
      0100003DH   LINE      CODE     ---       #19
      ---         BLOCKEND  ---      ---       LVL=0

      01002DDAH   BLOCK     CODE     ---       LVL=0
      00000007H   SYMBOL    DATA     CHAR      b
      01002DDAH   LINE      CODE     ---       #20
      ---         BLOCKEND  ---      ---       LVL=0

      01002DF1H   BLOCK     CODE     ---       LVL=0
      00000007H   SYMBOL    DATA     CHAR      b
      01002DF1H   LINE      CODE     ---       #21
      ---         BLOCKEND  ---      ---       LVL=0

      01002E08H   BLOCK     CODE     ---       LVL=0
      00000007H   SYMBOL    DATA     CHAR      b
      01002E08H   LINE      CODE     ---       #22
      ---         BLOCKEND  ---      ---       LVL=0

      010027E4H   BLOCK     CODE     ---       LVL=0
      00000024H   SYMBOL    DATA     ---       s
      010027EAH   BLOCK     CODE     NEAR LAB  LVL=1
      00000007H   SYMBOL    DATA     BYTE      i
      00000006H   SYMBOL    DATA     BYTE      len
      ---         BLOCKEND  ---      ---       LVL=1
      010027E4H   LINE      CODE     ---       #23
      010027EAH   LINE      CODE     ---       #24
      010027EAH   LINE      CODE     ---       #25
      010027ECH   LINE      CODE     ---       #26
      010027EDH   LINE      CODE     ---       #27
      01002800H   LINE      CODE     ---       #28
      0100280AH   LINE      CODE     ---       #29
      0100280AH   LINE      CODE     ---       #30
LX51 LINKER/LOCATER V4.66.41.0                                                        06/10/2021  16:03:55  PAGE 27


      01002829H   LINE      CODE     ---       #31
      0100282CH   LINE      CODE     ---       #32
      ---         BLOCKEND  ---      ---       LVL=0

      01002BA0H   BLOCK     CODE     ---       LVL=0
      00000023H   SYMBOL    DATA     ---       s
      00000005H   SYMBOL    DATA     BYTE      len
      01002BA6H   BLOCK     CODE     NEAR LAB  LVL=1
      00000007H   SYMBOL    DATA     BYTE      i
      ---         BLOCKEND  ---      ---       LVL=1
      01002BA0H   LINE      CODE     ---       #33
      01002BA6H   LINE      CODE     ---       #34
      01002BA6H   LINE      CODE     ---       #35
      01002BA8H   LINE      CODE     ---       #36
      01002BADH   LINE      CODE     ---       #37
      01002BADH   LINE      CODE     ---       #38
      01002BCCH   LINE      CODE     ---       #39
      01002BCFH   LINE      CODE     ---       #40
      ---         BLOCKEND  ---      ---       LVL=0

      01002EE6H   BLOCK     CODE     ---       LVL=0
      01002EE6H   LINE      CODE     ---       #41
      ---         BLOCKEND  ---      ---       LVL=0

      01002B6FH   BLOCK     CODE     ---       LVL=0
      01002B6FH   BLOCK     CODE     NEAR LAB  LVL=1
      00000006H   SYMBOL    DATA     BYTE      i
      ---         BLOCKEND  ---      ---       LVL=1
      01002B6FH   LINE      CODE     ---       #43
      01002B6FH   LINE      CODE     ---       #44
      01002B6FH   LINE      CODE     ---       #45
      01002B71H   LINE      CODE     ---       #46
      01002B75H   LINE      CODE     ---       #47
      01002B7BH   LINE      CODE     ---       #48
      01002B7BH   LINE      CODE     ---       #49
      01002B88H   LINE      CODE     ---       #50
      01002B90H   LINE      CODE     ---       #51
      01002B95H   LINE      CODE     ---       #52
      01002B98H   LINE      CODE     ---       #53
      01002B9DH   LINE      CODE     ---       #54
      ---         BLOCKEND  ---      ---       LVL=0

      01002EBBH   BLOCK     CODE     ---       LVL=0
      01002EBBH   LINE      CODE     ---       #56
      01002EBBH   LINE      CODE     ---       #57
      01002EBBH   LINE      CODE     ---       #58
      01002EC4H   LINE      CODE     ---       #59
      ---         BLOCKEND  ---      ---       LVL=0

      01002EDDH   BLOCK     CODE     ---       LVL=0
      00000001H   SYMBOL    DATA     ---       s
      01002EDDH   LINE      CODE     ---       #61
      01002EDDH   LINE      CODE     ---       #62
      01002EDDH   LINE      CODE     ---       #63
      01002EE0H   LINE      CODE     ---       #64
      01002EE3H   LINE      CODE     ---       #65
      ---         BLOCKEND  ---      ---       LVL=0

      01002E4BH   BLOCK     CODE     ---       LVL=0
      01002E4BH   LINE      CODE     ---       #67
      01002E4BH   LINE      CODE     ---       #68
      01002E4BH   LINE      CODE     ---       #69
      01002E4EH   LINE      CODE     ---       #70
      01002E51H   LINE      CODE     ---       #71
      01002E54H   LINE      CODE     ---       #72
LX51 LINKER/LOCATER V4.66.41.0                                                        06/10/2021  16:03:55  PAGE 28


      01002E56H   LINE      CODE     ---       #73
      01002E58H   LINE      CODE     ---       #74
      01002E5AH   LINE      CODE     ---       #75
      01002E5CH   LINE      CODE     ---       #76
      01002E5EH   LINE      CODE     ---       #77
      01002E60H   LINE      CODE     ---       #78
      ---         BLOCKEND  ---      ---       LVL=0

      01002A50H   BLOCK     CODE     ---       LVL=0
      00000046H   SYMBOL    DATA     ---       s
      01002A56H   BLOCK     CODE     NEAR LAB  LVL=1
      00000006H   SYMBOL    DATA     BYTE      i
      00000007H   SYMBOL    DATA     BYTE      len
      ---         BLOCKEND  ---      ---       LVL=1
      01002A50H   LINE      CODE     ---       #79
      01002A56H   LINE      CODE     ---       #80
      01002A56H   LINE      CODE     ---       #82
      01002A58H   LINE      CODE     ---       #83
      01002A6BH   LINE      CODE     ---       #84
      01002A6CH   LINE      CODE     ---       #86
      01002A73H   LINE      CODE     ---       #87
      01002A73H   LINE      CODE     ---       #88
      01002A83H   LINE      CODE     ---       #89
      01002A86H   LINE      CODE     ---       #90
      01002A88H   LINE      CODE     ---       #91
      01002A8BH   LINE      CODE     ---       #93
      ---         BLOCKEND  ---      ---       LVL=0
      00000007H   SYMBOL    DATA     CHAR      i

      01002498H   BLOCK     CODE     ---       LVL=0
      00000023H   SYMBOL    DATA     ---       s1
      00000026H   SYMBOL    DATA     ---       s2
      00000029H   SYMBOL    DATA     CHAR      len1
      0000002AH   SYMBOL    DATA     CHAR      len2
      0100249EH   BLOCK     CODE     NEAR LAB  LVL=1
      0000002BH   SYMBOL    DATA     BYTE      i
      0000002CH   SYMBOL    DATA     BYTE      j
      ---         BLOCKEND  ---      ---       LVL=1
      01002498H   LINE      CODE     ---       #114
      0100249EH   LINE      CODE     ---       #115
      0100249EH   LINE      CODE     ---       #116
      010024A3H   LINE      CODE     ---       #117
      010024B0H   LINE      CODE     ---       #118
      010024B2H   LINE      CODE     ---       #119
      010024C5H   LINE      CODE     ---       #120
      010024C5H   LINE      CODE     ---       #121
      010024DCH   LINE      CODE     ---       #122
      010024DCH   LINE      CODE     ---       #123
      01002502H   LINE      CODE     ---       #124
      01002502H   LINE      CODE     ---       #125
      01002506H   LINE      CODE     ---       #126
      0100250BH   LINE      CODE     ---       #127
      0100250DH   LINE      CODE     ---       #128
      01002511H   LINE      CODE     ---       #129
      01002512H   LINE      CODE     ---       #130
      ---         BLOCKEND  ---      ---       LVL=0

      01001555H   BLOCK     CODE     ---       LVL=0
      00000023H   SYMBOL    DATA     LONG      num
      00000027H   SYMBOL    DATA     CHAR      want_bit
      0100155DH   BLOCK     CODE     NEAR LAB  LVL=1
      00000028H   SYMBOL    DATA     BYTE      i
      00000029H   SYMBOL    DATA     LONG      t
      ---         BLOCKEND  ---      ---       LVL=1
      01001555H   LINE      CODE     ---       #134
LX51 LINKER/LOCATER V4.66.41.0                                                        06/10/2021  16:03:55  PAGE 29


      0100155DH   LINE      CODE     ---       #135
      0100155DH   LINE      CODE     ---       #137
      01001567H   LINE      CODE     ---       #138
      0100156CH   LINE      CODE     ---       #139
      0100156CH   LINE      CODE     ---       #140
      0100156FH   LINE      CODE     ---       #141
      01001588H   LINE      CODE     ---       #142
      01001588H   LINE      CODE     ---       #143
      0100158AH   LINE      CODE     ---       #144
      010015A3H   LINE      CODE     ---       #145
      010015A5H   LINE      CODE     ---       #147
      010015A5H   LINE      CODE     ---       #148
      010015A5H   LINE      CODE     ---       #149
      010015BCH   LINE      CODE     ---       #150
      010015D9H   LINE      CODE     ---       #151
      010015FCH   LINE      CODE     ---       #152
      010015FCH   LINE      CODE     ---       #153
      010015FFH   LINE      CODE     ---       #154
      01001609H   LINE      CODE     ---       #155
      01001617H   LINE      CODE     ---       #156
      01001617H   LINE      CODE     ---       #157
      0100163EH   LINE      CODE     ---       #158
      01001661H   LINE      CODE     ---       #159
      0100167AH   LINE      CODE     ---       #160
      0100167CH   LINE      CODE     ---       #161
      01001689H   LINE      CODE     ---       #162
      0100168FH   LINE      CODE     ---       #163
      ---         BLOCKEND  ---      ---       LVL=0

      ---         MODULE    ---      ---       IIC
      01002D7CH   PUBLIC    CODE     ---       read_byte
      01002D5BH   PUBLIC    CODE     ---       _write_byte
      00000020H.0 PUBLIC    BIT      BIT       ?send_respons?BIT
      01002EA0H   PUBLIC    CODE     ---       send_respons
      01002ED3H   PUBLIC    CODE     ---       rec_respons
      01002EC7H   PUBLIC    CODE     ---       stop
      01002E91H   PUBLIC    CODE     ---       start
      01002E89H   PUBLIC    CODE     ---       delay
      00000092H   SFRSYM    DATA     BYTE      P1M0
      00000093H   SFRSYM    DATA     BYTE      P0M1
      00000096H   SFRSYM    DATA     BYTE      P2M0
      00000091H   SFRSYM    DATA     BYTE      P1M1
      00000080H   SFRSYM    DATA     BYTE      P0
      000000B2H   SFRSYM    DATA     BYTE      P3M0
      00000095H   SFRSYM    DATA     BYTE      P2M1
      00000090H   SFRSYM    DATA     BYTE      P1
      000000B4H   SFRSYM    DATA     BYTE      P4M0
      000000B1H   SFRSYM    DATA     BYTE      P3M1
      000000A0H   SFRSYM    DATA     BYTE      P2
      000000CAH   SFRSYM    DATA     BYTE      P5M0
      000000B3H   SFRSYM    DATA     BYTE      P4M1
      000000B0H   SFRSYM    DATA     BYTE      P3
      000000C9H   SFRSYM    DATA     BYTE      P5M1
      000000C0H   SFRSYM    DATA     BYTE      P4
      000000D0H.6 SFRSYM    DATA     BIT       AC
      000000C8H   SFRSYM    DATA     BYTE      P5
      000000A8H.7 SFRSYM    DATA     BIT       EA
      000000CEH   SFRSYM    DATA     BYTE      SPCTL
      000000D8H.7 SFRSYM    DATA     BIT       CF
      000000F9H   SFRSYM    DATA     BYTE      CH
      000000A8H.5 SFRSYM    DATA     BIT       EADC
      000000A8H   SFRSYM    DATA     BYTE      IE
      000000E9H   SFRSYM    DATA     BYTE      CL
      000000C5H   SFRSYM    DATA     BYTE      IAP_CMD
      000000FAH   SFRSYM    DATA     BYTE      CCAP0H
LX51 LINKER/LOCATER V4.66.41.0                                                        06/10/2021  16:03:55  PAGE 30


      000000FBH   SFRSYM    DATA     BYTE      CCAP1H
      000000BDH   SFRSYM    DATA     BYTE      ADC_RES
      000000B6H   SFRSYM    DATA     BYTE      IPH2
      000000EAH   SFRSYM    DATA     BYTE      CCAP0L
      000000D8H.6 SFRSYM    DATA     BIT       CR
      000000EBH   SFRSYM    DATA     BYTE      CCAP1L
      000000DAH   SFRSYM    DATA     BYTE      CCAPM0
      000000DBH   SFRSYM    DATA     BYTE      CCAPM1
      000000A8H.4 SFRSYM    DATA     BIT       ES
      000000B8H.5 SFRSYM    DATA     BIT       PADC
      000000B8H   SFRSYM    DATA     BYTE      IP
      00000098H   SFRSYM    DATA     BIT       RI
      000000D0H.7 SFRSYM    DATA     BIT       CY
      00000098H.1 SFRSYM    DATA     BIT       TI
      00000097H   SFRSYM    DATA     BYTE      CLK_DIV
      000000C3H   SFRSYM    DATA     BYTE      IAP_ADDRH
      000000B8H.4 SFRSYM    DATA     BIT       PS
      00000081H   SFRSYM    DATA     BYTE      SP
      000000C4H   SFRSYM    DATA     BYTE      IAP_ADDRL
      000000D9H   SFRSYM    DATA     BYTE      CMOD
      000000D8H   SFRSYM    DATA     BYTE      CCON
      000000B8H.7 SFRSYM    DATA     BIT       PPCA
      000000D0H.2 SFRSYM    DATA     BIT       OV
      000000A8H.6 SFRSYM    DATA     BIT       ELVD
      000000BBH   SFRSYM    DATA     BYTE      P4SW
      00000080H   SFRSYM    DATA     BIT       P00
      000000BCH   SFRSYM    DATA     BYTE      ADC_CONTR
      00000099H   SFRSYM    DATA     BYTE      SBUF
      00000090H   SFRSYM    DATA     BIT       P10
      00000080H.1 SFRSYM    DATA     BIT       P01
      00000087H   SFRSYM    DATA     BYTE      PCON
      000000A0H   SFRSYM    DATA     BIT       P20
      00000090H.1 SFRSYM    DATA     BIT       P11
      00000080H.2 SFRSYM    DATA     BIT       P02
      000000B0H   SFRSYM    DATA     BIT       P30
      000000A0H.1 SFRSYM    DATA     BIT       P21
      00000090H.2 SFRSYM    DATA     BIT       P12
      00000080H.3 SFRSYM    DATA     BIT       P03
      00000098H   SFRSYM    DATA     BYTE      SCON
      000000C0H   SFRSYM    DATA     BIT       P40
      000000B0H.1 SFRSYM    DATA     BIT       P31
      000000A0H.2 SFRSYM    DATA     BIT       P22
      00000090H.3 SFRSYM    DATA     BIT       P13
      00000080H.4 SFRSYM    DATA     BIT       P04
      0000008FH   SFRSYM    DATA     BYTE      WAKE_CLKO
      00000089H   SFRSYM    DATA     BYTE      TMOD
      00000088H   SFRSYM    DATA     BYTE      TCON
      000000C8H   SFRSYM    DATA     BIT       P50
      000000C0H.1 SFRSYM    DATA     BIT       P41
      000000B0H.2 SFRSYM    DATA     BIT       P32
      000000A0H.3 SFRSYM    DATA     BIT       P23
      00000090H.4 SFRSYM    DATA     BIT       P14
      00000080H.5 SFRSYM    DATA     BIT       P05
      000000C8H.1 SFRSYM    DATA     BIT       P51
      000000C0H.2 SFRSYM    DATA     BIT       P42
      000000B0H.3 SFRSYM    DATA     BIT       P33
      000000A0H.4 SFRSYM    DATA     BIT       P24
      00000090H.5 SFRSYM    DATA     BIT       P15
      00000080H.6 SFRSYM    DATA     BIT       P06
      000000C8H.2 SFRSYM    DATA     BIT       P52
      000000C0H.3 SFRSYM    DATA     BIT       P43
      000000B0H.4 SFRSYM    DATA     BIT       P34
      000000A0H.5 SFRSYM    DATA     BIT       P25
      00000090H.6 SFRSYM    DATA     BIT       P16
      00000080H.7 SFRSYM    DATA     BIT       P07
LX51 LINKER/LOCATER V4.66.41.0                                                        06/10/2021  16:03:55  PAGE 31


      000000B8H.6 SFRSYM    DATA     BIT       PLVD
      000000C8H.3 SFRSYM    DATA     BIT       P53
      000000C0H.4 SFRSYM    DATA     BIT       P44
      000000B0H.5 SFRSYM    DATA     BIT       P35
      000000A0H.6 SFRSYM    DATA     BIT       P26
      00000090H.7 SFRSYM    DATA     BIT       P17
      000000A0H   SFRSYM    DATA     BIT       sda
      000000C0H.5 SFRSYM    DATA     BIT       P45
      000000B0H.6 SFRSYM    DATA     BIT       P36
      000000A0H.7 SFRSYM    DATA     BIT       P27
      000000C0H.6 SFRSYM    DATA     BIT       P46
      000000B0H.7 SFRSYM    DATA     BIT       P37
      000000C0H.7 SFRSYM    DATA     BIT       P47
      00000088H.1 SFRSYM    DATA     BIT       IE0
      000000A1H   SFRSYM    DATA     BYTE      BUS_SPEED
      00000088H.3 SFRSYM    DATA     BIT       IE1
      000000AFH   SFRSYM    DATA     BYTE      IE2
      0000008EH   SFRSYM    DATA     BYTE      AUXR
      000000F0H   SFRSYM    DATA     BYTE      B
      000000A0H.1 SFRSYM    DATA     BIT       scl
      000000C7H   SFRSYM    DATA     BYTE      IAP_CONTR
      000000E0H   SFRSYM    DATA     BYTE      ACC
      000000A8H.1 SFRSYM    DATA     BIT       ET0
      00000088H.5 SFRSYM    DATA     BIT       TF0
      000000A8H.3 SFRSYM    DATA     BIT       ET1
      00000088H.7 SFRSYM    DATA     BIT       TF1
      000000B5H   SFRSYM    DATA     BYTE      IP2
      00000098H.2 SFRSYM    DATA     BIT       RB8
      0000008CH   SFRSYM    DATA     BYTE      TH0
      0000008DH   SFRSYM    DATA     BYTE      TH1
      00000088H   SFRSYM    DATA     BIT       IT0
      000000A8H   SFRSYM    DATA     BIT       EX0
      00000098H.3 SFRSYM    DATA     BIT       TB8
      00000088H.2 SFRSYM    DATA     BIT       IT1
      000000A8H.2 SFRSYM    DATA     BIT       EX1
      000000D0H   SFRSYM    DATA     BIT       P
      00000098H.7 SFRSYM    DATA     BIT       SM0
      0000008AH   SFRSYM    DATA     BYTE      TL0
      00000098H.6 SFRSYM    DATA     BIT       SM1
      0000008BH   SFRSYM    DATA     BYTE      TL1
      00000098H.5 SFRSYM    DATA     BIT       SM2
      000000B8H.1 SFRSYM    DATA     BIT       PT0
      000000B8H.3 SFRSYM    DATA     BIT       PT1
      000000D0H.3 SFRSYM    DATA     BIT       RS0
      000000C2H   SFRSYM    DATA     BYTE      IAP_DATA
      00000088H.4 SFRSYM    DATA     BIT       TR0
      000000D0H.4 SFRSYM    DATA     BIT       RS1
      00000088H.6 SFRSYM    DATA     BIT       TR1
      000000C1H   SFRSYM    DATA     BYTE      WDT_CONTR
      000000B8H   SFRSYM    DATA     BIT       PX0
      000000B8H.2 SFRSYM    DATA     BIT       PX1
      000000F2H   SFRSYM    DATA     BYTE      PCA_PWM0
      000000F3H   SFRSYM    DATA     BYTE      PCA_PWM1
      0000009DH   SFRSYM    DATA     BYTE      P1ASF
      00000083H   SFRSYM    DATA     BYTE      DPH
      000000BEH   SFRSYM    DATA     BYTE      ADC_RESL
      00000082H   SFRSYM    DATA     BYTE      DPL
      000000CDH   SFRSYM    DATA     BYTE      SPSTAT
      000000B7H   SFRSYM    DATA     BYTE      IPH
      0000009BH   SFRSYM    DATA     BYTE      S2BUF
      00000098H.4 SFRSYM    DATA     BIT       REN
      0000009AH   SFRSYM    DATA     BYTE      S2CON
      0000009CH   SFRSYM    DATA     BYTE      BRT
      000000B9H   SFRSYM    DATA     BYTE      SADEN
      000000A9H   SFRSYM    DATA     BYTE      SADDR
LX51 LINKER/LOCATER V4.66.41.0                                                        06/10/2021  16:03:55  PAGE 32


      000000C6H   SFRSYM    DATA     BYTE      IAP_TRIG
      000000A2H   SFRSYM    DATA     BYTE      AUXR1
      000000D0H.5 SFRSYM    DATA     BIT       F0
      000000D0H   SFRSYM    DATA     BYTE      PSW
      000000D8H   SFRSYM    DATA     BIT       CCF0
      000000CFH   SFRSYM    DATA     BYTE      SPDAT
      000000D8H.1 SFRSYM    DATA     BIT       CCF1
      00000094H   SFRSYM    DATA     BYTE      P0M0

      01002E82H   BLOCK     CODE     ---       LVL=0
      ---         BLOCKEND  ---      ---       LVL=0

      01002E89H   BLOCK     CODE     ---       LVL=0
      00000007H   SYMBOL    DATA     BYTE      i
      01002E89H   BLOCK     CODE     NEAR LAB  LVL=1
      00000007H   SYMBOL    DATA     BYTE      i
      ---         BLOCKEND  ---      ---       LVL=1
      01002E89H   LINE      CODE     ---       #7
      01002E89H   LINE      CODE     ---       #8
      01002E89H   LINE      CODE     ---       #10
      01002E8AH   LINE      CODE     ---       #11
      01002E8BH   LINE      CODE     ---       #12
      01002E8CH   LINE      CODE     ---       #13
      01002E8EH   LINE      CODE     ---       #14
      01002E90H   LINE      CODE     ---       #15
      ---         BLOCKEND  ---      ---       LVL=0

      01002E91H   BLOCK     CODE     ---       LVL=0
      01002E91H   LINE      CODE     ---       #17
      01002E91H   LINE      CODE     ---       #18
      01002E91H   LINE      CODE     ---       #19
      01002E93H   LINE      CODE     ---       #20
      01002E95H   LINE      CODE     ---       #21
      01002E98H   LINE      CODE     ---       #22
      01002E9AH   LINE      CODE     ---       #23
      01002E9DH   LINE      CODE     ---       #24
      01002E9FH   LINE      CODE     ---       #25
      ---         BLOCKEND  ---      ---       LVL=0

      01002EC7H   BLOCK     CODE     ---       LVL=0
      01002EC7H   LINE      CODE     ---       #26
      01002EC7H   LINE      CODE     ---       #27
      01002EC7H   LINE      CODE     ---       #28
      01002EC9H   LINE      CODE     ---       #29
      01002ECBH   LINE      CODE     ---       #30
      01002ECEH   LINE      CODE     ---       #31
      01002ED0H   LINE      CODE     ---       #32
      ---         BLOCKEND  ---      ---       LVL=0

      01002ED3H   BLOCK     CODE     ---       LVL=0
      01002ED3H   LINE      CODE     ---       #34
      01002ED3H   LINE      CODE     ---       #35
      01002ED3H   LINE      CODE     ---       #37
      01002ED5H   LINE      CODE     ---       #38
      01002ED8H   LINE      CODE     ---       #40
      01002EDAH   LINE      CODE     ---       #41
      ---         BLOCKEND  ---      ---       LVL=0

      01002EA0H   BLOCK     CODE     ---       LVL=0
      00000020H.0 SYMBOL    BIT      BIT       ack
      01002EA0H   LINE      CODE     ---       #43
      01002EA0H   LINE      CODE     ---       #44
      01002EA0H   LINE      CODE     ---       #46
      01002EA4H   LINE      CODE     ---       #47
      01002EA6H   LINE      CODE     ---       #48
LX51 LINKER/LOCATER V4.66.41.0                                                        06/10/2021  16:03:55  PAGE 33


      01002EA9H   LINE      CODE     ---       #49
      01002EABH   LINE      CODE     ---       #50
      ---         BLOCKEND  ---      ---       LVL=0

      01002D5BH   BLOCK     CODE     ---       LVL=0
      00000007H   SYMBOL    DATA     BYTE      date
      01002D5BH   BLOCK     CODE     NEAR LAB  LVL=1
      00000005H   SYMBOL    DATA     BYTE      i
      00000006H   SYMBOL    DATA     BYTE      temp
      ---         BLOCKEND  ---      ---       LVL=1
      01002D5BH   LINE      CODE     ---       #58
      01002D5BH   LINE      CODE     ---       #60
      01002D5DH   LINE      CODE     ---       #61
      01002D5FH   LINE      CODE     ---       #62
      01002D63H   LINE      CODE     ---       #63
      01002D65H   LINE      CODE     ---       #64
      01002D68H   LINE      CODE     ---       #65
      01002D6AH   LINE      CODE     ---       #66
      01002D6DH   LINE      CODE     ---       #67
      01002D6FH   LINE      CODE     ---       #68
      01002D72H   LINE      CODE     ---       #69
      01002D76H   LINE      CODE     ---       #70
      01002D76H   LINE      CODE     ---       #71
      01002D76H   LINE      CODE     ---       #72
      01002D76H   LINE      CODE     ---       #73
      01002D79H   LINE      CODE     ---       #74
      ---         BLOCKEND  ---      ---       LVL=0

      01002D7CH   BLOCK     CODE     ---       LVL=0
      01002D7CH   BLOCK     CODE     NEAR LAB  LVL=1
      00000005H   SYMBOL    DATA     BYTE      i
      00000006H   SYMBOL    DATA     BYTE      k
      ---         BLOCKEND  ---      ---       LVL=1
      01002D7CH   LINE      CODE     ---       #76
      01002D7CH   LINE      CODE     ---       #78
      01002D7CH   LINE      CODE     ---       #79
      01002D7CH   LINE      CODE     ---       #80
      01002D7CH   LINE      CODE     ---       #81
      01002D7FH   LINE      CODE     ---       #82
      01002D81H   LINE      CODE     ---       #83
      01002D83H   LINE      CODE     ---       #84
      01002D86H   LINE      CODE     ---       #85
      01002D90H   LINE      CODE     ---       #86
      01002D92H   LINE      CODE     ---       #87
      01002D95H   LINE      CODE     ---       #88
      01002D99H   LINE      CODE     ---       #89
      01002D9BH   LINE      CODE     ---       #90
      ---         BLOCKEND  ---      ---       LVL=0

      ---         MODULE    ---      ---       ENV
      020003C0H   PUBLIC    XDATA    WORD      ac6
      020003BEH   PUBLIC    XDATA    WORD      ac5
      020003BCH   PUBLIC    XDATA    WORD      ac4
      020003BAH   PUBLIC    XDATA    INT       ac3
      020003B8H   PUBLIC    XDATA    INT       ac2
      020003B6H   PUBLIC    XDATA    INT       ac1
      02000393H   PUBLIC    XDATA    ---       temp1
      02000391H   PUBLIC    XDATA    INT       md
      0200038FH   PUBLIC    XDATA    INT       mc
      0200038DH   PUBLIC    XDATA    INT       mb
      00000014H   PUBLIC    DATA     BYTE      wet_data
      0200038CH   PUBLIC    XDATA    BYTE      ge
      02000383H   PUBLIC    XDATA    ---       res
      02000382H   PUBLIC    XDATA    BYTE      wan
      02000381H   PUBLIC    XDATA    BYTE      shi
LX51 LINKER/LOCATER V4.66.41.0                                                        06/10/2021  16:03:55  PAGE 34


      00000010H   PUBLIC    DATA     FLOAT     temp
      0000000CH   PUBLIC    DATA     LONG      temperature
      02000380H   PUBLIC    XDATA    BYTE      bai
      0200037FH   PUBLIC    XDATA    BYTE      qian
      0200037DH   PUBLIC    XDATA    INT       b2
      0200037BH   PUBLIC    XDATA    INT       b1
      0200037AH   PUBLIC    XDATA    BYTE      shiwan
      00000008H   PUBLIC    DATA     LONG      pressure
      010020C1H   PUBLIC    CODE     ---       getAllEnv
      01002BD0H   PUBLIC    CODE     ---       showWet
      0100282DH   PUBLIC    CODE     ---       showLight
      01002B04H   PUBLIC    CODE     ---       showPress
      01002876H   PUBLIC    CODE     ---       showTemperature
      01002A10H   PUBLIC    CODE     ---       getWetStr
      0100241AH   PUBLIC    CODE     ---       GetData
      01002EAEH   PUBLIC    CODE     ---       Delay20ms
      01000003H   PUBLIC    CODE     ---       Delay30us
      010029CEH   PUBLIC    CODE     ---       getPressureStr
      01000EC2H   PUBLIC    CODE     ---       get_pressure
      0100298CH   PUBLIC    CODE     ---       getTempStr
      01001C9EH   PUBLIC    CODE     ---       get_temperature
      0100215BH   PUBLIC    CODE     ---       press_init
      01002D37H   PUBLIC    CODE     ---       bmp085ReadPressure
      01002DBBH   PUBLIC    CODE     ---       bmp085ReadTemp
      0100290CH   PUBLIC    CODE     ---       _press_Multiple_read
      010028BEH   PUBLIC    CODE     ---       getLightStr
      0100273BH   PUBLIC    CODE     ---       light_read
      01002E61H   PUBLIC    CODE     ---       light_start
      0100000EH   PUBLIC    CODE     ---       _light_write
      010018C8H   PUBLIC    CODE     ---       _conversion
      01002CB8H   PUBLIC    CODE     ---       _delay
      00000092H   SFRSYM    DATA     BYTE      P1M0
      00000093H   SFRSYM    DATA     BYTE      P0M1
      00000096H   SFRSYM    DATA     BYTE      P2M0
      00000091H   SFRSYM    DATA     BYTE      P1M1
      00000080H   SFRSYM    DATA     BYTE      P0
      000000B2H   SFRSYM    DATA     BYTE      P3M0
      00000095H   SFRSYM    DATA     BYTE      P2M1
      00000090H   SFRSYM    DATA     BYTE      P1
      000000B4H   SFRSYM    DATA     BYTE      P4M0
      000000B1H   SFRSYM    DATA     BYTE      P3M1
      000000A0H   SFRSYM    DATA     BYTE      P2
      000000CAH   SFRSYM    DATA     BYTE      P5M0
      000000B3H   SFRSYM    DATA     BYTE      P4M1
      000000B0H   SFRSYM    DATA     BYTE      P3
      000000C9H   SFRSYM    DATA     BYTE      P5M1
      000000C0H   SFRSYM    DATA     BYTE      P4
      000000D0H.6 SFRSYM    DATA     BIT       AC
      000000C8H   SFRSYM    DATA     BYTE      P5
      000000A8H.7 SFRSYM    DATA     BIT       EA
      000000CEH   SFRSYM    DATA     BYTE      SPCTL
      000000D8H.7 SFRSYM    DATA     BIT       CF
      000000F9H   SFRSYM    DATA     BYTE      CH
      000000A8H.5 SFRSYM    DATA     BIT       EADC
      000000A8H   SFRSYM    DATA     BYTE      IE
      000000E9H   SFRSYM    DATA     BYTE      CL
      000000C5H   SFRSYM    DATA     BYTE      IAP_CMD
      000000FAH   SFRSYM    DATA     BYTE      CCAP0H
      000000FBH   SFRSYM    DATA     BYTE      CCAP1H
      000000BDH   SFRSYM    DATA     BYTE      ADC_RES
      000000B6H   SFRSYM    DATA     BYTE      IPH2
      000000EAH   SFRSYM    DATA     BYTE      CCAP0L
      000000D8H.6 SFRSYM    DATA     BIT       CR
      000000EBH   SFRSYM    DATA     BYTE      CCAP1L
      000000DAH   SFRSYM    DATA     BYTE      CCAPM0
LX51 LINKER/LOCATER V4.66.41.0                                                        06/10/2021  16:03:55  PAGE 35


      000000DBH   SFRSYM    DATA     BYTE      CCAPM1
      000000A8H.4 SFRSYM    DATA     BIT       ES
      000000B8H.5 SFRSYM    DATA     BIT       PADC
      000000B8H   SFRSYM    DATA     BYTE      IP
      00000098H   SFRSYM    DATA     BIT       RI
      000000D0H.7 SFRSYM    DATA     BIT       CY
      00000098H.1 SFRSYM    DATA     BIT       TI
      00000097H   SFRSYM    DATA     BYTE      CLK_DIV
      000000C3H   SFRSYM    DATA     BYTE      IAP_ADDRH
      000000B8H.4 SFRSYM    DATA     BIT       PS
      00000081H   SFRSYM    DATA     BYTE      SP
      000000C4H   SFRSYM    DATA     BYTE      IAP_ADDRL
      000000D9H   SFRSYM    DATA     BYTE      CMOD
      000000D8H   SFRSYM    DATA     BYTE      CCON
      000000B8H.7 SFRSYM    DATA     BIT       PPCA
      000000D0H.2 SFRSYM    DATA     BIT       OV
      000000A8H.6 SFRSYM    DATA     BIT       ELVD
      000000BBH   SFRSYM    DATA     BYTE      P4SW
      00000080H   SFRSYM    DATA     BIT       P00
      000000BCH   SFRSYM    DATA     BYTE      ADC_CONTR
      00000099H   SFRSYM    DATA     BYTE      SBUF
      00000090H   SFRSYM    DATA     BIT       P10
      00000080H.1 SFRSYM    DATA     BIT       P01
      00000087H   SFRSYM    DATA     BYTE      PCON
      000000A0H   SFRSYM    DATA     BIT       P20
      00000090H.1 SFRSYM    DATA     BIT       P11
      00000080H.2 SFRSYM    DATA     BIT       P02
      000000B0H   SFRSYM    DATA     BIT       P30
      000000A0H.1 SFRSYM    DATA     BIT       P21
      00000090H.2 SFRSYM    DATA     BIT       P12
      00000080H.3 SFRSYM    DATA     BIT       P03
      00000098H   SFRSYM    DATA     BYTE      SCON
      000000C0H   SFRSYM    DATA     BIT       P40
      000000B0H.1 SFRSYM    DATA     BIT       P31
      000000A0H.2 SFRSYM    DATA     BIT       P22
      00000090H.3 SFRSYM    DATA     BIT       P13
      00000080H.4 SFRSYM    DATA     BIT       P04
      0000008FH   SFRSYM    DATA     BYTE      WAKE_CLKO
      00000089H   SFRSYM    DATA     BYTE      TMOD
      00000088H   SFRSYM    DATA     BYTE      TCON
      000000C8H   SFRSYM    DATA     BIT       P50
      000000C0H.1 SFRSYM    DATA     BIT       P41
      000000B0H.2 SFRSYM    DATA     BIT       P32
      000000A0H.3 SFRSYM    DATA     BIT       P23
      00000090H.4 SFRSYM    DATA     BIT       P14
      00000080H.5 SFRSYM    DATA     BIT       P05
      000000C8H.1 SFRSYM    DATA     BIT       P51
      000000C0H.2 SFRSYM    DATA     BIT       P42
      000000B0H.3 SFRSYM    DATA     BIT       P33
      000000A0H.4 SFRSYM    DATA     BIT       P24
      00000090H.5 SFRSYM    DATA     BIT       P15
      00000080H.6 SFRSYM    DATA     BIT       P06
      000000C8H.2 SFRSYM    DATA     BIT       P52
      000000C0H.3 SFRSYM    DATA     BIT       P43
      000000B0H.4 SFRSYM    DATA     BIT       P34
      000000A0H.5 SFRSYM    DATA     BIT       P25
      00000090H.6 SFRSYM    DATA     BIT       P16
      00000080H.7 SFRSYM    DATA     BIT       P07
      000000B8H.6 SFRSYM    DATA     BIT       PLVD
      000000C8H.3 SFRSYM    DATA     BIT       P53
      000000C0H.4 SFRSYM    DATA     BIT       P44
      000000B0H.5 SFRSYM    DATA     BIT       P35
      000000A0H.6 SFRSYM    DATA     BIT       P26
      00000090H.7 SFRSYM    DATA     BIT       P17
      000000C0H.5 SFRSYM    DATA     BIT       P45
LX51 LINKER/LOCATER V4.66.41.0                                                        06/10/2021  16:03:55  PAGE 36


      000000B0H.6 SFRSYM    DATA     BIT       P36
      000000A0H.7 SFRSYM    DATA     BIT       P27
      000000C0H.6 SFRSYM    DATA     BIT       P46
      000000B0H.7 SFRSYM    DATA     BIT       P37
      000000C0H.7 SFRSYM    DATA     BIT       P47
      00000088H.1 SFRSYM    DATA     BIT       IE0
      000000A1H   SFRSYM    DATA     BYTE      BUS_SPEED
      00000088H.3 SFRSYM    DATA     BIT       IE1
      000000AFH   SFRSYM    DATA     BYTE      IE2
      0000008EH   SFRSYM    DATA     BYTE      AUXR
      000000F0H   SFRSYM    DATA     BYTE      B
      000000C7H   SFRSYM    DATA     BYTE      IAP_CONTR
      000000E0H   SFRSYM    DATA     BYTE      ACC
      000000A8H.1 SFRSYM    DATA     BIT       ET0
      00000088H.5 SFRSYM    DATA     BIT       TF0
      000000A8H.3 SFRSYM    DATA     BIT       ET1
      00000088H.7 SFRSYM    DATA     BIT       TF1
      000000B5H   SFRSYM    DATA     BYTE      IP2
      00000098H.2 SFRSYM    DATA     BIT       RB8
      0000008CH   SFRSYM    DATA     BYTE      TH0
      0000008DH   SFRSYM    DATA     BYTE      TH1
      00000088H   SFRSYM    DATA     BIT       IT0
      000000A8H   SFRSYM    DATA     BIT       EX0
      00000098H.3 SFRSYM    DATA     BIT       TB8
      00000088H.2 SFRSYM    DATA     BIT       IT1
      000000A8H.2 SFRSYM    DATA     BIT       EX1
      000000D0H   SFRSYM    DATA     BIT       P
      00000098H.7 SFRSYM    DATA     BIT       SM0
      0000008AH   SFRSYM    DATA     BYTE      TL0
      000000A0H.2 SFRSYM    DATA     BIT       wet
      00000098H.6 SFRSYM    DATA     BIT       SM1
      0000008BH   SFRSYM    DATA     BYTE      TL1
      00000098H.5 SFRSYM    DATA     BIT       SM2
      000000B8H.1 SFRSYM    DATA     BIT       PT0
      000000B8H.3 SFRSYM    DATA     BIT       PT1
      000000D0H.3 SFRSYM    DATA     BIT       RS0
      000000C2H   SFRSYM    DATA     BYTE      IAP_DATA
      00000088H.4 SFRSYM    DATA     BIT       TR0
      000000D0H.4 SFRSYM    DATA     BIT       RS1
      00000088H.6 SFRSYM    DATA     BIT       TR1
      000000C1H   SFRSYM    DATA     BYTE      WDT_CONTR
      000000B8H   SFRSYM    DATA     BIT       PX0
      000000B8H.2 SFRSYM    DATA     BIT       PX1
      000000F2H   SFRSYM    DATA     BYTE      PCA_PWM0
      000000F3H   SFRSYM    DATA     BYTE      PCA_PWM1
      0000009DH   SFRSYM    DATA     BYTE      P1ASF
      00000083H   SFRSYM    DATA     BYTE      DPH
      000000BEH   SFRSYM    DATA     BYTE      ADC_RESL
      00000082H   SFRSYM    DATA     BYTE      DPL
      000000CDH   SFRSYM    DATA     BYTE      SPSTAT
      000000B7H   SFRSYM    DATA     BYTE      IPH
      0000009BH   SFRSYM    DATA     BYTE      S2BUF
      00000098H.4 SFRSYM    DATA     BIT       REN
      0000009AH   SFRSYM    DATA     BYTE      S2CON
      0000009CH   SFRSYM    DATA     BYTE      BRT
      000000B9H   SFRSYM    DATA     BYTE      SADEN
      000000A9H   SFRSYM    DATA     BYTE      SADDR
      000000C6H   SFRSYM    DATA     BYTE      IAP_TRIG
      000000A2H   SFRSYM    DATA     BYTE      AUXR1
      000000D0H.5 SFRSYM    DATA     BIT       F0
      000000D0H   SFRSYM    DATA     BYTE      PSW
      000000D8H   SFRSYM    DATA     BIT       CCF0
      000000CFH   SFRSYM    DATA     BYTE      SPDAT
      000000D8H.1 SFRSYM    DATA     BIT       CCF1
      00000094H   SFRSYM    DATA     BYTE      P0M0
LX51 LINKER/LOCATER V4.66.41.0                                                        06/10/2021  16:03:55  PAGE 37



      01002CB8H   BLOCK     CODE     ---       LVL=0
      00000006H   SYMBOL    DATA     WORD      t
      01002CB8H   BLOCK     CODE     NEAR LAB  LVL=1
      00000002H   SYMBOL    DATA     WORD      i
      00000082H   SYMBOL    DATA     WORD      j
      00000004H   SYMBOL    DATA     WORD      k
      ---         BLOCKEND  ---      ---       LVL=1
      01002CB8H   LINE      CODE     ---       #31
      01002CB8H   LINE      CODE     ---       #32
      01002CB8H   LINE      CODE     ---       #34
      01002CC2H   LINE      CODE     ---       #35
      01002CC5H   LINE      CODE     ---       #36
      01002CE3H   LINE      CODE     ---       #37
      ---         BLOCKEND  ---      ---       LVL=0

      010018C8H   BLOCK     CODE     ---       LVL=0
      00000024H   SYMBOL    DATA     LONG      temp_data
      010018C8H   LINE      CODE     ---       #41
      010018D0H   LINE      CODE     ---       #42
      010018D0H   LINE      CODE     ---       #43
      010018E2H   LINE      CODE     ---       #44
      01001905H   LINE      CODE     ---       #45
      01001916H   LINE      CODE     ---       #46
      01001938H   LINE      CODE     ---       #47
      01001949H   LINE      CODE     ---       #48
      0100196BH   LINE      CODE     ---       #49
      0100197BH   LINE      CODE     ---       #50
      0100199CH   LINE      CODE     ---       #51
      010019ACH   LINE      CODE     ---       #52
      010019CDH   LINE      CODE     ---       #53
      010019D4H   LINE      CODE     ---       #54
      ---         BLOCKEND  ---      ---       LVL=0

      0100000EH   BLOCK     CODE     ---       LVL=0
      00000024H   SYMBOL    DATA     BYTE      regis
      0100000EH   LINE      CODE     ---       #55
      01000010H   LINE      CODE     ---       #56
      01000010H   LINE      CODE     ---       #57
      01000013H   LINE      CODE     ---       #58
      01000018H   LINE      CODE     ---       #59
      0100001DH   LINE      CODE     ---       #60
      ---         BLOCKEND  ---      ---       LVL=0

      01002E61H   BLOCK     CODE     ---       LVL=0
      01002E61H   LINE      CODE     ---       #62
      01002E61H   LINE      CODE     ---       #63
      01002E61H   LINE      CODE     ---       #64
      01002E66H   LINE      CODE     ---       #65
      01002E6BH   LINE      CODE     ---       #66
      ---         BLOCKEND  ---      ---       LVL=0

      0100273BH   BLOCK     CODE     ---       LVL=0
      0100273BH   BLOCK     CODE     NEAR LAB  LVL=1
      00000024H   SYMBOL    DATA     BYTE      i
      00000025H   SYMBOL    DATA     ---       BUF
      00000006H   SYMBOL    DATA     INT       dis_data
      ---         BLOCKEND  ---      ---       LVL=1
      0100273BH   LINE      CODE     ---       #69
      0100273BH   LINE      CODE     ---       #70
      0100273BH   LINE      CODE     ---       #74
      0100273EH   LINE      CODE     ---       #75
      01002743H   LINE      CODE     ---       #76
      01002746H   LINE      CODE     ---       #77
      01002746H   LINE      CODE     ---       #78
LX51 LINKER/LOCATER V4.66.41.0                                                        06/10/2021  16:03:55  PAGE 38


      01002750H   LINE      CODE     ---       #79
      01002755H   LINE      CODE     ---       #80
      01002755H   LINE      CODE     ---       #81
      01002757H   LINE      CODE     ---       #82
      01002759H   LINE      CODE     ---       #84
      01002759H   LINE      CODE     ---       #85
      0100275EH   LINE      CODE     ---       #86
      0100275EH   LINE      CODE     ---       #87
      01002767H   LINE      CODE     ---       #88
      0100276AH   LINE      CODE     ---       #89
      01002771H   LINE      CODE     ---       #90
      01002773H   LINE      CODE     ---       #91
      0100277EH   LINE      CODE     ---       #92
      01002797H   LINE      CODE     ---       #93
      01002797H   LINE      CODE     ---       #94
      ---         BLOCKEND  ---      ---       LVL=0

      010028BEH   BLOCK     CODE     ---       LVL=0
      010028BEH   LINE      CODE     ---       #95
      010028BEH   LINE      CODE     ---       #96
      010028BEH   LINE      CODE     ---       #97
      010028CCH   LINE      CODE     ---       #98
      010028D4H   LINE      CODE     ---       #99
      010028DCH   LINE      CODE     ---       #100
      010028E4H   LINE      CODE     ---       #101
      010028ECH   LINE      CODE     ---       #102
      010028F4H   LINE      CODE     ---       #103
      010028FCH   LINE      CODE     ---       #104
      01002902H   LINE      CODE     ---       #105
      ---         BLOCKEND  ---      ---       LVL=0

      01002903H   BLOCK     CODE     VOID      LVL=0
      ---         BLOCKEND  ---      ---       LVL=0

      0100290CH   BLOCK     CODE     ---       LVL=0
      0000004BH   SYMBOL    DATA     BYTE      ST_Address
      0000004CH   SYMBOL    DATA     BYTE      msb
      0000004DH   SYMBOL    DATA     BYTE      lsb
      00000006H   SYMBOL    DATA     INT       _data
      0100290EH   BLOCK     CODE     NEAR LAB  LVL=1
      0000004CH   SYMBOL    DATA     BYTE      msb
      0000004DH   SYMBOL    DATA     BYTE      lsb
      00000006H   SYMBOL    DATA     INT       _data
      ---         BLOCKEND  ---      ---       LVL=1
      0100290CH   LINE      CODE     ---       #112
      0100290EH   LINE      CODE     ---       #113
      0100290EH   LINE      CODE     ---       #116
      01002911H   LINE      CODE     ---       #117
      01002916H   LINE      CODE     ---       #118
      0100291BH   LINE      CODE     ---       #119
      0100291EH   LINE      CODE     ---       #120
      01002923H   LINE      CODE     ---       #122
      01002928H   LINE      CODE     ---       #123
      0100292DH   LINE      CODE     ---       #124
      01002932H   LINE      CODE     ---       #125
      01002937H   LINE      CODE     ---       #127
      0100293AH   LINE      CODE     ---       #128
      01002941H   LINE      CODE     ---       #129
      01002944H   LINE      CODE     ---       #130
      01002947H   LINE      CODE     ---       #131
      01002947H   LINE      CODE     ---       #132
      ---         BLOCKEND  ---      ---       LVL=0

      01002DBBH   BLOCK     CODE     ---       LVL=0
      01002DBBH   LINE      CODE     ---       #133
LX51 LINKER/LOCATER V4.66.41.0                                                        06/10/2021  16:03:55  PAGE 39


      01002DBBH   LINE      CODE     ---       #134
      01002DBBH   LINE      CODE     ---       #136
      01002DBEH   LINE      CODE     ---       #137
      01002DC3H   LINE      CODE     ---       #138
      01002DC8H   LINE      CODE     ---       #139
      01002DCDH   LINE      CODE     ---       #140
      01002DD0H   LINE      CODE     ---       #141
      01002DD0H   LINE      CODE     ---       #142
      01002DD9H   LINE      CODE     ---       #143
      ---         BLOCKEND  ---      ---       LVL=0

      01002D37H   BLOCK     CODE     ---       LVL=0
      01002D37H   BLOCK     CODE     NEAR LAB  LVL=1
      00000004H   SYMBOL    DATA     LONG      pressure
      ---         BLOCKEND  ---      ---       LVL=1
      01002D37H   LINE      CODE     ---       #144
      01002D37H   LINE      CODE     ---       #145
      01002D37H   LINE      CODE     ---       #146
      01002D3FH   LINE      CODE     ---       #147
      01002D42H   LINE      CODE     ---       #148
      01002D47H   LINE      CODE     ---       #149
      01002D4CH   LINE      CODE     ---       #150
      01002D51H   LINE      CODE     ---       #151
      01002D54H   LINE      CODE     ---       #152
      01002D54H   LINE      CODE     ---       #153
      01002D57H   LINE      CODE     ---       #154
      01002D5AH   LINE      CODE     ---       #155
      01002D5AH   LINE      CODE     ---       #156
      ---         BLOCKEND  ---      ---       LVL=0

      0100215BH   BLOCK     CODE     ---       LVL=0
      0100215BH   LINE      CODE     ---       #157
      0100215BH   LINE      CODE     ---       #158
      0100215BH   LINE      CODE     ---       #159
      01002168H   LINE      CODE     ---       #160
      01002175H   LINE      CODE     ---       #161
      01002182H   LINE      CODE     ---       #162
      0100218FH   LINE      CODE     ---       #163
      0100219CH   LINE      CODE     ---       #164
      010021A9H   LINE      CODE     ---       #165
      010021B6H   LINE      CODE     ---       #166
      010021C3H   LINE      CODE     ---       #167
      010021D0H   LINE      CODE     ---       #168
      010021DDH   LINE      CODE     ---       #169
      010021EAH   LINE      CODE     ---       #170
      ---         BLOCKEND  ---      ---       LVL=0

      01001C9EH   BLOCK     CODE     ---       LVL=0
      01001C9EH   BLOCK     CODE     NEAR LAB  LVL=1
      00000023H   SYMBOL    DATA     LONG      ut
      00000027H   SYMBOL    DATA     LONG      x1
      0000002BH   SYMBOL    DATA     LONG      x2
      0000002FH   SYMBOL    DATA     LONG      b5
      ---         BLOCKEND  ---      ---       LVL=1
      01001C9EH   LINE      CODE     ---       #171
      01001C9EH   LINE      CODE     ---       #172
      01001C9EH   LINE      CODE     ---       #175
      01001CA9H   LINE      CODE     ---       #176
      01001CDFH   LINE      CODE     ---       #177
      01001D29H   LINE      CODE     ---       #178
      01001D41H   LINE      CODE     ---       #179
      01001D5FH   LINE      CODE     ---       #180
      01001D5FH   LINE      CODE     ---       #181
      ---         BLOCKEND  ---      ---       LVL=0

LX51 LINKER/LOCATER V4.66.41.0                                                        06/10/2021  16:03:55  PAGE 40


      0100298CH   BLOCK     CODE     ---       LVL=0
      0100298CH   LINE      CODE     ---       #182
      0100298CH   LINE      CODE     ---       #183
      0100298CH   LINE      CODE     ---       #184
      01002997H   LINE      CODE     ---       #185
      0100299FH   LINE      CODE     ---       #186
      010029A7H   LINE      CODE     ---       #187
      010029AFH   LINE      CODE     ---       #188
      010029B7H   LINE      CODE     ---       #189
      010029BFH   LINE      CODE     ---       #190
      010029C7H   LINE      CODE     ---       #191
      010029CDH   LINE      CODE     ---       #192
      ---         BLOCKEND  ---      ---       LVL=0

      01000EC2H   BLOCK     CODE     ---       LVL=0
      01000EC2H   BLOCK     CODE     NEAR LAB  LVL=1
      00000023H   SYMBOL    DATA     LONG      up
      00000027H   SYMBOL    DATA     LONG      x1
      0000002BH   SYMBOL    DATA     LONG      x2
      0000002FH   SYMBOL    DATA     LONG      b5
      00000033H   SYMBOL    DATA     LONG      b6
      00000037H   SYMBOL    DATA     LONG      x3
      0000003BH   SYMBOL    DATA     LONG      b3
      0000003FH   SYMBOL    DATA     LONG      p
      00000043H   SYMBOL    DATA     DWORD     b4
      00000047H   SYMBOL    DATA     DWORD     b7
      ---         BLOCKEND  ---      ---       LVL=1
      01000EC2H   LINE      CODE     ---       #193
      01000EC2H   LINE      CODE     ---       #194
      01000EC2H   LINE      CODE     ---       #198
      01000ECDH   LINE      CODE     ---       #199
      01000EE5H   LINE      CODE     ---       #200
      01000F21H   LINE      CODE     ---       #201
      01000F47H   LINE      CODE     ---       #202
      01000F5FH   LINE      CODE     ---       #203
      01000FA4H   LINE      CODE     ---       #204
      01000FCAH   LINE      CODE     ---       #205
      01001008H   LINE      CODE     ---       #206
      01001036H   LINE      CODE     ---       #207
      01001068H   LINE      CODE     ---       #208
      0100108FH   LINE      CODE     ---       #209
      010010A3H   LINE      CODE     ---       #210
      010010BBH   LINE      CODE     ---       #212
      010010DFH   LINE      CODE     ---       #213
      01001114H   LINE      CODE     ---       #214
      01001133H   LINE      CODE     ---       #215
      01001153H   LINE      CODE     ---       #216
      0100118EH   LINE      CODE     ---       #217
      01001195H   LINE      CODE     ---       #218
      ---         BLOCKEND  ---      ---       LVL=0

      010029CEH   BLOCK     CODE     ---       LVL=0
      010029CEH   LINE      CODE     ---       #219
      010029CEH   LINE      CODE     ---       #220
      010029CEH   LINE      CODE     ---       #221
      010029D9H   LINE      CODE     ---       #222
      010029E1H   LINE      CODE     ---       #223
      010029E9H   LINE      CODE     ---       #224
      010029F1H   LINE      CODE     ---       #225
      010029F9H   LINE      CODE     ---       #226
      01002A01H   LINE      CODE     ---       #227
      01002A09H   LINE      CODE     ---       #228
      01002A0FH   LINE      CODE     ---       #229
      ---         BLOCKEND  ---      ---       LVL=0

LX51 LINKER/LOCATER V4.66.41.0                                                        06/10/2021  16:03:55  PAGE 41


      01000003H   BLOCK     CODE     ---       LVL=0
      01000003H   BLOCK     CODE     NEAR LAB  LVL=1
      00000007H   SYMBOL    DATA     BYTE      i
      ---         BLOCKEND  ---      ---       LVL=1
      01000003H   LINE      CODE     ---       #233
      01000003H   LINE      CODE     ---       #234
      01000003H   LINE      CODE     ---       #237
      01000005H   LINE      CODE     ---       #238
      01000007H   LINE      CODE     ---       #239
      ---         BLOCKEND  ---      ---       LVL=0

      01002EAEH   BLOCK     CODE     ---       LVL=0
      01002EAEH   BLOCK     CODE     NEAR LAB  LVL=1
      00000007H   SYMBOL    DATA     BYTE      i
      00000006H   SYMBOL    DATA     BYTE      j
      00000005H   SYMBOL    DATA     BYTE      k
      ---         BLOCKEND  ---      ---       LVL=1
      01002EAEH   LINE      CODE     ---       #240
      01002EAEH   LINE      CODE     ---       #241
      01002EAEH   LINE      CODE     ---       #244
      01002EB0H   LINE      CODE     ---       #245
      01002EB2H   LINE      CODE     ---       #246
      01002EB4H   LINE      CODE     ---       #248
      01002EB4H   LINE      CODE     ---       #250
      01002EB4H   LINE      CODE     ---       #251
      01002EB6H   LINE      CODE     ---       #252
      01002EB8H   LINE      CODE     ---       #253
      01002EBAH   LINE      CODE     ---       #254
      ---         BLOCKEND  ---      ---       LVL=0

      0100241AH   BLOCK     CODE     ---       LVL=0
      0100241AH   BLOCK     CODE     NEAR LAB  LVL=1
      00000005H   SYMBOL    DATA     BYTE      i
      00000006H   SYMBOL    DATA     BYTE      j
      00000007H   SYMBOL    DATA     BYTE      t
      00000004H   SYMBOL    DATA     BYTE      dat8
      ---         BLOCKEND  ---      ---       LVL=1
      0100241AH   LINE      CODE     ---       #255
      0100241AH   LINE      CODE     ---       #256
      0100241AH   LINE      CODE     ---       #259
      0100241CH   LINE      CODE     ---       #260
      0100241EH   LINE      CODE     ---       #261
      01002421H   LINE      CODE     ---       #262
      01002423H   LINE      CODE     ---       #263
      01002426H   LINE      CODE     ---       #264
      01002428H   LINE      CODE     ---       #265
      01002431H   LINE      CODE     ---       #266
      01002434H   LINE      CODE     ---       #267
      01002434H   LINE      CODE     ---       #268
      01002434H   LINE      CODE     ---       #269
      01002436H   LINE      CODE     ---       #270
      01002436H   LINE      CODE     ---       #272
      01002438H   LINE      CODE     ---       #273
      01002441H   LINE      CODE     ---       #274
      01002444H   LINE      CODE     ---       #275
      01002444H   LINE      CODE     ---       #276
      01002444H   LINE      CODE     ---       #277
      01002446H   LINE      CODE     ---       #278
      01002446H   LINE      CODE     ---       #280
      01002448H   LINE      CODE     ---       #281
      01002451H   LINE      CODE     ---       #282
      01002454H   LINE      CODE     ---       #283
      01002454H   LINE      CODE     ---       #284
      01002454H   LINE      CODE     ---       #285
      01002456H   LINE      CODE     ---       #286
LX51 LINKER/LOCATER V4.66.41.0                                                        06/10/2021  16:03:55  PAGE 42


      01002456H   LINE      CODE     ---       #288
      01002458H   LINE      CODE     ---       #289
      01002458H   LINE      CODE     ---       #290
      0100245AH   LINE      CODE     ---       #291
      0100245AH   LINE      CODE     ---       #293
      0100245CH   LINE      CODE     ---       #294
      01002465H   LINE      CODE     ---       #295
      01002468H   LINE      CODE     ---       #296
      01002468H   LINE      CODE     ---       #297
      0100246AH   LINE      CODE     ---       #298
      0100246CH   LINE      CODE     ---       #299
      0100246CH   LINE      CODE     ---       #300
      0100246EH   LINE      CODE     ---       #301
      01002475H   LINE      CODE     ---       #302
      01002479H   LINE      CODE     ---       #303
      0100247FH   LINE      CODE     ---       #304
      01002480H   LINE      CODE     ---       #305
      01002484H   LINE      CODE     ---       #306
      01002487H   LINE      CODE     ---       #307
      01002489H   LINE      CODE     ---       #308
      0100248DH   LINE      CODE     ---       #309
      01002490H   LINE      CODE     ---       #310
      01002493H   LINE      CODE     ---       #311
      01002495H   LINE      CODE     ---       #312
      01002497H   LINE      CODE     ---       #313
      ---         BLOCKEND  ---      ---       LVL=0

      01002A10H   BLOCK     CODE     ---       LVL=0
      01002A10H   LINE      CODE     ---       #314
      01002A10H   LINE      CODE     ---       #315
      01002A10H   LINE      CODE     ---       #316
      01002A19H   LINE      CODE     ---       #317
      01002A21H   LINE      CODE     ---       #318
      01002A29H   LINE      CODE     ---       #319
      01002A31H   LINE      CODE     ---       #320
      01002A39H   LINE      CODE     ---       #321
      01002A41H   LINE      CODE     ---       #322
      01002A49H   LINE      CODE     ---       #323
      01002A4FH   LINE      CODE     ---       #324
      ---         BLOCKEND  ---      ---       LVL=0

      01002876H   BLOCK     CODE     ---       LVL=0
      01002876H   LINE      CODE     ---       #328
      01002876H   LINE      CODE     ---       #329
      01002876H   LINE      CODE     ---       #330
      01002879H   LINE      CODE     ---       #331
      0100287CH   LINE      CODE     ---       #332
      0100287FH   LINE      CODE     ---       #333
      01002888H   LINE      CODE     ---       #334
      01002893H   LINE      CODE     ---       #335
      0100289EH   LINE      CODE     ---       #336
      010028A7H   LINE      CODE     ---       #337
      010028B2H   LINE      CODE     ---       #338
      010028BBH   LINE      CODE     ---       #339
      ---         BLOCKEND  ---      ---       LVL=0

      01002B04H   BLOCK     CODE     ---       LVL=0
      01002B04H   LINE      CODE     ---       #341
      01002B04H   LINE      CODE     ---       #342
      01002B04H   LINE      CODE     ---       #343
      01002B07H   LINE      CODE     ---       #344
      01002B0AH   LINE      CODE     ---       #345
      01002B0DH   LINE      CODE     ---       #346
      01002B16H   LINE      CODE     ---       #347
      01002B1CH   LINE      CODE     ---       #348
LX51 LINKER/LOCATER V4.66.41.0                                                        06/10/2021  16:03:55  PAGE 43


      01002B22H   LINE      CODE     ---       #349
      01002B27H   LINE      CODE     ---       #350
      01002B30H   LINE      CODE     ---       #351
      01002B39H   LINE      CODE     ---       #352
      ---         BLOCKEND  ---      ---       LVL=0

      0100282DH   BLOCK     CODE     ---       LVL=0
      0100282DH   BLOCK     CODE     NEAR LAB  LVL=1
      00000023H   SYMBOL    DATA     BYTE      i
      ---         BLOCKEND  ---      ---       LVL=1
      0100282DH   LINE      CODE     ---       #354
      0100282DH   LINE      CODE     ---       #355
      0100282DH   LINE      CODE     ---       #357
      01002830H   LINE      CODE     ---       #358
      01002833H   LINE      CODE     ---       #359
      01002836H   LINE      CODE     ---       #360
      01002839H   LINE      CODE     ---       #361
      01002842H   LINE      CODE     ---       #362
      01002855H   LINE      CODE     ---       #363
      01002857H   LINE      CODE     ---       #364
      0100285CH   LINE      CODE     ---       #365
      0100286AH   LINE      CODE     ---       #366
      01002873H   LINE      CODE     ---       #367
      ---         BLOCKEND  ---      ---       LVL=0

      01002BD0H   BLOCK     CODE     ---       LVL=0
      01002BD0H   LINE      CODE     ---       #369
      01002BD0H   LINE      CODE     ---       #370
      01002BD0H   LINE      CODE     ---       #371
      01002BD6H   LINE      CODE     ---       #372
      01002BD6H   LINE      CODE     ---       #373
      01002BD9H   LINE      CODE     ---       #374
      01002BDCH   LINE      CODE     ---       #375
      01002BE5H   LINE      CODE     ---       #376
      01002BEAH   LINE      CODE     ---       #377
      01002BF3H   LINE      CODE     ---       #378
      01002BFCH   LINE      CODE     ---       #379
      01002BFFH   LINE      CODE     ---       #380
      01002BFFH   LINE      CODE     ---       #381
      ---         BLOCKEND  ---      ---       LVL=0

      010020C1H   BLOCK     CODE     ---       LVL=0
      010020C1H   LINE      CODE     ---       #382
      010020C1H   LINE      CODE     ---       #383
      010020C1H   LINE      CODE     ---       #384
      010020C4H   LINE      CODE     ---       #385
      010020DFH   LINE      CODE     ---       #386
      010020E2H   LINE      CODE     ---       #387
      01002106H   LINE      CODE     ---       #388
      01002109H   LINE      CODE     ---       #389
      0100212DH   LINE      CODE     ---       #390
      01002130H   LINE      CODE     ---       #391
      01002154H   LINE      CODE     ---       #392
      0100215AH   LINE      CODE     ---       #393
      ---         BLOCKEND  ---      ---       LVL=0

      ---         MODULE    ---      ---       TIMER
      020001E0H   PUBLIC    XDATA    ---       mempool
      020001DCH   PUBLIC    XDATA    LONG      nowTime
      020001DAH   PUBLIC    XDATA    WORD      count_down_time
      020001D9H   PUBLIC    XDATA    BYTE      weekDay
      020001CDH   PUBLIC    XDATA    ---       month_day
      020001C9H   PUBLIC    XDATA    LONG      cnt
      020001C8H   PUBLIC    XDATA    BYTE      hour
      020001C7H   PUBLIC    XDATA    BYTE      day
LX51 LINKER/LOCATER V4.66.41.0                                                        06/10/2021  16:03:55  PAGE 44


      02000005H   PUBLIC    XDATA    ---       timetable
      02000003H   PUBLIC    XDATA    WORD      year
      02000002H   PUBLIC    XDATA    BYTE      month
      00000018H   PUBLIC    DATA     ---       clock_last
      00000021H.7 PUBLIC    BIT      BIT       sensor_flag
      00000021H.6 PUBLIC    BIT      BIT       time_update_flag
      02000001H   PUBLIC    XDATA    BYTE      minute
      00000015H   PUBLIC    DATA     ---       clock_head
      02000000H   PUBLIC    XDATA    BYTE      second
      010020BCH   PUBLIC    CODE     ---       class_minute
      010020B7H   PUBLIC    CODE     ---       class_hour
      01002086H   PUBLIC    CODE     ---       weekDays
      01001BD8H   PUBLIC    CODE     ---       showTime
      010017B7H   PUBLIC    CODE     ---       _parseClass
      01001AD9H   PUBLIC    CODE     ---       checkClock
      01002391H   PUBLIC    CODE     ---       _deleteClock
      00000023H   PUBLIC    DATA     BYTE      ?_addClock?BYTE
      01002306H   PUBLIC    CODE     ---       _addClock
      01002B3CH   PUBLIC    CODE     ---       time_update
      01001389H   PUBLIC    CODE     ---       _changeToNowTime
      01002C08H   PUBLIC    CODE     ---       _isRun
      01001690H   PUBLIC    CODE     ---       T0_time
      01001E20H   PUBLIC    CODE     ---       time0_init
      00000092H   SFRSYM    DATA     BYTE      P1M0
      00000093H   SFRSYM    DATA     BYTE      P0M1
      00000096H   SFRSYM    DATA     BYTE      P2M0
      00000091H   SFRSYM    DATA     BYTE      P1M1
      00000080H   SFRSYM    DATA     BYTE      P0
      000000B2H   SFRSYM    DATA     BYTE      P3M0
      00000095H   SFRSYM    DATA     BYTE      P2M1
      00000090H   SFRSYM    DATA     BYTE      P1
      000000B4H   SFRSYM    DATA     BYTE      P4M0
      000000B1H   SFRSYM    DATA     BYTE      P3M1
      000000A0H   SFRSYM    DATA     BYTE      P2
      000000CAH   SFRSYM    DATA     BYTE      P5M0
      000000B3H   SFRSYM    DATA     BYTE      P4M1
      000000B0H   SFRSYM    DATA     BYTE      P3
      000000C9H   SFRSYM    DATA     BYTE      P5M1
      000000C0H   SFRSYM    DATA     BYTE      P4
      000000D0H.6 SFRSYM    DATA     BIT       AC
      000000C8H   SFRSYM    DATA     BYTE      P5
      000000A8H.7 SFRSYM    DATA     BIT       EA
      000000CEH   SFRSYM    DATA     BYTE      SPCTL
      000000D8H.7 SFRSYM    DATA     BIT       CF
      000000F9H   SFRSYM    DATA     BYTE      CH
      000000A8H.5 SFRSYM    DATA     BIT       EADC
      000000A8H   SFRSYM    DATA     BYTE      IE
      000000E9H   SFRSYM    DATA     BYTE      CL
      000000C5H   SFRSYM    DATA     BYTE      IAP_CMD
      000000FAH   SFRSYM    DATA     BYTE      CCAP0H
      000000FBH   SFRSYM    DATA     BYTE      CCAP1H
      000000BDH   SFRSYM    DATA     BYTE      ADC_RES
      000000B6H   SFRSYM    DATA     BYTE      IPH2
      000000EAH   SFRSYM    DATA     BYTE      CCAP0L
      000000D8H.6 SFRSYM    DATA     BIT       CR
      000000EBH   SFRSYM    DATA     BYTE      CCAP1L
      000000DAH   SFRSYM    DATA     BYTE      CCAPM0
      000000DBH   SFRSYM    DATA     BYTE      CCAPM1
      000000A8H.4 SFRSYM    DATA     BIT       ES
      000000B8H.5 SFRSYM    DATA     BIT       PADC
      000000B8H   SFRSYM    DATA     BYTE      IP
      00000098H   SFRSYM    DATA     BIT       RI
      000000D0H.7 SFRSYM    DATA     BIT       CY
      00000098H.1 SFRSYM    DATA     BIT       TI
      00000097H   SFRSYM    DATA     BYTE      CLK_DIV
LX51 LINKER/LOCATER V4.66.41.0                                                        06/10/2021  16:03:55  PAGE 45


      000000C3H   SFRSYM    DATA     BYTE      IAP_ADDRH
      000000B8H.4 SFRSYM    DATA     BIT       PS
      00000081H   SFRSYM    DATA     BYTE      SP
      000000C4H   SFRSYM    DATA     BYTE      IAP_ADDRL
      000000D9H   SFRSYM    DATA     BYTE      CMOD
      000000D8H   SFRSYM    DATA     BYTE      CCON
      000000B8H.7 SFRSYM    DATA     BIT       PPCA
      000000D0H.2 SFRSYM    DATA     BIT       OV
      000000A8H.6 SFRSYM    DATA     BIT       ELVD
      000000BBH   SFRSYM    DATA     BYTE      P4SW
      00000080H   SFRSYM    DATA     BIT       P00
      000000BCH   SFRSYM    DATA     BYTE      ADC_CONTR
      00000099H   SFRSYM    DATA     BYTE      SBUF
      00000090H   SFRSYM    DATA     BIT       P10
      00000080H.1 SFRSYM    DATA     BIT       P01
      00000087H   SFRSYM    DATA     BYTE      PCON
      000000A0H   SFRSYM    DATA     BIT       P20
      00000090H.1 SFRSYM    DATA     BIT       P11
      00000080H.2 SFRSYM    DATA     BIT       P02
      000000B0H   SFRSYM    DATA     BIT       P30
      000000A0H.1 SFRSYM    DATA     BIT       P21
      00000090H.2 SFRSYM    DATA     BIT       P12
      00000080H.3 SFRSYM    DATA     BIT       P03
      00000098H   SFRSYM    DATA     BYTE      SCON
      000000C0H   SFRSYM    DATA     BIT       P40
      000000B0H.1 SFRSYM    DATA     BIT       P31
      000000A0H.2 SFRSYM    DATA     BIT       P22
      00000090H.3 SFRSYM    DATA     BIT       P13
      00000080H.4 SFRSYM    DATA     BIT       P04
      0000008FH   SFRSYM    DATA     BYTE      WAKE_CLKO
      00000089H   SFRSYM    DATA     BYTE      TMOD
      00000088H   SFRSYM    DATA     BYTE      TCON
      000000C8H   SFRSYM    DATA     BIT       P50
      000000C0H.1 SFRSYM    DATA     BIT       P41
      000000B0H.2 SFRSYM    DATA     BIT       P32
      000000A0H.3 SFRSYM    DATA     BIT       P23
      00000090H.4 SFRSYM    DATA     BIT       P14
      00000080H.5 SFRSYM    DATA     BIT       P05
      000000C8H.1 SFRSYM    DATA     BIT       P51
      000000C0H.2 SFRSYM    DATA     BIT       P42
      000000B0H.3 SFRSYM    DATA     BIT       P33
      000000A0H.4 SFRSYM    DATA     BIT       P24
      00000090H.5 SFRSYM    DATA     BIT       P15
      00000080H.6 SFRSYM    DATA     BIT       P06
      000000C8H.2 SFRSYM    DATA     BIT       P52
      000000C0H.3 SFRSYM    DATA     BIT       P43
      000000B0H.4 SFRSYM    DATA     BIT       P34
      000000A0H.5 SFRSYM    DATA     BIT       P25
      00000090H.6 SFRSYM    DATA     BIT       P16
      00000080H.7 SFRSYM    DATA     BIT       P07
      000000B8H.6 SFRSYM    DATA     BIT       PLVD
      000000C8H.3 SFRSYM    DATA     BIT       P53
      000000C0H.4 SFRSYM    DATA     BIT       P44
      000000B0H.5 SFRSYM    DATA     BIT       P35
      000000A0H.6 SFRSYM    DATA     BIT       P26
      00000090H.7 SFRSYM    DATA     BIT       P17
      000000C0H.5 SFRSYM    DATA     BIT       P45
      000000B0H.6 SFRSYM    DATA     BIT       P36
      000000A0H.7 SFRSYM    DATA     BIT       P27
      000000C0H.6 SFRSYM    DATA     BIT       P46
      000000B0H.7 SFRSYM    DATA     BIT       P37
      000000C0H.7 SFRSYM    DATA     BIT       P47
      00000088H.1 SFRSYM    DATA     BIT       IE0
      000000A1H   SFRSYM    DATA     BYTE      BUS_SPEED
      00000088H.3 SFRSYM    DATA     BIT       IE1
LX51 LINKER/LOCATER V4.66.41.0                                                        06/10/2021  16:03:55  PAGE 46


      000000AFH   SFRSYM    DATA     BYTE      IE2
      0000008EH   SFRSYM    DATA     BYTE      AUXR
      000000F0H   SFRSYM    DATA     BYTE      B
      000000C7H   SFRSYM    DATA     BYTE      IAP_CONTR
      000000E0H   SFRSYM    DATA     BYTE      ACC
      000000A8H.1 SFRSYM    DATA     BIT       ET0
      00000088H.5 SFRSYM    DATA     BIT       TF0
      000000A8H.3 SFRSYM    DATA     BIT       ET1
      00000088H.7 SFRSYM    DATA     BIT       TF1
      000000B5H   SFRSYM    DATA     BYTE      IP2
      00000098H.2 SFRSYM    DATA     BIT       RB8
      0000008CH   SFRSYM    DATA     BYTE      TH0
      0000008DH   SFRSYM    DATA     BYTE      TH1
      00000088H   SFRSYM    DATA     BIT       IT0
      000000A8H   SFRSYM    DATA     BIT       EX0
      00000098H.3 SFRSYM    DATA     BIT       TB8
      00000088H.2 SFRSYM    DATA     BIT       IT1
      000000A8H.2 SFRSYM    DATA     BIT       EX1
      000000D0H   SFRSYM    DATA     BIT       P
      00000098H.7 SFRSYM    DATA     BIT       SM0
      0000008AH   SFRSYM    DATA     BYTE      TL0
      00000098H.6 SFRSYM    DATA     BIT       SM1
      0000008BH   SFRSYM    DATA     BYTE      TL1
      00000098H.5 SFRSYM    DATA     BIT       SM2
      000000B8H.1 SFRSYM    DATA     BIT       PT0
      000000B8H.3 SFRSYM    DATA     BIT       PT1
      000000D0H.3 SFRSYM    DATA     BIT       RS0
      000000C2H   SFRSYM    DATA     BYTE      IAP_DATA
      00000088H.4 SFRSYM    DATA     BIT       TR0
      000000D0H.4 SFRSYM    DATA     BIT       RS1
      00000088H.6 SFRSYM    DATA     BIT       TR1
      000000C1H   SFRSYM    DATA     BYTE      WDT_CONTR
      000000B8H   SFRSYM    DATA     BIT       PX0
      000000B8H.2 SFRSYM    DATA     BIT       PX1
      000000F2H   SFRSYM    DATA     BYTE      PCA_PWM0
      000000F3H   SFRSYM    DATA     BYTE      PCA_PWM1
      0000009DH   SFRSYM    DATA     BYTE      P1ASF
      00000083H   SFRSYM    DATA     BYTE      DPH
      000000BEH   SFRSYM    DATA     BYTE      ADC_RESL
      00000082H   SFRSYM    DATA     BYTE      DPL
      000000CDH   SFRSYM    DATA     BYTE      SPSTAT
      000000B7H   SFRSYM    DATA     BYTE      IPH
      0000009BH   SFRSYM    DATA     BYTE      S2BUF
      00000098H.4 SFRSYM    DATA     BIT       REN
      0000009AH   SFRSYM    DATA     BYTE      S2CON
      00000090H   SFRSYM    DATA     BIT       led1
      0000009CH   SFRSYM    DATA     BYTE      BRT
      000000B9H   SFRSYM    DATA     BYTE      SADEN
      000000A9H   SFRSYM    DATA     BYTE      SADDR
      000000C6H   SFRSYM    DATA     BYTE      IAP_TRIG
      000000A2H   SFRSYM    DATA     BYTE      AUXR1
      000000D0H.5 SFRSYM    DATA     BIT       F0
      000000D0H   SFRSYM    DATA     BYTE      PSW
      000000D8H   SFRSYM    DATA     BIT       CCF0
      000000CFH   SFRSYM    DATA     BYTE      SPDAT
      000000D8H.1 SFRSYM    DATA     BIT       CCF1
      00000094H   SFRSYM    DATA     BYTE      P0M0

      01001E20H   BLOCK     CODE     ---       LVL=0
      01001E20H   BLOCK     CODE     NEAR LAB  LVL=1
      00000007H   SYMBOL    DATA     BYTE      i
      00000006H   SYMBOL    DATA     BYTE      j
      ---         BLOCKEND  ---      ---       LVL=1
      01001E20H   LINE      CODE     ---       #34
      01001E20H   LINE      CODE     ---       #35
LX51 LINKER/LOCATER V4.66.41.0                                                        06/10/2021  16:03:55  PAGE 47


      01001E20H   LINE      CODE     ---       #37
      01001E23H   LINE      CODE     ---       #38
      01001E26H   LINE      CODE     ---       #39
      01001E29H   LINE      CODE     ---       #40
      01001E2BH   LINE      CODE     ---       #41
      01001E2DH   LINE      CODE     ---       #42
      01001E2FH   LINE      CODE     ---       #43
      01001E31H   LINE      CODE     ---       #44
      01001E3CH   LINE      CODE     ---       #45
      01001E4FH   LINE      CODE     ---       #46
      01001E58H   LINE      CODE     ---       #47
      01001E5EH   LINE      CODE     ---       #48
      01001E72H   LINE      CODE     ---       #49
      01001E7DH   LINE      CODE     ---       #50
      01001E88H   LINE      CODE     ---       #51
      01001E93H   LINE      CODE     ---       #52
      01001E9AH   LINE      CODE     ---       #53
      01001E9CH   LINE      CODE     ---       #54
      01001E9CH   LINE      CODE     ---       #55
      01001E9EH   LINE      CODE     ---       #56
      01001EBAH   LINE      CODE     ---       #57
      01001EBEH   LINE      CODE     ---       #58
      01001EC7H   LINE      CODE     ---       #59
      ---         BLOCKEND  ---      ---       LVL=0

      01001690H   BLOCK     CODE     ---       LVL=0
      01001690H   LINE      CODE     ---       #64
      010016ADH   LINE      CODE     ---       #66
      010016B0H   LINE      CODE     ---       #67
      010016B3H   LINE      CODE     ---       #68
      010016D8H   LINE      CODE     ---       #69
      010016FBH   LINE      CODE     ---       #70
      010016FBH   LINE      CODE     ---       #71
      010016FDH   LINE      CODE     ---       #72
      01001722H   LINE      CODE     ---       #73
      01001724H   LINE      CODE     ---       #74
      01001733H   LINE      CODE     ---       #75
      0100173FH   LINE      CODE     ---       #76
      0100174BH   LINE      CODE     ---       #77
      0100174BH   LINE      CODE     ---       #78
      0100174EH   LINE      CODE     ---       #79
      0100174EH   LINE      CODE     ---       #80
      0100174EH   LINE      CODE     ---       #81
      01001774H   LINE      CODE     ---       #82
      01001774H   LINE      CODE     ---       #83
      01001776H   LINE      CODE     ---       #84
      01001776H   LINE      CODE     ---       #85
      01001792H   LINE      CODE     ---       #86
      0100179CH   LINE      CODE     ---       #87
      ---         BLOCKEND  ---      ---       LVL=0

      01002C00H   BLOCK     CODE     VOID      LVL=0
      ---         BLOCKEND  ---      ---       LVL=0

      01002C08H   BLOCK     CODE     ---       LVL=0
      00000002H   SYMBOL    DATA     WORD      y
      01002C08H   LINE      CODE     ---       #91
      01002C0CH   LINE      CODE     ---       #92
      01002C0CH   LINE      CODE     ---       #93
      01002C2AH   LINE      CODE     ---       #94
      01002C2DH   LINE      CODE     ---       #96
      01002C2FH   LINE      CODE     ---       #97
      ---         BLOCKEND  ---      ---       LVL=0

      01001389H   BLOCK     CODE     ---       LVL=0
LX51 LINKER/LOCATER V4.66.41.0                                                        06/10/2021  16:03:55  PAGE 48


      00000023H   SYMBOL    DATA     LONG      n
      01001391H   BLOCK     CODE     NEAR LAB  LVL=1
      00000027H   SYMBOL    DATA     BYTE      i
      00000028H   SYMBOL    DATA     LONG      t
      0000002CH   SYMBOL    DATA     LONG      u
      ---         BLOCKEND  ---      ---       LVL=1
      01001389H   LINE      CODE     ---       #101
      01001391H   LINE      CODE     ---       #102
      01001391H   LINE      CODE     ---       #105
      010013ADH   LINE      CODE     ---       #106
      010013D0H   LINE      CODE     ---       #107
      010013F2H   LINE      CODE     ---       #108
      010013FCH   LINE      CODE     ---       #109
      01001430H   LINE      CODE     ---       #110
      01001430H   LINE      CODE     ---       #111
      0100143EH   LINE      CODE     ---       #112
      01001460H   LINE      CODE     ---       #113
      01001462H   LINE      CODE     ---       #114
      0100146BH   LINE      CODE     ---       #115
      01001470H   LINE      CODE     ---       #117
      01001473H   LINE      CODE     ---       #118
      01001479H   LINE      CODE     ---       #119
      0100147CH   LINE      CODE     ---       #120
      0100147CH   LINE      CODE     ---       #121
      010014A8H   LINE      CODE     ---       #122
      010014A8H   LINE      CODE     ---       #123
      010014CBH   LINE      CODE     ---       #124
      010014D1H   LINE      CODE     ---       #125
      010014D1H   LINE      CODE     ---       #127
      010014D1H   LINE      CODE     ---       #128
      010014D8H   LINE      CODE     ---       #129
      010014DEH   LINE      CODE     ---       #130
      010014F5H   LINE      CODE     ---       #131
      01001517H   LINE      CODE     ---       #132
      01001525H   LINE      CODE     ---       #133
      01001546H   LINE      CODE     ---       #134
      01001554H   LINE      CODE     ---       #135
      ---         BLOCKEND  ---      ---       LVL=0

      01002B3CH   BLOCK     CODE     ---       LVL=0
      01002B3CH   LINE      CODE     ---       #163
      01002B3CH   LINE      CODE     ---       #164
      01002B3CH   LINE      CODE     ---       #165
      01002B45H   LINE      CODE     ---       #166
      01002B45H   LINE      CODE     ---       #167
      01002B45H   LINE      CODE     ---       #168
      01002B50H   LINE      CODE     ---       #169
      01002B50H   LINE      CODE     ---       #170
      01002B55H   LINE      CODE     ---       #171
      01002B59H   LINE      CODE     ---       #172
      01002B5BH   LINE      CODE     ---       #173
      01002B6CH   LINE      CODE     ---       #174
      ---         BLOCKEND  ---      ---       LVL=0

      01002306H   BLOCK     CODE     ---       LVL=0
      00000023H   SYMBOL    DATA     BYTE      hour
      00000024H   SYMBOL    DATA     BYTE      minute
      00000025H   SYMBOL    DATA     BYTE      second
      00000026H   SYMBOL    DATA     BYTE      sta
      0100230CH   BLOCK     CODE     NEAR LAB  LVL=1
      00000027H   SYMBOL    DATA     ---       t
      ---         BLOCKEND  ---      ---       LVL=1
      01002306H   LINE      CODE     ---       #179
      0100230CH   LINE      CODE     ---       #180
      0100230CH   LINE      CODE     ---       #182
LX51 LINKER/LOCATER V4.66.41.0                                                        06/10/2021  16:03:55  PAGE 49


      0100231EH   LINE      CODE     ---       #183
      0100232FH   LINE      CODE     ---       #184
      0100233DH   LINE      CODE     ---       #185
      01002345H   LINE      CODE     ---       #186
      0100234DH   LINE      CODE     ---       #187
      01002355H   LINE      CODE     ---       #188
      0100236AH   LINE      CODE     ---       #189
      0100238AH   LINE      CODE     ---       #190
      01002390H   LINE      CODE     ---       #191
      ---         BLOCKEND  ---      ---       LVL=0

      01002391H   BLOCK     CODE     ---       LVL=0
      00000023H   SYMBOL    DATA     WORD      id
      01002395H   BLOCK     CODE     NEAR LAB  LVL=1
      00000025H   SYMBOL    DATA     ---       t
      00000028H   SYMBOL    DATA     ---       tt
      ---         BLOCKEND  ---      ---       LVL=1
      01002391H   LINE      CODE     ---       #192
      01002395H   LINE      CODE     ---       #193
      01002395H   LINE      CODE     ---       #196
      0100239EH   LINE      CODE     ---       #197
      010023ACH   LINE      CODE     ---       #198
      010023ACH   LINE      CODE     ---       #199
      010023C5H   LINE      CODE     ---       #200
      010023C5H   LINE      CODE     ---       #201
      010023CBH   LINE      CODE     ---       #202
      010023E0H   LINE      CODE     ---       #203
      010023E9H   LINE      CODE     ---       #204
      01002401H   LINE      CODE     ---       #205
      01002408H   LINE      CODE     ---       #206
      01002408H   LINE      CODE     ---       #207
      01002408H   LINE      CODE     ---       #208
      01002417H   LINE      CODE     ---       #209
      01002419H   LINE      CODE     ---       #210
      ---         BLOCKEND  ---      ---       LVL=0

      01001AD9H   BLOCK     CODE     ---       LVL=0
      01001AD9H   BLOCK     CODE     NEAR LAB  LVL=1
      00000023H   SYMBOL    DATA     BYTE      i
      00000024H   SYMBOL    DATA     ---       t
      ---         BLOCKEND  ---      ---       LVL=1
      01001AD9H   LINE      CODE     ---       #234
      01001AD9H   LINE      CODE     ---       #235
      01001AD9H   LINE      CODE     ---       #238
      01001AE2H   LINE      CODE     ---       #239
      01001AF3H   LINE      CODE     ---       #240
      01001AF3H   LINE      CODE     ---       #241
      01001B02H   LINE      CODE     ---       #242
      01001B0CH   LINE      CODE     ---       #243
      01001B0CH   LINE      CODE     ---       #244
      01001B3CH   LINE      CODE     ---       #245
      01001B3CH   LINE      CODE     ---       #247
      01001B41H   LINE      CODE     ---       #248
      01001B41H   LINE      CODE     ---       #249
      01001B44H   LINE      CODE     ---       #250
      01001B47H   LINE      CODE     ---       #251
      01001B50H   LINE      CODE     ---       #252
      01001B52H   LINE      CODE     ---       #254
      01001B73H   LINE      CODE     ---       #255
      01001B73H   LINE      CODE     ---       #256
      01001B76H   LINE      CODE     ---       #257
      01001B7DH   LINE      CODE     ---       #258
      01001B7DH   LINE      CODE     ---       #259
      01001B7DH   LINE      CODE     ---       #260
      01001B80H   LINE      CODE     ---       #261
LX51 LINKER/LOCATER V4.66.41.0                                                        06/10/2021  16:03:55  PAGE 50


      01001B83H   LINE      CODE     ---       #262
      01001B83H   LINE      CODE     ---       #263
      01001BC9H   LINE      CODE     ---       #264
      01001BC9H   LINE      CODE     ---       #265
      01001BCEH   LINE      CODE     ---       #266
      01001BCEH   LINE      CODE     ---       #267
      01001BD7H   LINE      CODE     ---       #268
      ---         BLOCKEND  ---      ---       LVL=0

      010017B7H   BLOCK     CODE     ---       LVL=0
      00000023H   SYMBOL    DATA     ---       s
      010017BDH   BLOCK     CODE     NEAR LAB  LVL=1
      00000026H   SYMBOL    DATA     CHAR      t
      00000027H   SYMBOL    DATA     CHAR      u
      00000028H   SYMBOL    DATA     BYTE      w
      00000029H   SYMBOL    DATA     BYTE      i
      0000002AH   SYMBOL    DATA     BYTE      j
      ---         BLOCKEND  ---      ---       LVL=1
      010017B7H   LINE      CODE     ---       #272
      010017BDH   LINE      CODE     ---       #273
      010017BDH   LINE      CODE     ---       #274
      010017C3H   LINE      CODE     ---       #276
      010017C6H   LINE      CODE     ---       #277
      010017DAH   LINE      CODE     ---       #278
      010017DAH   LINE      CODE     ---       #279
      010017E1H   LINE      CODE     ---       #280
      010017E1H   LINE      CODE     ---       #281
      010017E6H   LINE      CODE     ---       #282
      010017EFH   LINE      CODE     ---       #283
      010017F7H   LINE      CODE     ---       #284
      010017F7H   LINE      CODE     ---       #285
      010017F9H   LINE      CODE     ---       #286
      010017FFH   LINE      CODE     ---       #287
      01001802H   LINE      CODE     ---       #288
      01001819H   LINE      CODE     ---       #289
      01001869H   LINE      CODE     ---       #290
      010018AAH   LINE      CODE     ---       #291
      010018ADH   LINE      CODE     ---       #292
      010018B0H   LINE      CODE     ---       #293
      010018B0H   LINE      CODE     ---       #294
      010018B0H   LINE      CODE     ---       #295
      010018C4H   LINE      CODE     ---       #296
      010018C7H   LINE      CODE     ---       #297
      ---         BLOCKEND  ---      ---       LVL=0

      01001BD8H   BLOCK     CODE     ---       LVL=0
      01001BD8H   LINE      CODE     ---       #301
      01001BD8H   LINE      CODE     ---       #302
      01001BD8H   LINE      CODE     ---       #303
      01001BDBH   LINE      CODE     ---       #304
      01001BE4H   LINE      CODE     ---       #305
      01001BF6H   LINE      CODE     ---       #306
      01001BFFH   LINE      CODE     ---       #307
      01001C11H   LINE      CODE     ---       #308
      01001C1AH   LINE      CODE     ---       #309
      01001C2CH   LINE      CODE     ---       #310
      01001C35H   LINE      CODE     ---       #311
      01001C3EH   LINE      CODE     ---       #312
      01001C50H   LINE      CODE     ---       #313
      01001C59H   LINE      CODE     ---       #314
      01001C6BH   LINE      CODE     ---       #315
      01001C74H   LINE      CODE     ---       #316
      01001C7DH   LINE      CODE     ---       #317
      01001C92H   LINE      CODE     ---       #318
      01001C9BH   LINE      CODE     ---       #319
LX51 LINKER/LOCATER V4.66.41.0                                                        06/10/2021  16:03:55  PAGE 51


      ---         BLOCKEND  ---      ---       LVL=0

      ---         MODULE    ---      ---       MUSIC
      00000063H   PUBLIC    DATA     BYTE      N
      01002A8CH   PUBLIC    CODE     ---       _play_one
      01002EEAH   PUBLIC    CODE     ---       clock_stop
      01000020H   PUBLIC    CODE     ---       clock_start
      0100003EH   PUBLIC    CODE     ---       music_init
      01002CE4H   PUBLIC    CODE     ---       _delays
      00000092H   SFRSYM    DATA     BYTE      P1M0
      00000093H   SFRSYM    DATA     BYTE      P0M1
      00000096H   SFRSYM    DATA     BYTE      P2M0
      00000091H   SFRSYM    DATA     BYTE      P1M1
      00000080H   SFRSYM    DATA     BYTE      P0
      000000B2H   SFRSYM    DATA     BYTE      P3M0
      00000095H   SFRSYM    DATA     BYTE      P2M1
      00000090H   SFRSYM    DATA     BYTE      P1
      000000B4H   SFRSYM    DATA     BYTE      P4M0
      000000B1H   SFRSYM    DATA     BYTE      P3M1
      000000A0H   SFRSYM    DATA     BYTE      P2
      000000CAH   SFRSYM    DATA     BYTE      P5M0
      000000B3H   SFRSYM    DATA     BYTE      P4M1
      000000B0H   SFRSYM    DATA     BYTE      P3
      000000C9H   SFRSYM    DATA     BYTE      P5M1
      000000C0H   SFRSYM    DATA     BYTE      P4
      000000D0H.6 SFRSYM    DATA     BIT       AC
      000000C8H   SFRSYM    DATA     BYTE      P5
      000000A8H.7 SFRSYM    DATA     BIT       EA
      000000CEH   SFRSYM    DATA     BYTE      SPCTL
      000000D8H.7 SFRSYM    DATA     BIT       CF
      00000080H   SFRSYM    DATA     BIT       io1
      00000080H.2 SFRSYM    DATA     BIT       io2
      000000F9H   SFRSYM    DATA     BYTE      CH
      00000080H.2 SFRSYM    DATA     BIT       io3
      000000A8H.5 SFRSYM    DATA     BIT       EADC
      000000A8H   SFRSYM    DATA     BYTE      IE
      000000E9H   SFRSYM    DATA     BYTE      CL
      000000C5H   SFRSYM    DATA     BYTE      IAP_CMD
      000000FAH   SFRSYM    DATA     BYTE      CCAP0H
      000000FBH   SFRSYM    DATA     BYTE      CCAP1H
      000000BDH   SFRSYM    DATA     BYTE      ADC_RES
      000000B6H   SFRSYM    DATA     BYTE      IPH2
      000000EAH   SFRSYM    DATA     BYTE      CCAP0L
      000000D8H.6 SFRSYM    DATA     BIT       CR
      000000EBH   SFRSYM    DATA     BYTE      CCAP1L
      000000DAH   SFRSYM    DATA     BYTE      CCAPM0
      000000DBH   SFRSYM    DATA     BYTE      CCAPM1
      000000A8H.4 SFRSYM    DATA     BIT       ES
      000000B8H.5 SFRSYM    DATA     BIT       PADC
      000000B8H   SFRSYM    DATA     BYTE      IP
      00000098H   SFRSYM    DATA     BIT       RI
      000000D0H.7 SFRSYM    DATA     BIT       CY
      00000098H.1 SFRSYM    DATA     BIT       TI
      00000097H   SFRSYM    DATA     BYTE      CLK_DIV
      000000C3H   SFRSYM    DATA     BYTE      IAP_ADDRH
      000000B8H.4 SFRSYM    DATA     BIT       PS
      00000081H   SFRSYM    DATA     BYTE      SP
      000000C4H   SFRSYM    DATA     BYTE      IAP_ADDRL
      000000D9H   SFRSYM    DATA     BYTE      CMOD
      000000D8H   SFRSYM    DATA     BYTE      CCON
      000000B8H.7 SFRSYM    DATA     BIT       PPCA
      000000D0H.2 SFRSYM    DATA     BIT       OV
      000000A8H.6 SFRSYM    DATA     BIT       ELVD
      000000BBH   SFRSYM    DATA     BYTE      P4SW
      00000080H   SFRSYM    DATA     BIT       P00
LX51 LINKER/LOCATER V4.66.41.0                                                        06/10/2021  16:03:55  PAGE 52


      000000BCH   SFRSYM    DATA     BYTE      ADC_CONTR
      00000099H   SFRSYM    DATA     BYTE      SBUF
      00000090H   SFRSYM    DATA     BIT       P10
      00000080H.1 SFRSYM    DATA     BIT       P01
      00000087H   SFRSYM    DATA     BYTE      PCON
      000000A0H   SFRSYM    DATA     BIT       P20
      00000090H.1 SFRSYM    DATA     BIT       P11
      00000080H.2 SFRSYM    DATA     BIT       P02
      000000B0H   SFRSYM    DATA     BIT       P30
      000000A0H.1 SFRSYM    DATA     BIT       P21
      00000090H.2 SFRSYM    DATA     BIT       P12
      00000080H.3 SFRSYM    DATA     BIT       P03
      00000098H   SFRSYM    DATA     BYTE      SCON
      000000C0H   SFRSYM    DATA     BIT       P40
      000000B0H.1 SFRSYM    DATA     BIT       P31
      000000A0H.2 SFRSYM    DATA     BIT       P22
      00000090H.3 SFRSYM    DATA     BIT       P13
      00000080H.4 SFRSYM    DATA     BIT       P04
      0000008FH   SFRSYM    DATA     BYTE      WAKE_CLKO
      00000089H   SFRSYM    DATA     BYTE      TMOD
      00000088H   SFRSYM    DATA     BYTE      TCON
      000000C8H   SFRSYM    DATA     BIT       P50
      000000C0H.1 SFRSYM    DATA     BIT       P41
      000000B0H.2 SFRSYM    DATA     BIT       P32
      000000A0H.3 SFRSYM    DATA     BIT       P23
      00000090H.4 SFRSYM    DATA     BIT       P14
      00000080H.5 SFRSYM    DATA     BIT       P05
      000000C8H.1 SFRSYM    DATA     BIT       P51
      000000C0H.2 SFRSYM    DATA     BIT       P42
      000000B0H.3 SFRSYM    DATA     BIT       P33
      000000A0H.4 SFRSYM    DATA     BIT       P24
      00000090H.5 SFRSYM    DATA     BIT       P15
      00000080H.6 SFRSYM    DATA     BIT       P06
      000000C8H.2 SFRSYM    DATA     BIT       P52
      000000C0H.3 SFRSYM    DATA     BIT       P43
      000000B0H.4 SFRSYM    DATA     BIT       P34
      000000A0H.5 SFRSYM    DATA     BIT       P25
      00000090H.6 SFRSYM    DATA     BIT       P16
      00000080H.7 SFRSYM    DATA     BIT       P07
      000000B8H.6 SFRSYM    DATA     BIT       PLVD
      000000C8H.3 SFRSYM    DATA     BIT       P53
      000000C0H.4 SFRSYM    DATA     BIT       P44
      000000B0H.5 SFRSYM    DATA     BIT       P35
      000000A0H.6 SFRSYM    DATA     BIT       P26
      00000090H.7 SFRSYM    DATA     BIT       P17
      000000C0H.5 SFRSYM    DATA     BIT       P45
      000000B0H.6 SFRSYM    DATA     BIT       P36
      000000A0H.7 SFRSYM    DATA     BIT       P27
      000000C0H.6 SFRSYM    DATA     BIT       P46
      000000B0H.7 SFRSYM    DATA     BIT       P37
      000000C0H.7 SFRSYM    DATA     BIT       P47
      00000088H.1 SFRSYM    DATA     BIT       IE0
      000000A1H   SFRSYM    DATA     BYTE      BUS_SPEED
      00000088H.3 SFRSYM    DATA     BIT       IE1
      000000AFH   SFRSYM    DATA     BYTE      IE2
      0000008EH   SFRSYM    DATA     BYTE      AUXR
      000000F0H   SFRSYM    DATA     BYTE      B
      000000C7H   SFRSYM    DATA     BYTE      IAP_CONTR
      000000E0H   SFRSYM    DATA     BYTE      ACC
      000000A8H.1 SFRSYM    DATA     BIT       ET0
      00000088H.5 SFRSYM    DATA     BIT       TF0
      000000A8H.3 SFRSYM    DATA     BIT       ET1
      00000088H.7 SFRSYM    DATA     BIT       TF1
      000000B5H   SFRSYM    DATA     BYTE      IP2
      00000098H.2 SFRSYM    DATA     BIT       RB8
LX51 LINKER/LOCATER V4.66.41.0                                                        06/10/2021  16:03:55  PAGE 53


      0000008CH   SFRSYM    DATA     BYTE      TH0
      0000008DH   SFRSYM    DATA     BYTE      TH1
      00000088H   SFRSYM    DATA     BIT       IT0
      000000A8H   SFRSYM    DATA     BIT       EX0
      00000098H.3 SFRSYM    DATA     BIT       TB8
      00000088H.2 SFRSYM    DATA     BIT       IT1
      000000A8H.2 SFRSYM    DATA     BIT       EX1
      000000D0H   SFRSYM    DATA     BIT       P
      00000098H.7 SFRSYM    DATA     BIT       SM0
      0000008AH   SFRSYM    DATA     BYTE      TL0
      00000098H.6 SFRSYM    DATA     BIT       SM1
      0000008BH   SFRSYM    DATA     BYTE      TL1
      00000098H.5 SFRSYM    DATA     BIT       SM2
      000000B8H.1 SFRSYM    DATA     BIT       PT0
      000000B8H.3 SFRSYM    DATA     BIT       PT1
      000000D0H.3 SFRSYM    DATA     BIT       RS0
      000000C2H   SFRSYM    DATA     BYTE      IAP_DATA
      00000088H.4 SFRSYM    DATA     BIT       TR0
      000000D0H.4 SFRSYM    DATA     BIT       RS1
      00000088H.6 SFRSYM    DATA     BIT       TR1
      000000C1H   SFRSYM    DATA     BYTE      WDT_CONTR
      000000B8H   SFRSYM    DATA     BIT       PX0
      000000B8H.2 SFRSYM    DATA     BIT       PX1
      000000F2H   SFRSYM    DATA     BYTE      PCA_PWM0
      000000F3H   SFRSYM    DATA     BYTE      PCA_PWM1
      0000009DH   SFRSYM    DATA     BYTE      P1ASF
      00000083H   SFRSYM    DATA     BYTE      DPH
      000000BEH   SFRSYM    DATA     BYTE      ADC_RESL
      00000082H   SFRSYM    DATA     BYTE      DPL
      000000CDH   SFRSYM    DATA     BYTE      SPSTAT
      000000B7H   SFRSYM    DATA     BYTE      IPH
      0000009BH   SFRSYM    DATA     BYTE      S2BUF
      00000098H.4 SFRSYM    DATA     BIT       REN
      0000009AH   SFRSYM    DATA     BYTE      S2CON
      0000009CH   SFRSYM    DATA     BYTE      BRT
      000000B9H   SFRSYM    DATA     BYTE      SADEN
      000000A9H   SFRSYM    DATA     BYTE      SADDR
      000000C6H   SFRSYM    DATA     BYTE      IAP_TRIG
      000000A2H   SFRSYM    DATA     BYTE      AUXR1
      000000D0H.5 SFRSYM    DATA     BIT       F0
      000000D0H   SFRSYM    DATA     BYTE      PSW
      000000D8H   SFRSYM    DATA     BIT       CCF0
      000000CFH   SFRSYM    DATA     BYTE      SPDAT
      000000D8H.1 SFRSYM    DATA     BIT       CCF1
      00000094H   SFRSYM    DATA     BYTE      P0M0

      01002CE4H   BLOCK     CODE     ---       LVL=0
      00000006H   SYMBOL    DATA     WORD      t
      01002CE4H   BLOCK     CODE     NEAR LAB  LVL=1
      00000002H   SYMBOL    DATA     WORD      i
      00000082H   SYMBOL    DATA     WORD      j
      00000004H   SYMBOL    DATA     WORD      k
      ---         BLOCKEND  ---      ---       LVL=1
      01002CE4H   LINE      CODE     ---       #8
      01002CE4H   LINE      CODE     ---       #9
      01002CE4H   LINE      CODE     ---       #11
      01002CEEH   LINE      CODE     ---       #12
      01002CF1H   LINE      CODE     ---       #13
      01002D0FH   LINE      CODE     ---       #14
      ---         BLOCKEND  ---      ---       LVL=0

      0100003EH   BLOCK     CODE     ---       LVL=0
      0100003EH   LINE      CODE     ---       #15
      0100003EH   LINE      CODE     ---       #16
      0100003EH   LINE      CODE     ---       #17
LX51 LINKER/LOCATER V4.66.41.0                                                        06/10/2021  16:03:55  PAGE 54


      01000040H   LINE      CODE     ---       #18
      01000042H   LINE      CODE     ---       #19
      ---         BLOCKEND  ---      ---       LVL=0

      01000020H   BLOCK     CODE     ---       LVL=0
      01000020H   LINE      CODE     ---       #20
      01000020H   LINE      CODE     ---       #21
      01000020H   LINE      CODE     ---       #22
      01000022H   LINE      CODE     ---       #23
      ---         BLOCKEND  ---      ---       LVL=0

      01002EEAH   BLOCK     CODE     ---       LVL=0
      01002EEAH   LINE      CODE     ---       #24
      01002EEAH   LINE      CODE     ---       #25
      01002EEAH   LINE      CODE     ---       #26
      01002EECH   LINE      CODE     ---       #27
      ---         BLOCKEND  ---      ---       LVL=0

      01002A8CH   BLOCK     CODE     ---       LVL=0
      00000001H   SYMBOL    DATA     CHAR      n
      01002A8EH   BLOCK     CODE     NEAR LAB  LVL=1
      00000027H   SYMBOL    DATA     BYTE      t
      ---         BLOCKEND  ---      ---       LVL=1
      01002A8CH   LINE      CODE     ---       #28
      01002A8EH   LINE      CODE     ---       #29
      01002A8EH   LINE      CODE     ---       #31
      01002A9FH   LINE      CODE     ---       #32
      01002AA6H   LINE      CODE     ---       #34
      01002AAEH   LINE      CODE     ---       #35
      01002AB5H   LINE      CODE     ---       #36
      01002AB5H   LINE      CODE     ---       #37
      01002AB7H   LINE      CODE     ---       #38
      01002ABEH   LINE      CODE     ---       #39
      01002AC0H   LINE      CODE     ---       #40
      01002AC3H   LINE      CODE     ---       #41
      01002AC5H   LINE      CODE     ---       #42
      01002AC7H   LINE      CODE     ---       #43
      ---         BLOCKEND  ---      ---       LVL=0

      ---         MODULE    ---      ---       KEY
      0000001BH   PUBLIC    DATA     ---       keys
      00000092H   SFRSYM    DATA     BYTE      P1M0
      00000093H   SFRSYM    DATA     BYTE      P0M1
      00000096H   SFRSYM    DATA     BYTE      P2M0
      00000091H   SFRSYM    DATA     BYTE      P1M1
      00000080H   SFRSYM    DATA     BYTE      P0
      000000B2H   SFRSYM    DATA     BYTE      P3M0
      00000095H   SFRSYM    DATA     BYTE      P2M1
      00000090H   SFRSYM    DATA     BYTE      P1
      000000B4H   SFRSYM    DATA     BYTE      P4M0
      000000B1H   SFRSYM    DATA     BYTE      P3M1
      000000A0H   SFRSYM    DATA     BYTE      P2
      000000CAH   SFRSYM    DATA     BYTE      P5M0
      000000B3H   SFRSYM    DATA     BYTE      P4M1
      000000B0H   SFRSYM    DATA     BYTE      P3
      000000C9H   SFRSYM    DATA     BYTE      P5M1
      000000C0H   SFRSYM    DATA     BYTE      P4
      000000D0H.6 SFRSYM    DATA     BIT       AC
      000000C8H   SFRSYM    DATA     BYTE      P5
      000000A8H.7 SFRSYM    DATA     BIT       EA
      000000CEH   SFRSYM    DATA     BYTE      SPCTL
      000000D8H.7 SFRSYM    DATA     BIT       CF
      000000F9H   SFRSYM    DATA     BYTE      CH
      000000A8H.5 SFRSYM    DATA     BIT       EADC
      000000A8H   SFRSYM    DATA     BYTE      IE
LX51 LINKER/LOCATER V4.66.41.0                                                        06/10/2021  16:03:55  PAGE 55


      000000E9H   SFRSYM    DATA     BYTE      CL
      000000C5H   SFRSYM    DATA     BYTE      IAP_CMD
      000000FAH   SFRSYM    DATA     BYTE      CCAP0H
      000000FBH   SFRSYM    DATA     BYTE      CCAP1H
      000000BDH   SFRSYM    DATA     BYTE      ADC_RES
      000000B6H   SFRSYM    DATA     BYTE      IPH2
      000000EAH   SFRSYM    DATA     BYTE      CCAP0L
      000000D8H.6 SFRSYM    DATA     BIT       CR
      000000EBH   SFRSYM    DATA     BYTE      CCAP1L
      000000DAH   SFRSYM    DATA     BYTE      CCAPM0
      000000DBH   SFRSYM    DATA     BYTE      CCAPM1
      000000A8H.4 SFRSYM    DATA     BIT       ES
      000000B8H.5 SFRSYM    DATA     BIT       PADC
      000000B8H   SFRSYM    DATA     BYTE      IP
      00000098H   SFRSYM    DATA     BIT       RI
      000000D0H.7 SFRSYM    DATA     BIT       CY
      00000098H.1 SFRSYM    DATA     BIT       TI
      00000097H   SFRSYM    DATA     BYTE      CLK_DIV
      000000C3H   SFRSYM    DATA     BYTE      IAP_ADDRH
      000000B8H.4 SFRSYM    DATA     BIT       PS
      00000081H   SFRSYM    DATA     BYTE      SP
      000000C4H   SFRSYM    DATA     BYTE      IAP_ADDRL
      000000D9H   SFRSYM    DATA     BYTE      CMOD
      000000D8H   SFRSYM    DATA     BYTE      CCON
      000000B8H.7 SFRSYM    DATA     BIT       PPCA
      000000D0H.2 SFRSYM    DATA     BIT       OV
      000000A8H.6 SFRSYM    DATA     BIT       ELVD
      000000BBH   SFRSYM    DATA     BYTE      P4SW
      00000080H   SFRSYM    DATA     BIT       P00
      000000BCH   SFRSYM    DATA     BYTE      ADC_CONTR
      00000099H   SFRSYM    DATA     BYTE      SBUF
      00000090H   SFRSYM    DATA     BIT       P10
      00000080H.1 SFRSYM    DATA     BIT       P01
      00000087H   SFRSYM    DATA     BYTE      PCON
      000000A0H   SFRSYM    DATA     BIT       P20
      00000090H.1 SFRSYM    DATA     BIT       P11
      00000080H.2 SFRSYM    DATA     BIT       P02
      000000B0H   SFRSYM    DATA     BIT       P30
      000000A0H.1 SFRSYM    DATA     BIT       P21
      00000090H.2 SFRSYM    DATA     BIT       P12
      00000080H.3 SFRSYM    DATA     BIT       P03
      00000098H   SFRSYM    DATA     BYTE      SCON
      000000C0H   SFRSYM    DATA     BIT       P40
      000000B0H.1 SFRSYM    DATA     BIT       P31
      000000A0H.2 SFRSYM    DATA     BIT       P22
      00000090H.3 SFRSYM    DATA     BIT       P13
      00000080H.4 SFRSYM    DATA     BIT       P04
      0000008FH   SFRSYM    DATA     BYTE      WAKE_CLKO
      00000089H   SFRSYM    DATA     BYTE      TMOD
      00000088H   SFRSYM    DATA     BYTE      TCON
      000000C8H   SFRSYM    DATA     BIT       P50
      000000C0H.1 SFRSYM    DATA     BIT       P41
      000000B0H.2 SFRSYM    DATA     BIT       P32
      000000A0H.3 SFRSYM    DATA     BIT       P23
      00000090H.4 SFRSYM    DATA     BIT       P14
      00000080H.5 SFRSYM    DATA     BIT       P05
      000000C8H.1 SFRSYM    DATA     BIT       P51
      000000C0H.2 SFRSYM    DATA     BIT       P42
      000000B0H.3 SFRSYM    DATA     BIT       P33
      000000A0H.4 SFRSYM    DATA     BIT       P24
      00000090H.5 SFRSYM    DATA     BIT       P15
      00000080H.6 SFRSYM    DATA     BIT       P06
      000000C8H.2 SFRSYM    DATA     BIT       P52
      000000C0H.3 SFRSYM    DATA     BIT       P43
      000000B0H.4 SFRSYM    DATA     BIT       P34
LX51 LINKER/LOCATER V4.66.41.0                                                        06/10/2021  16:03:55  PAGE 56


      000000A0H.5 SFRSYM    DATA     BIT       P25
      00000090H.6 SFRSYM    DATA     BIT       P16
      00000080H.7 SFRSYM    DATA     BIT       P07
      000000B8H.6 SFRSYM    DATA     BIT       PLVD
      000000C8H.3 SFRSYM    DATA     BIT       P53
      000000C0H.4 SFRSYM    DATA     BIT       P44
      000000B0H.5 SFRSYM    DATA     BIT       P35
      000000A0H.6 SFRSYM    DATA     BIT       P26
      00000090H.7 SFRSYM    DATA     BIT       P17
      000000C0H.5 SFRSYM    DATA     BIT       P45
      000000B0H.6 SFRSYM    DATA     BIT       P36
      000000A0H.7 SFRSYM    DATA     BIT       P27
      000000C0H.6 SFRSYM    DATA     BIT       P46
      000000B0H.7 SFRSYM    DATA     BIT       P37
      000000C0H.7 SFRSYM    DATA     BIT       P47
      00000088H.1 SFRSYM    DATA     BIT       IE0
      000000A1H   SFRSYM    DATA     BYTE      BUS_SPEED
      00000088H.3 SFRSYM    DATA     BIT       IE1
      000000AFH   SFRSYM    DATA     BYTE      IE2
      0000008EH   SFRSYM    DATA     BYTE      AUXR
      000000F0H   SFRSYM    DATA     BYTE      B
      000000C7H   SFRSYM    DATA     BYTE      IAP_CONTR
      000000E0H   SFRSYM    DATA     BYTE      ACC
      000000A8H.1 SFRSYM    DATA     BIT       ET0
      00000088H.5 SFRSYM    DATA     BIT       TF0
      000000A8H.3 SFRSYM    DATA     BIT       ET1
      00000088H.7 SFRSYM    DATA     BIT       TF1
      000000B5H   SFRSYM    DATA     BYTE      IP2
      00000098H.2 SFRSYM    DATA     BIT       RB8
      0000008CH   SFRSYM    DATA     BYTE      TH0
      0000008DH   SFRSYM    DATA     BYTE      TH1
      00000088H   SFRSYM    DATA     BIT       IT0
      000000A8H   SFRSYM    DATA     BIT       EX0
      00000098H.3 SFRSYM    DATA     BIT       TB8
      00000088H.2 SFRSYM    DATA     BIT       IT1
      000000A8H.2 SFRSYM    DATA     BIT       EX1
      000000D0H   SFRSYM    DATA     BIT       P
      00000098H.7 SFRSYM    DATA     BIT       SM0
      0000008AH   SFRSYM    DATA     BYTE      TL0
      00000098H.6 SFRSYM    DATA     BIT       SM1
      0000008BH   SFRSYM    DATA     BYTE      TL1
      00000098H.5 SFRSYM    DATA     BIT       SM2
      000000B8H.1 SFRSYM    DATA     BIT       PT0
      000000B8H.3 SFRSYM    DATA     BIT       PT1
      000000D0H.3 SFRSYM    DATA     BIT       RS0
      000000C2H   SFRSYM    DATA     BYTE      IAP_DATA
      00000088H.4 SFRSYM    DATA     BIT       TR0
      000000D0H.4 SFRSYM    DATA     BIT       RS1
      00000088H.6 SFRSYM    DATA     BIT       TR1
      000000C1H   SFRSYM    DATA     BYTE      WDT_CONTR
      000000B8H   SFRSYM    DATA     BIT       PX0
      000000B8H.2 SFRSYM    DATA     BIT       PX1
      000000F2H   SFRSYM    DATA     BYTE      PCA_PWM0
      000000F3H   SFRSYM    DATA     BYTE      PCA_PWM1
      0000009DH   SFRSYM    DATA     BYTE      P1ASF
      00000083H   SFRSYM    DATA     BYTE      DPH
      000000BEH   SFRSYM    DATA     BYTE      ADC_RESL
      00000082H   SFRSYM    DATA     BYTE      DPL
      000000CDH   SFRSYM    DATA     BYTE      SPSTAT
      000000B7H   SFRSYM    DATA     BYTE      IPH
      0000009BH   SFRSYM    DATA     BYTE      S2BUF
      00000098H.4 SFRSYM    DATA     BIT       REN
      0000009AH   SFRSYM    DATA     BYTE      S2CON
      0000009CH   SFRSYM    DATA     BYTE      BRT
      000000B9H   SFRSYM    DATA     BYTE      SADEN
LX51 LINKER/LOCATER V4.66.41.0                                                        06/10/2021  16:03:55  PAGE 57


      000000A9H   SFRSYM    DATA     BYTE      SADDR
      000000C6H   SFRSYM    DATA     BYTE      IAP_TRIG
      000000A2H   SFRSYM    DATA     BYTE      AUXR1
      000000D0H.5 SFRSYM    DATA     BIT       F0
      000000D0H   SFRSYM    DATA     BYTE      PSW
      000000D8H   SFRSYM    DATA     BIT       CCF0
      000000CFH   SFRSYM    DATA     BYTE      SPDAT
      000000D8H.1 SFRSYM    DATA     BIT       CCF1
      00000094H   SFRSYM    DATA     BYTE      P0M0
      00000007H   SYMBOL    DATA     BYTE      i
      00000006H   SYMBOL    DATA     BYTE      j
      00000007H   SYMBOL    DATA     BYTE      p
      00000005H   SYMBOL    DATA     BYTE      i
      00000006H   SYMBOL    DATA     BYTE      mask
      00000006H   SYMBOL    DATA     BYTE      mask
      00000022H.0 SYMBOL    BIT      BIT       be_state
      00000004H   SYMBOL    DATA     BYTE      i
      00000022H.1 SYMBOL    BIT      BIT       be_state
      00000006H   SYMBOL    DATA     BYTE      temp
      00000005H   SYMBOL    DATA     BYTE      out
      00000001H   SYMBOL    DATA     BYTE      mask
      00000004H   SYMBOL    DATA     BYTE      i
      00000003H   SYMBOL    DATA     BYTE      j

      ---         MODULE    ---      ---       ?C?FPDIV
      01000049H   PUBLIC    CODE     ---       ?C?FPDIV

      ---         MODULE    ---      ---       ?C?FCAST
      010000F0H   PUBLIC    CODE     ---       ?C?FCASTC
      010000EBH   PUBLIC    CODE     ---       ?C?FCASTI
      010000E6H   PUBLIC    CODE     ---       ?C?FCASTL

      ---         MODULE    ---      ---       ?C?CASTF
      01000124H   PUBLIC    CODE     ---       ?C?CASTF

      ---         MODULE    ---      ---       PRINTF
      00000046H   PUBLIC    DATA     ---       ?_PRINTF?BYTE
      00000046H   PUBLIC    DATA     ---       ?_SPRINTF?BYTE
      01000AB5H   PUBLIC    CODE     ---       _PRINTF
      01000AAFH   PUBLIC    CODE     ---       _SPRINTF

      ---         MODULE    ---      ---       ?C?FPGETOPN
      0100015BH   PUBLIC    CODE     ---       ?C?FPGETOPN2
      01000190H   PUBLIC    CODE     ---       ?C?FPNANRESULT
      0100019AH   PUBLIC    CODE     ---       ?C?FPOVERFLOW
      01000172H   PUBLIC    CODE     ---       ?C?FPRESULT
      01000186H   PUBLIC    CODE     ---       ?C?FPRESULT2
      01000197H   PUBLIC    CODE     ---       ?C?FPUNDERFLOW

      ---         MODULE    ---      ---       ?C?FPROUND
      010001A5H   PUBLIC    CODE     ---       ?C?FPROUND

      ---         MODULE    ---      ---       ?C?FPCONVERT
      010001D4H   PUBLIC    CODE     ---       ?C?FPCONVERT

      ---         MODULE    ---      ---       ?C?FPADD
      010002DEH   PUBLIC    CODE     ---       ?C?FPADD
      010002DAH   PUBLIC    CODE     ---       ?C?FPSUB

      ---         MODULE    ---      ---       ?C?FPMUL
      010003CFH   PUBLIC    CODE     ---       ?C?FPMUL

      ---         MODULE    ---      ---       ?C?FTNPWR
      01000505H   PUBLIC    CODE     ---       ?C?FTNPWR

LX51 LINKER/LOCATER V4.66.41.0                                                        06/10/2021  16:03:55  PAGE 58


      ---         MODULE    ---      ---       ?C_STARTUP
      01000000H   PUBLIC    CODE     ---       ?C_STARTUP

      ---         MODULE    ---      ---       ?C?COPY
      01000615H   PUBLIC    CODE     ---       ?C?COPY

      ---         MODULE    ---      ---       ?C?CLDPTR
      0100063BH   PUBLIC    CODE     ---       ?C?CLDPTR

      ---         MODULE    ---      ---       ?C?CLDOPTR
      01000654H   PUBLIC    CODE     ---       ?C?CLDOPTR

      ---         MODULE    ---      ---       ?C?CSTPTR
      01000681H   PUBLIC    CODE     ---       ?C?CSTPTR

      ---         MODULE    ---      ---       ?C?CSTOPTR
      01000693H   PUBLIC    CODE     ---       ?C?CSTOPTR

      ---         MODULE    ---      ---       ?C?IMUL
      010006B5H   PUBLIC    CODE     ---       ?C?IMUL

      ---         MODULE    ---      ---       ?C?UIDIV
      010006C7H   PUBLIC    CODE     ---       ?C?UIDIV

      ---         MODULE    ---      ---       ?C?ILDOPTR
      0100071CH   PUBLIC    CODE     ---       ?C?ILDOPTR

      ---         MODULE    ---      ---       ?C?ISTOPTR
      01000754H   PUBLIC    CODE     ---       ?C?ISTOPTR

      ---         MODULE    ---      ---       ?C?LMUL
      01000781H   PUBLIC    CODE     ---       ?C?LMUL

      ---         MODULE    ---      ---       ?C?ULDIV
      0100080CH   PUBLIC    CODE     ---       ?C?ULDIV

      ---         MODULE    ---      ---       ?C?SLDIV
      01002948H   PUBLIC    CODE     ---       ?C?SLDIV

      ---         MODULE    ---      ---       ?C?LNEG
      0100089EH   PUBLIC    CODE     ---       ?C?LNEG

      ---         MODULE    ---      ---       ?C?SLCMP
      010008ACH   PUBLIC    CODE     ---       ?C?SLCMP

      ---         MODULE    ---      ---       ?C?ULCMP
      010008C2H   PUBLIC    CODE     ---       ?C?ULCMP

      ---         MODULE    ---      ---       ?C?ULSHR
      010008D3H   PUBLIC    CODE     ---       ?C?ULSHR

      ---         MODULE    ---      ---       ?C?SLSHR
      010008E6H   PUBLIC    CODE     ---       ?C?SLSHR

      ---         MODULE    ---      ---       ?C?LSHL
      010008FAH   PUBLIC    CODE     ---       ?C?LSHL

      ---         MODULE    ---      ---       ?C?LSTXDATA
      0100090DH   PUBLIC    CODE     ---       ?C?LSTXDATA

      ---         MODULE    ---      ---       ?C?LSTKXDATA
      01000919H   PUBLIC    CODE     ---       ?C?LSTKXDATA

      ---         MODULE    ---      ---       ?C?OFFXADD
      0100094AH   PUBLIC    CODE     ---       ?C?OFFXADD
LX51 LINKER/LOCATER V4.66.41.0                                                        06/10/2021  16:03:55  PAGE 59



      ---         MODULE    ---      ---       ?C?PLDIIDATA
      01000956H   PUBLIC    CODE     ---       ?C?PLDIIDATA

      ---         MODULE    ---      ---       ?C?PLDPTR
      01000966H   PUBLIC    CODE     ---       ?C?PLDPTR

      ---         MODULE    ---      ---       ?C?PSTPTR
      01000986H   PUBLIC    CODE     ---       ?C?PSTPTR

      ---         MODULE    ---      ---       ?C?CCASE
      010009D5H   PUBLIC    CODE     ---       ?C?CCASE

      ---         MODULE    ---      ---       PUTCHAR
      01002D10H   PUBLIC    CODE     ---       _PUTCHAR

      ---         MODULE    ---      ---       MALLOC
      01001F8AH   PUBLIC    CODE     ---       _MALLOC

      ---         MODULE    ---      ---       INIT_MEM
      020003C2H   PUBLIC    XDATA    ---       __MEM_AVAIL__
      01002AC8H   PUBLIC    CODE     ---       _INIT_MEMPOOL

      ---         MODULE    ---      ---       FREE
      010019D5H   PUBLIC    CODE     ---       _FREE

      ---         MODULE    ---      ---       ?C_INIT
      010022C1H   PUBLIC    CODE     ---       ?C_START

      ---         MODULE    ---      ---       ?C?IILDX
      010009FBH   PUBLIC    CODE     ---       ?C?IILDX

      ---         MODULE    ---      ---       ?C?PLDIDATA
      01000A11H   PUBLIC    CODE     ---       ?C?PLDIDATA

      ---         MODULE    ---      ---       ?C?PSTIDATA
      01000A1AH   PUBLIC    CODE     ---       ?C?PSTIDATA

      ---         MODULE    ---      ---       ?C?PLDXDATA
      01000A23H   PUBLIC    CODE     ---       ?C?PLDXDATA

      ---         MODULE    ---      ---       ?C?PSTXDATA
      01000A2CH   PUBLIC    CODE     ---       ?C?PSTXDATA

      ---         MODULE    ---      ---       ?C?PLDPDATA
      01000A35H   PUBLIC    CODE     ---       ?C?PLDPDATA

      ---         MODULE    ---      ---       ?C?PSTPDATA
      01000A3EH   PUBLIC    CODE     ---       ?C?PSTPDATA

      ---         MODULE    ---      ---       ?C?PLDCODE
      01000A47H   PUBLIC    CODE     ---       ?C?PLDCODE

Program Size: data=100.2 xdata=970 const=0 code=12013
LX51 RUN COMPLETE.  0 WARNING(S),  0 ERROR(S)
